
SimpleTesting.elf:     file format elf32-avr

Sections:
Idx Name          Size      VMA       LMA       File off  Algn
  0 .text         00002eb2  00000000  00000000  00000094  2**1
                  CONTENTS, ALLOC, LOAD, READONLY, CODE
  1 .data         0000013c  00800060  00002eb2  00002f46  2**0
                  CONTENTS, ALLOC, LOAD, DATA
  2 .bss          000003b3  0080019c  0080019c  00003082  2**0
                  ALLOC
  3 .stab         000039b4  00000000  00000000  00003084  2**2
                  CONTENTS, READONLY, DEBUGGING
  4 .stabstr      000010e8  00000000  00000000  00006a38  2**0
                  CONTENTS, READONLY, DEBUGGING
  5 .comment      0000002f  00000000  00000000  00007b20  2**0
                  CONTENTS, READONLY
  6 .debug_aranges 00000440  00000000  00000000  00007b4f  2**0
                  CONTENTS, READONLY, DEBUGGING
  7 .debug_info   000071b4  00000000  00000000  00007f8f  2**0
                  CONTENTS, READONLY, DEBUGGING
  8 .debug_abbrev 0000103f  00000000  00000000  0000f143  2**0
                  CONTENTS, READONLY, DEBUGGING
  9 .debug_line   00001883  00000000  00000000  00010182  2**0
                  CONTENTS, READONLY, DEBUGGING
 10 .debug_frame  00000a68  00000000  00000000  00011a08  2**2
                  CONTENTS, READONLY, DEBUGGING
 11 .debug_str    000013ef  00000000  00000000  00012470  2**0
                  CONTENTS, READONLY, DEBUGGING
 12 .debug_loc    00001849  00000000  00000000  0001385f  2**0
                  CONTENTS, READONLY, DEBUGGING
 13 .debug_ranges 000003a0  00000000  00000000  000150a8  2**0
                  CONTENTS, READONLY, DEBUGGING

Disassembly of section .text:

00000000 <__vectors>:
	write_acc_registry(LSM303_ACC_CTRL_REG4, 0b00010000);	// setting Scale to +-4G, LSM303 Datasheet Page 26
	write_string_ln("acc started");
}

struct acc_readings_obj acc_reading(void)
{
       0:	0c 94 41 00 	jmp	0x82	; 0x82 <__ctors_end>
       4:	0c 94 b2 02 	jmp	0x564	; 0x564 <__vector_1>
       8:	0c 94 5e 00 	jmp	0xbc	; 0xbc <__bad_interrupt>
	i2c_start();
       c:	0c 94 5e 00 	jmp	0xbc	; 0xbc <__bad_interrupt>
	i2c_send_address_write(LSM303_ACC_ADDRESS_WRITE);
      10:	0c 94 5e 00 	jmp	0xbc	; 0xbc <__bad_interrupt>
      14:	0c 94 e1 02 	jmp	0x5c2	; 0x5c2 <__vector_5>
	i2c_send_registry(LSM303_ACC_OUT_X_L+0b10000000);		// add MSB to activate auto increment
      18:	0c 94 5e 00 	jmp	0xbc	; 0xbc <__bad_interrupt>
      1c:	0c 94 62 01 	jmp	0x2c4	; 0x2c4 <__vector_7>
	i2c_repeated_start();
      20:	0c 94 5e 00 	jmp	0xbc	; 0xbc <__bad_interrupt>
	i2c_send_address_read(LSM303_ACC_ADDRESS_READ);
      24:	0c 94 5e 00 	jmp	0xbc	; 0xbc <__bad_interrupt>
      28:	0c 94 0c 03 	jmp	0x618	; 0x618 <__vector_10>
	acc_x_l = i2c_read_data_mak();
      2c:	0c 94 5e 00 	jmp	0xbc	; 0xbc <__bad_interrupt>
      30:	0c 94 5e 00 	jmp	0xbc	; 0xbc <__bad_interrupt>
	acc_x_h = i2c_read_data_mak();
      34:	0c 94 f1 12 	jmp	0x25e2	; 0x25e2 <__vector_13>
      38:	0c 94 5e 00 	jmp	0xbc	; 0xbc <__bad_interrupt>
	acc_y_l = i2c_read_data_mak();
      3c:	0c 94 5e 00 	jmp	0xbc	; 0xbc <__bad_interrupt>
      40:	0c 94 5e 00 	jmp	0xbc	; 0xbc <__bad_interrupt>
	acc_y_h = i2c_read_data_mak();
      44:	0c 94 5e 00 	jmp	0xbc	; 0xbc <__bad_interrupt>
      48:	0c 94 5e 00 	jmp	0xbc	; 0xbc <__bad_interrupt>
	acc_z_l = i2c_read_data_mak();
      4c:	0c 94 5e 00 	jmp	0xbc	; 0xbc <__bad_interrupt>
      50:	0c 94 5e 00 	jmp	0xbc	; 0xbc <__bad_interrupt>
	acc_z_h = i2c_read_data_nmak();					// add the end we give no master ack to finish communication
      54:	08 4a       	sbci	r16, 0xA8	; 168
      56:	d7 3b       	cpi	r29, 0xB7	; 183
      58:	3b ce       	rjmp	.-906    	; 0xfffffcd0 <__eeprom_end+0xff7efcd0>
	i2c_stop();
      5a:	01 6e       	ori	r16, 0xE1	; 225
      5c:	84 bc       	out	0x24, r8	; 36
	
	acc_x = ((acc_x_h<<8) | (acc_x_l))>>4;			// to combine high and low bits and to shift over not used bits
      5e:	bf fd       	.word	0xfdbf	; ????
      60:	c1 2f       	mov	r28, r17
      62:	3d 6c       	ori	r19, 0xCD	; 205
      64:	74 31       	cpi	r23, 0x14	; 20
      66:	9a bd       	out	0x2a, r25	; 42
      68:	56 83       	std	Z+6, r21	; 0x06
      6a:	3d da       	rcall	.-2950   	; 0xfffff4e6 <__eeprom_end+0xff7ef4e6>
      6c:	3d 00       	.word	0x003d	; ????
      6e:	c7 7f       	andi	r28, 0xF7	; 247
      70:	11 be       	out	0x31, r1	; 49
      72:	d9 e4       	ldi	r29, 0x49	; 73
      74:	bb 4c       	sbci	r27, 0xCB	; 203
      76:	3e 91       	ld	r19, -X
      78:	6b aa       	std	Y+51, r6	; 0x33
      7a:	aa be       	out	0x3a, r10	; 58
      7c:	00 00       	nop
      7e:	00 80       	ld	r0, Z
      80:	3f 00       	.word	0x003f	; ????

00000082 <__ctors_end>:
      82:	11 24       	eor	r1, r1
      84:	1f be       	out	0x3f, r1	; 63
      86:	cf e5       	ldi	r28, 0x5F	; 95
      88:	d8 e0       	ldi	r29, 0x08	; 8
	acc_y = ((acc_y_h<<8) | (acc_y_l))>>4;
      8a:	de bf       	out	0x3e, r29	; 62
      8c:	cd bf       	out	0x3d, r28	; 61

0000008e <__do_copy_data>:
      8e:	11 e0       	ldi	r17, 0x01	; 1
      90:	a0 e6       	ldi	r26, 0x60	; 96
      92:	b0 e0       	ldi	r27, 0x00	; 0
      94:	e2 eb       	ldi	r30, 0xB2	; 178
      96:	fe e2       	ldi	r31, 0x2E	; 46
      98:	02 c0       	rjmp	.+4      	; 0x9e <__do_copy_data+0x10>
      9a:	05 90       	lpm	r0, Z+
      9c:	0d 92       	st	X+, r0
      9e:	ac 39       	cpi	r26, 0x9C	; 156
      a0:	b1 07       	cpc	r27, r17
      a2:	d9 f7       	brne	.-10     	; 0x9a <__do_copy_data+0xc>

000000a4 <__do_clear_bss>:
      a4:	25 e0       	ldi	r18, 0x05	; 5
      a6:	ac e9       	ldi	r26, 0x9C	; 156
      a8:	b1 e0       	ldi	r27, 0x01	; 1
      aa:	01 c0       	rjmp	.+2      	; 0xae <.do_clear_bss_start>

000000ac <.do_clear_bss_loop>:
      ac:	1d 92       	st	X+, r1

000000ae <.do_clear_bss_start>:
      ae:	af 34       	cpi	r26, 0x4F	; 79
      b0:	b2 07       	cpc	r27, r18
      b2:	e1 f7       	brne	.-8      	; 0xac <.do_clear_bss_loop>
      b4:	0e 94 6c 03 	call	0x6d8	; 0x6d8 <main>
	acc_z = ((acc_z_h<<8) | (acc_z_l))>>4;
      b8:	0c 94 57 17 	jmp	0x2eae	; 0x2eae <_exit>

000000bc <__bad_interrupt>:
      bc:	0c 94 00 00 	jmp	0	; 0x0 <__vectors>

000000c0 <OLED_send_cmd>:
      c0:	cf 93       	push	r28
      c2:	c8 2f       	mov	r28, r24
      c4:	0e 94 3e 01 	call	0x27c	; 0x27c <i2c_repeated_start_OLED>
      c8:	4c 2f       	mov	r20, r28
      ca:	60 e8       	ldi	r22, 0x80	; 128
      cc:	88 e7       	ldi	r24, 0x78	; 120
      ce:	0e 94 28 01 	call	0x250	; 0x250 <i2c_write_val_to_reg_OLED>
      d2:	0e 94 1c 01 	call	0x238	; 0x238 <i2c_stop>
      d6:	cf 91       	pop	r28
      d8:	08 95       	ret

000000da <OLED_send_byte>:
      da:	cf 93       	push	r28
      dc:	c8 2f       	mov	r28, r24
      de:	0e 94 3e 01 	call	0x27c	; 0x27c <i2c_repeated_start_OLED>
	
	acc_x_g = acc_x * 2; // in milli g => 1/1000 g		// As our FS is set to 01 (+-4G), the resolution is 2mg/digit,  LSM303 Datasheet Page 9
      e2:	4c 2f       	mov	r20, r28
      e4:	60 e4       	ldi	r22, 0x40	; 64
      e6:	88 e7       	ldi	r24, 0x78	; 120
      e8:	0e 94 28 01 	call	0x250	; 0x250 <i2c_write_val_to_reg_OLED>
      ec:	0e 94 1c 01 	call	0x238	; 0x238 <i2c_stop>
	acc_y_g = acc_y * 2;
      f0:	cf 91       	pop	r28
      f2:	08 95       	ret

000000f4 <OLED_set_position>:
      f4:	cf 93       	push	r28
      f6:	c8 2f       	mov	r28, r24
      f8:	86 2f       	mov	r24, r22
	acc_z_g = acc_z * 2;
      fa:	80 55       	subi	r24, 0x50	; 80
      fc:	0e 94 60 00 	call	0xc0	; 0xc0 <OLED_send_cmd>
     100:	8c 2f       	mov	r24, r28
     102:	88 0f       	add	r24, r24
     104:	88 0f       	add	r24, r24
	
	struct acc_readings_obj acc_values;
	acc_values.a_x = acc_x_g;
     106:	88 0f       	add	r24, r24
     108:	88 70       	andi	r24, 0x08	; 8
     10a:	0e 94 60 00 	call	0xc0	; 0xc0 <OLED_send_cmd>
     10e:	8c 2f       	mov	r24, r28
     110:	90 e0       	ldi	r25, 0x00	; 0
     112:	96 95       	lsr	r25
     114:	87 95       	ror	r24
	acc_values.a_y = acc_y_g;
     116:	8f 70       	andi	r24, 0x0F	; 15
     118:	99 27       	eor	r25, r25
     11a:	80 5f       	subi	r24, 0xF0	; 240
     11c:	0e 94 60 00 	call	0xc0	; 0xc0 <OLED_send_cmd>
     120:	cf 91       	pop	r28
     122:	08 95       	ret

00000124 <OLED_send_char_D>:
     124:	8f e7       	ldi	r24, 0x7F	; 127
	acc_values.a_z = acc_z_g;
     126:	0e 94 6d 00 	call	0xda	; 0xda <OLED_send_byte>
     12a:	81 e4       	ldi	r24, 0x41	; 65
     12c:	0e 94 6d 00 	call	0xda	; 0xda <OLED_send_byte>
     130:	81 e4       	ldi	r24, 0x41	; 65
     132:	0e 94 6d 00 	call	0xda	; 0xda <OLED_send_byte>
	
	return(acc_values);
     136:	82 e2       	ldi	r24, 0x22	; 34
     138:	0e 94 6d 00 	call	0xda	; 0xda <OLED_send_byte>
     13c:	8c e1       	ldi	r24, 0x1C	; 28
     13e:	0e 94 6d 00 	call	0xda	; 0xda <OLED_send_byte>
	turn_rates.q = gyro_y * 0.00875;
	turn_rates.r = gyro_z * 0.00875;						// see gyro datasheet page 10
	
	if(cal_complete == TRUE) 
	{
		turn_rates.p -= gyro_p_offset;
     142:	80 e0       	ldi	r24, 0x00	; 0
     144:	0e 94 6d 00 	call	0xda	; 0xda <OLED_send_byte>
		turn_rates.q -= gyro_q_offset;
     148:	80 e0       	ldi	r24, 0x00	; 0
     14a:	0e 94 6d 00 	call	0xda	; 0xda <OLED_send_byte>
     14e:	08 95       	ret

00000150 <OLED_send_char_E>:
     150:	8f e7       	ldi	r24, 0x7F	; 127
     152:	0e 94 6d 00 	call	0xda	; 0xda <OLED_send_byte>
     156:	89 e4       	ldi	r24, 0x49	; 73
     158:	0e 94 6d 00 	call	0xda	; 0xda <OLED_send_byte>
     15c:	89 e4       	ldi	r24, 0x49	; 73
     15e:	0e 94 6d 00 	call	0xda	; 0xda <OLED_send_byte>
		turn_rates.r -= gyro_r_offset;
     162:	89 e4       	ldi	r24, 0x49	; 73
     164:	0e 94 6d 00 	call	0xda	; 0xda <OLED_send_byte>
     168:	81 e4       	ldi	r24, 0x41	; 65
     16a:	0e 94 6d 00 	call	0xda	; 0xda <OLED_send_byte>
     16e:	80 e0       	ldi	r24, 0x00	; 0
     170:	0e 94 6d 00 	call	0xda	; 0xda <OLED_send_byte>
     174:	80 e0       	ldi	r24, 0x00	; 0
     176:	0e 94 6d 00 	call	0xda	; 0xda <OLED_send_byte>
	}		
																											
	/*write_string("gyro_x reg:");write_var(gyro_x);write_string("  p: ");*///write_var(gyro_p);write_string(" deg/s \r\n ");
	return(turn_rates);
     17a:	08 95       	ret

0000017c <OLED_send_char_H>:
     17c:	8f e7       	ldi	r24, 0x7F	; 127
     17e:	0e 94 6d 00 	call	0xda	; 0xda <OLED_send_byte>
     182:	88 e0       	ldi	r24, 0x08	; 8
     184:	0e 94 6d 00 	call	0xda	; 0xda <OLED_send_byte>
     188:	88 e0       	ldi	r24, 0x08	; 8
     18a:	0e 94 6d 00 	call	0xda	; 0xda <OLED_send_byte>
     18e:	88 e0       	ldi	r24, 0x08	; 8
}
     190:	0e 94 6d 00 	call	0xda	; 0xda <OLED_send_byte>
     194:	8f e7       	ldi	r24, 0x7F	; 127
     196:	0e 94 6d 00 	call	0xda	; 0xda <OLED_send_byte>
     19a:	80 e0       	ldi	r24, 0x00	; 0
     19c:	0e 94 6d 00 	call	0xda	; 0xda <OLED_send_byte>
     1a0:	80 e0       	ldi	r24, 0x00	; 0
     1a2:	0e 94 6d 00 	call	0xda	; 0xda <OLED_send_byte>
     1a6:	08 95       	ret

000001a8 <OLED_send_char_L>:
     1a8:	8f e7       	ldi	r24, 0x7F	; 127
     1aa:	0e 94 6d 00 	call	0xda	; 0xda <OLED_send_byte>
		OLED_send_byte(0);
}
void OLED_send_char_L()
{
	OLED_send_byte(0x7F);
	OLED_send_byte(0x40);
     1ae:	80 e4       	ldi	r24, 0x40	; 64
     1b0:	0e 94 6d 00 	call	0xda	; 0xda <OLED_send_byte>
	OLED_send_byte(0x40);
     1b4:	80 e4       	ldi	r24, 0x40	; 64
     1b6:	0e 94 6d 00 	call	0xda	; 0xda <OLED_send_byte>
	OLED_send_byte(0x40);
     1ba:	80 e4       	ldi	r24, 0x40	; 64
     1bc:	0e 94 6d 00 	call	0xda	; 0xda <OLED_send_byte>
	OLED_send_byte(0x40); //   ( 44)  L - 0x004C Latin Capital Letter L
     1c0:	80 e4       	ldi	r24, 0x40	; 64
     1c2:	0e 94 6d 00 	call	0xda	; 0xda <OLED_send_byte>
		OLED_send_byte(0);
     1c6:	80 e0       	ldi	r24, 0x00	; 0
     1c8:	0e 94 6d 00 	call	0xda	; 0xda <OLED_send_byte>
		OLED_send_byte(0);
     1cc:	80 e0       	ldi	r24, 0x00	; 0
     1ce:	0e 94 6d 00 	call	0xda	; 0xda <OLED_send_byte>
     1d2:	08 95       	ret

000001d4 <OLED_send_char_M>:
}
void OLED_send_char_M()
{
	OLED_send_byte(0x7F);
     1d4:	8f e7       	ldi	r24, 0x7F	; 127
     1d6:	0e 94 6d 00 	call	0xda	; 0xda <OLED_send_byte>
	OLED_send_byte(0x02);
     1da:	82 e0       	ldi	r24, 0x02	; 2
     1dc:	0e 94 6d 00 	call	0xda	; 0xda <OLED_send_byte>
	OLED_send_byte(0x0C);
     1e0:	8c e0       	ldi	r24, 0x0C	; 12
     1e2:	0e 94 6d 00 	call	0xda	; 0xda <OLED_send_byte>
	OLED_send_byte(0x02);
     1e6:	82 e0       	ldi	r24, 0x02	; 2
     1e8:	0e 94 6d 00 	call	0xda	; 0xda <OLED_send_byte>
	OLED_send_byte(0x7F); //   ( 45)  M - 0x004D Latin Capital Letter M
     1ec:	8f e7       	ldi	r24, 0x7F	; 127
     1ee:	0e 94 6d 00 	call	0xda	; 0xda <OLED_send_byte>
		OLED_send_byte(0);
     1f2:	80 e0       	ldi	r24, 0x00	; 0
     1f4:	0e 94 6d 00 	call	0xda	; 0xda <OLED_send_byte>
		OLED_send_byte(0);
     1f8:	80 e0       	ldi	r24, 0x00	; 0
     1fa:	0e 94 6d 00 	call	0xda	; 0xda <OLED_send_byte>
     1fe:	08 95       	ret

00000200 <OLED_send_char_O>:
		OLED_send_byte(0);
		OLED_send_byte(0);
}
void OLED_send_char_O()
{
	OLED_send_byte(0x3E);
     200:	8e e3       	ldi	r24, 0x3E	; 62
     202:	0e 94 6d 00 	call	0xda	; 0xda <OLED_send_byte>
	OLED_send_byte(0x41);
     206:	81 e4       	ldi	r24, 0x41	; 65
     208:	0e 94 6d 00 	call	0xda	; 0xda <OLED_send_byte>
	OLED_send_byte(0x41);
     20c:	81 e4       	ldi	r24, 0x41	; 65
     20e:	0e 94 6d 00 	call	0xda	; 0xda <OLED_send_byte>
	OLED_send_byte(0x41);
     212:	81 e4       	ldi	r24, 0x41	; 65
     214:	0e 94 6d 00 	call	0xda	; 0xda <OLED_send_byte>
	OLED_send_byte(0x3E); //   ( 47)  O - 0x004F Latin Capital Letter O
     218:	8e e3       	ldi	r24, 0x3E	; 62
     21a:	0e 94 6d 00 	call	0xda	; 0xda <OLED_send_byte>
		OLED_send_byte(0);
     21e:	80 e0       	ldi	r24, 0x00	; 0
     220:	0e 94 6d 00 	call	0xda	; 0xda <OLED_send_byte>
		OLED_send_byte(0);
     224:	80 e0       	ldi	r24, 0x00	; 0
     226:	0e 94 6d 00 	call	0xda	; 0xda <OLED_send_byte>
     22a:	08 95       	ret

0000022c <i2c_initialize>:
	
	max_x_geo_z = sin(Theta_In*(PI/180))*mag_x_meas;	// indefinite for 0 degree values!
	max_y_geo_z = sin(Phi_In*(PI/180))*mag_y_meas;		// indefinite for 0 degree value!
	
	// Calculating the heading with atan2 function by math.h
	mag_heading = -atan2(mag_y_geo,mag_x_geo)*(180/PI);
     22c:	87 e0       	ldi	r24, 0x07	; 7
     22e:	80 b9       	out	0x00, r24	; 0
     230:	86 b7       	in	r24, 0x36	; 54
     232:	85 64       	ori	r24, 0x45	; 69
     234:	86 bf       	out	0x36, r24	; 54
     236:	08 95       	ret

00000238 <i2c_stop>:
     238:	13 b8       	out	0x03, r1	; 3
     23a:	86 b7       	in	r24, 0x36	; 54
     23c:	84 69       	ori	r24, 0x94	; 148
     23e:	86 bf       	out	0x36, r24	; 54
     240:	06 b6       	in	r0, 0x36	; 54
     242:	04 fc       	sbrc	r0, 4
     244:	fd cf       	rjmp	.-6      	; 0x240 <i2c_stop+0x8>
	//write_var(mag_heading);write_string(";");write_var(mag_x_geo);write_string(";");write_var(mag_y_geo);write_string_ln(";");
	// for a reading in between 0 - 360 deg:
	if (mag_heading < 0) 
     246:	08 95       	ret

00000248 <i2c_wait_transmission>:
     248:	06 b6       	in	r0, 0x36	; 54
	
	max_x_geo_z = sin(Theta_In*(PI/180))*mag_x_meas;	// indefinite for 0 degree values!
	max_y_geo_z = sin(Phi_In*(PI/180))*mag_y_meas;		// indefinite for 0 degree value!
	
	// Calculating the heading with atan2 function by math.h
	mag_heading = -atan2(mag_y_geo,mag_x_geo)*(180/PI);
     24a:	07 fe       	sbrs	r0, 7
     24c:	fd cf       	rjmp	.-6      	; 0x248 <i2c_wait_transmission>
     24e:	08 95       	ret

00000250 <i2c_write_val_to_reg_OLED>:
     250:	1f 93       	push	r17
     252:	cf 93       	push	r28
	//write_var(mag_heading);write_string(";");write_var(mag_x_geo);write_string(";");write_var(mag_y_geo);write_string_ln(";");
	// for a reading in between 0 - 360 deg:
	if (mag_heading < 0) 
	{
		mag_heading += 360;
     254:	df 93       	push	r29
     256:	16 2f       	mov	r17, r22
     258:	d4 2f       	mov	r29, r20
     25a:	83 b9       	out	0x03, r24	; 3
     25c:	c4 e8       	ldi	r28, 0x84	; 132
     25e:	c6 bf       	out	0x36, r28	; 54
	}
		
	return mag_heading;

     260:	0e 94 24 01 	call	0x248	; 0x248 <i2c_wait_transmission>
     264:	13 b9       	out	0x03, r17	; 3
     266:	c6 bf       	out	0x36, r28	; 54
     268:	0e 94 24 01 	call	0x248	; 0x248 <i2c_wait_transmission>
     26c:	d3 b9       	out	0x03, r29	; 3
     26e:	c6 bf       	out	0x36, r28	; 54
     270:	0e 94 24 01 	call	0x248	; 0x248 <i2c_wait_transmission>
     274:	df 91       	pop	r29
     276:	cf 91       	pop	r28
     278:	1f 91       	pop	r17
     27a:	08 95       	ret

0000027c <i2c_repeated_start_OLED>:
     27c:	84 ea       	ldi	r24, 0xA4	; 164
     27e:	86 bf       	out	0x36, r24	; 54
     280:	0e 94 24 01 	call	0x248	; 0x248 <i2c_wait_transmission>
     284:	08 95       	ret

00000286 <servo_init>:
     286:	87 b3       	in	r24, 0x17	; 23
     288:	8f 61       	ori	r24, 0x1F	; 31
     28a:	87 bb       	out	0x17, r24	; 23
     28c:	8a b3       	in	r24, 0x1a	; 26
     28e:	83 60       	ori	r24, 0x03	; 3
     290:	8a bb       	out	0x1a, r24	; 26
     292:	88 b3       	in	r24, 0x18	; 24
     294:	80 7e       	andi	r24, 0xE0	; 224
     296:	88 bb       	out	0x18, r24	; 24
     298:	8b b3       	in	r24, 0x1b	; 27
	// Defining the Output Ports
	DDRB |= (1<<PB0) | (1<<PB1) | (1<<PB2) | (1<<PB3) | (1<<PB4);	// 5 servos
	DDRA |= (1<<PA0) | (1<<PA1);									// 2 servos
	
	PORTB &= ~((1<<PB0)|(1<<PB1)|(1<<PB2)|(1<<PB3)|(1<<PB4));		// All servo signals are pulled down initially
	PORTA &= ~((1<<PA0)|(1<<PA1));									// All servo signals are pulled down initially
     29a:	8c 7f       	andi	r24, 0xFC	; 252
     29c:	8b bb       	out	0x1b, r24	; 27
	
	// Using Timer 1 (16 bit Timer)
	// Prescaler = 8	(CS Bits)
	// CTC Mode	(WGM10 - WGM13)
	TCCR1A = (0<<COM1A1)|(0<<COM1A0)|(0<<COM1B1)|(0<<COM1B0)|(0<<FOC1A)|(0<<FOC1B)|(0<<WGM11)|(0<<WGM10);
     29e:	1f bc       	out	0x2f, r1	; 47
	TCCR1B = (0<<ICNC1)|(0<<ICES1)|(0<<WGM13)|(1<<WGM12)|(0<<CS12)|(1<<CS11)|(0<<CS10);
     2a0:	8a e0       	ldi	r24, 0x0A	; 10
     2a2:	8e bd       	out	0x2e, r24	; 46
	
	// TIMSK is set in the main routine, as problems were discovered when not setting this globally
	// TIMSK  = (0<<TICIE1)|(1<<OCIE1A)|(0<<OCIE1B)|(0<<TOIE1);
	OCR1A = NEUTRAL;	// Give Neutral position in the beginning
     2a4:	8a ec       	ldi	r24, 0xCA	; 202
     2a6:	98 e0       	ldi	r25, 0x08	; 8
     2a8:	9b bd       	out	0x2b, r25	; 43
     2aa:	8a bd       	out	0x2a, r24	; 42
	// INPUT CONTROL 
	// We use interrupt Pin INT0 to control the TIMER2
	
	// General Interrupt Control Register
	// setting one of the bits enables the Interrupt Request
	GICR = (0<<INT1)|(1<<INT0)|(0<<INT2);
     2ac:	80 e4       	ldi	r24, 0x40	; 64
     2ae:	8b bf       	out	0x3b, r24	; 59
	
	// MCU Control Register to activate INT0 Pin
	// ISC11, ISC10 used for INT1 control
	// ISC01, ISC00 used for INT0 control	-> setting both to 1, gives rising edge interrupt
	MCUCR = (0<<ISC11)|(0<<ISC10)|(1<<ISC01)|(1<<ISC00);
     2b0:	83 e0       	ldi	r24, 0x03	; 3
     2b2:	85 bf       	out	0x35, r24	; 53
	
	// TCCR2
	// we activate the timer 2 in normal mode
	// with Prescaler of 128 we achieve an overflow at 2,7ms
	// and the signal from the receiver has a resolution of 0.01ms/bit
	TCCR2 = (0<<WGM20)|(0<<WGM21)|(1<<CS22)|(0<<CS21)|(1<<CS20);
     2b4:	85 e0       	ldi	r24, 0x05	; 5
     2b6:	85 bd       	out	0x25, r24	; 37
	TCNT2 = 0;
     2b8:	14 bc       	out	0x24, r1	; 36
	write_string_ln("ServoTimerStarted");
     2ba:	8d e8       	ldi	r24, 0x8D	; 141
     2bc:	90 e0       	ldi	r25, 0x00	; 0
     2be:	0e 94 77 13 	call	0x26ee	; 0x26ee <write_string_ln>
     2c2:	08 95       	ret

000002c4 <__vector_7>:
		
}

ISR(TIMER1_COMPA_vect)
{
     2c4:	1f 92       	push	r1
     2c6:	0f 92       	push	r0
     2c8:	0f b6       	in	r0, 0x3f	; 63
     2ca:	0f 92       	push	r0
     2cc:	11 24       	eor	r1, r1
     2ce:	2f 93       	push	r18
     2d0:	3f 93       	push	r19
     2d2:	4f 93       	push	r20
     2d4:	5f 93       	push	r21
     2d6:	8f 93       	push	r24
     2d8:	9f 93       	push	r25
     2da:	af 93       	push	r26
     2dc:	bf 93       	push	r27
	switch (ctrl)
     2de:	80 91 9f 01 	lds	r24, 0x019F
     2e2:	86 30       	cpi	r24, 0x06	; 6
     2e4:	09 f4       	brne	.+2      	; 0x2e8 <__vector_7+0x24>
     2e6:	99 c0       	rjmp	.+306    	; 0x41a <__vector_7+0x156>
     2e8:	84 f4       	brge	.+32     	; 0x30a <__vector_7+0x46>
     2ea:	82 30       	cpi	r24, 0x02	; 2
     2ec:	09 f4       	brne	.+2      	; 0x2f0 <__vector_7+0x2c>
     2ee:	47 c0       	rjmp	.+142    	; 0x37e <__vector_7+0xba>
     2f0:	34 f4       	brge	.+12     	; 0x2fe <__vector_7+0x3a>
     2f2:	88 23       	and	r24, r24
     2f4:	e9 f0       	breq	.+58     	; 0x330 <__vector_7+0x6c>
     2f6:	81 30       	cpi	r24, 0x01	; 1
     2f8:	09 f0       	breq	.+2      	; 0x2fc <__vector_7+0x38>
     2fa:	27 c1       	rjmp	.+590    	; 0x54a <__vector_7+0x286>
     2fc:	2a c0       	rjmp	.+84     	; 0x352 <__vector_7+0x8e>
     2fe:	84 30       	cpi	r24, 0x04	; 4
     300:	09 f4       	brne	.+2      	; 0x304 <__vector_7+0x40>
     302:	64 c0       	rjmp	.+200    	; 0x3cc <__vector_7+0x108>
     304:	0c f0       	brlt	.+2      	; 0x308 <__vector_7+0x44>
     306:	73 c0       	rjmp	.+230    	; 0x3ee <__vector_7+0x12a>
     308:	4b c0       	rjmp	.+150    	; 0x3a0 <__vector_7+0xdc>
     30a:	8a 30       	cpi	r24, 0x0A	; 10
     30c:	09 f4       	brne	.+2      	; 0x310 <__vector_7+0x4c>
     30e:	d3 c0       	rjmp	.+422    	; 0x4b6 <__vector_7+0x1f2>
     310:	34 f4       	brge	.+12     	; 0x31e <__vector_7+0x5a>
     312:	88 30       	cpi	r24, 0x08	; 8
     314:	09 f4       	brne	.+2      	; 0x318 <__vector_7+0x54>
     316:	a8 c0       	rjmp	.+336    	; 0x468 <__vector_7+0x1a4>
     318:	0c f0       	brlt	.+2      	; 0x31c <__vector_7+0x58>
     31a:	b7 c0       	rjmp	.+366    	; 0x48a <__vector_7+0x1c6>
     31c:	8f c0       	rjmp	.+286    	; 0x43c <__vector_7+0x178>
     31e:	8c 30       	cpi	r24, 0x0C	; 12
     320:	09 f4       	brne	.+2      	; 0x324 <__vector_7+0x60>
     322:	f0 c0       	rjmp	.+480    	; 0x504 <__vector_7+0x240>
     324:	0c f4       	brge	.+2      	; 0x328 <__vector_7+0x64>
     326:	d8 c0       	rjmp	.+432    	; 0x4d8 <__vector_7+0x214>
     328:	8d 30       	cpi	r24, 0x0D	; 13
     32a:	09 f0       	breq	.+2      	; 0x32e <__vector_7+0x6a>
     32c:	0e c1       	rjmp	.+540    	; 0x54a <__vector_7+0x286>
     32e:	fb c0       	rjmp	.+502    	; 0x526 <__vector_7+0x262>
	{
		// We might need to disable interrupts and enable them again...
		
		case 0:
			//cli();
			PORTB |= (1<<PB0);
     330:	c0 9a       	sbi	0x18, 0	; 24
			OCR1A = ctrl_out[motor];
     332:	80 91 60 00 	lds	r24, 0x0060
     336:	90 91 61 00 	lds	r25, 0x0061
     33a:	a0 91 62 00 	lds	r26, 0x0062
     33e:	b0 91 63 00 	lds	r27, 0x0063
     342:	9b bd       	out	0x2b, r25	; 43
     344:	8a bd       	out	0x2a, r24	; 42
			ctrl++;		// increase the ctrl pointer
     346:	80 91 9f 01 	lds	r24, 0x019F
     34a:	8f 5f       	subi	r24, 0xFF	; 255
     34c:	80 93 9f 01 	sts	0x019F, r24
			//sei();
		break;
     350:	fc c0       	rjmp	.+504    	; 0x54a <__vector_7+0x286>
		
		case 1:
			//cli();
			PORTB &= ~(1<<PB0);
     352:	c0 98       	cbi	0x18, 0	; 24
			OCR1A = PULSE_WIDTH - ctrl_out[motor];
     354:	80 91 60 00 	lds	r24, 0x0060
     358:	90 91 61 00 	lds	r25, 0x0061
     35c:	a0 91 62 00 	lds	r26, 0x0062
     360:	b0 91 63 00 	lds	r27, 0x0063
     364:	20 ea       	ldi	r18, 0xA0	; 160
     366:	3f e0       	ldi	r19, 0x0F	; 15
     368:	a9 01       	movw	r20, r18
     36a:	48 1b       	sub	r20, r24
     36c:	59 0b       	sbc	r21, r25
     36e:	5b bd       	out	0x2b, r21	; 43
     370:	4a bd       	out	0x2a, r20	; 42
			ctrl++;
     372:	80 91 9f 01 	lds	r24, 0x019F
     376:	8f 5f       	subi	r24, 0xFF	; 255
     378:	80 93 9f 01 	sts	0x019F, r24
			//sei();
		break;
     37c:	e6 c0       	rjmp	.+460    	; 0x54a <__vector_7+0x286>
		
		case 2:
			//cli();
			PORTB |= (1<<PB1);
     37e:	c1 9a       	sbi	0x18, 1	; 24
			OCR1A = ctrl_out[aileron];
     380:	80 91 64 00 	lds	r24, 0x0064
     384:	90 91 65 00 	lds	r25, 0x0065
     388:	a0 91 66 00 	lds	r26, 0x0066
     38c:	b0 91 67 00 	lds	r27, 0x0067
     390:	9b bd       	out	0x2b, r25	; 43
     392:	8a bd       	out	0x2a, r24	; 42
			ctrl++;
     394:	80 91 9f 01 	lds	r24, 0x019F
     398:	8f 5f       	subi	r24, 0xFF	; 255
     39a:	80 93 9f 01 	sts	0x019F, r24
			//sei();
		break;
     39e:	d5 c0       	rjmp	.+426    	; 0x54a <__vector_7+0x286>
		
		case 3:
			//cli();
			PORTB &= ~(1<<PB1);
     3a0:	c1 98       	cbi	0x18, 1	; 24
			OCR1A = PULSE_WIDTH - ctrl_out[aileron];
     3a2:	80 91 64 00 	lds	r24, 0x0064
     3a6:	90 91 65 00 	lds	r25, 0x0065
     3aa:	a0 91 66 00 	lds	r26, 0x0066
     3ae:	b0 91 67 00 	lds	r27, 0x0067
     3b2:	20 ea       	ldi	r18, 0xA0	; 160
     3b4:	3f e0       	ldi	r19, 0x0F	; 15
     3b6:	a9 01       	movw	r20, r18
     3b8:	48 1b       	sub	r20, r24
     3ba:	59 0b       	sbc	r21, r25
     3bc:	5b bd       	out	0x2b, r21	; 43
     3be:	4a bd       	out	0x2a, r20	; 42
			ctrl++;
     3c0:	80 91 9f 01 	lds	r24, 0x019F
     3c4:	8f 5f       	subi	r24, 0xFF	; 255
     3c6:	80 93 9f 01 	sts	0x019F, r24
			//sei();
		break;
     3ca:	bf c0       	rjmp	.+382    	; 0x54a <__vector_7+0x286>
		
		case 4:
			//cli();
			PORTB |= (1<<PB2);
     3cc:	c2 9a       	sbi	0x18, 2	; 24
			OCR1A = ctrl_out[elevator];
     3ce:	80 91 68 00 	lds	r24, 0x0068
     3d2:	90 91 69 00 	lds	r25, 0x0069
     3d6:	a0 91 6a 00 	lds	r26, 0x006A
     3da:	b0 91 6b 00 	lds	r27, 0x006B
     3de:	9b bd       	out	0x2b, r25	; 43
     3e0:	8a bd       	out	0x2a, r24	; 42
			ctrl++;
     3e2:	80 91 9f 01 	lds	r24, 0x019F
     3e6:	8f 5f       	subi	r24, 0xFF	; 255
     3e8:	80 93 9f 01 	sts	0x019F, r24
			//sei();
		break;
     3ec:	ae c0       	rjmp	.+348    	; 0x54a <__vector_7+0x286>
		
		case 5:
			//cli();
			PORTB &= ~(1<<PB2);
     3ee:	c2 98       	cbi	0x18, 2	; 24
			OCR1A = PULSE_WIDTH - ctrl_out[elevator];
     3f0:	80 91 68 00 	lds	r24, 0x0068
     3f4:	90 91 69 00 	lds	r25, 0x0069
     3f8:	a0 91 6a 00 	lds	r26, 0x006A
     3fc:	b0 91 6b 00 	lds	r27, 0x006B
     400:	20 ea       	ldi	r18, 0xA0	; 160
     402:	3f e0       	ldi	r19, 0x0F	; 15
     404:	a9 01       	movw	r20, r18
     406:	48 1b       	sub	r20, r24
     408:	59 0b       	sbc	r21, r25
     40a:	5b bd       	out	0x2b, r21	; 43
     40c:	4a bd       	out	0x2a, r20	; 42
			ctrl++;
     40e:	80 91 9f 01 	lds	r24, 0x019F
     412:	8f 5f       	subi	r24, 0xFF	; 255
     414:	80 93 9f 01 	sts	0x019F, r24
			//sei();
		break;
     418:	98 c0       	rjmp	.+304    	; 0x54a <__vector_7+0x286>
		
		case 6:
			//cli();
			PORTB |= (1<<PB3);
     41a:	c3 9a       	sbi	0x18, 3	; 24
			OCR1A = ctrl_out[rudder];
     41c:	80 91 6c 00 	lds	r24, 0x006C
     420:	90 91 6d 00 	lds	r25, 0x006D
     424:	a0 91 6e 00 	lds	r26, 0x006E
     428:	b0 91 6f 00 	lds	r27, 0x006F
     42c:	9b bd       	out	0x2b, r25	; 43
     42e:	8a bd       	out	0x2a, r24	; 42
			ctrl++;
     430:	80 91 9f 01 	lds	r24, 0x019F
     434:	8f 5f       	subi	r24, 0xFF	; 255
     436:	80 93 9f 01 	sts	0x019F, r24
			//sei();
		break;
     43a:	87 c0       	rjmp	.+270    	; 0x54a <__vector_7+0x286>
		
		case 7:
			//cli();
			PORTB &= ~(1<<PB3);
     43c:	c3 98       	cbi	0x18, 3	; 24
			OCR1A = PULSE_WIDTH - ctrl_out[rudder];
     43e:	80 91 6c 00 	lds	r24, 0x006C
     442:	90 91 6d 00 	lds	r25, 0x006D
     446:	a0 91 6e 00 	lds	r26, 0x006E
     44a:	b0 91 6f 00 	lds	r27, 0x006F
     44e:	20 ea       	ldi	r18, 0xA0	; 160
     450:	3f e0       	ldi	r19, 0x0F	; 15
     452:	a9 01       	movw	r20, r18
     454:	48 1b       	sub	r20, r24
     456:	59 0b       	sbc	r21, r25
     458:	5b bd       	out	0x2b, r21	; 43
     45a:	4a bd       	out	0x2a, r20	; 42
			ctrl++;
     45c:	80 91 9f 01 	lds	r24, 0x019F
     460:	8f 5f       	subi	r24, 0xFF	; 255
     462:	80 93 9f 01 	sts	0x019F, r24
			//sei();
		break;
     466:	71 c0       	rjmp	.+226    	; 0x54a <__vector_7+0x286>
		
		case 8:
			//cli();
			PORTB |= (1<<PB4);
     468:	c4 9a       	sbi	0x18, 4	; 24
			OCR1A = ctrl_out[flap];
     46a:	80 91 70 00 	lds	r24, 0x0070
     46e:	90 91 71 00 	lds	r25, 0x0071
     472:	a0 91 72 00 	lds	r26, 0x0072
     476:	b0 91 73 00 	lds	r27, 0x0073
     47a:	9b bd       	out	0x2b, r25	; 43
     47c:	8a bd       	out	0x2a, r24	; 42
			ctrl++;
     47e:	80 91 9f 01 	lds	r24, 0x019F
     482:	8f 5f       	subi	r24, 0xFF	; 255
     484:	80 93 9f 01 	sts	0x019F, r24
			//sei();
		break;
     488:	60 c0       	rjmp	.+192    	; 0x54a <__vector_7+0x286>
		
		case 9:
			//cli();
			PORTB &= ~(1<<PB4);
     48a:	c4 98       	cbi	0x18, 4	; 24
			OCR1A = PULSE_WIDTH - ctrl_out[flap];
     48c:	80 91 70 00 	lds	r24, 0x0070
     490:	90 91 71 00 	lds	r25, 0x0071
     494:	a0 91 72 00 	lds	r26, 0x0072
     498:	b0 91 73 00 	lds	r27, 0x0073
     49c:	20 ea       	ldi	r18, 0xA0	; 160
     49e:	3f e0       	ldi	r19, 0x0F	; 15
     4a0:	a9 01       	movw	r20, r18
     4a2:	48 1b       	sub	r20, r24
     4a4:	59 0b       	sbc	r21, r25
     4a6:	5b bd       	out	0x2b, r21	; 43
     4a8:	4a bd       	out	0x2a, r20	; 42
			ctrl++;
     4aa:	80 91 9f 01 	lds	r24, 0x019F
     4ae:	8f 5f       	subi	r24, 0xFF	; 255
     4b0:	80 93 9f 01 	sts	0x019F, r24
			//sei();
		break;
     4b4:	4a c0       	rjmp	.+148    	; 0x54a <__vector_7+0x286>
		
		case 10:
			//Pull Up Channel 6	// Camera Servo around Y Axis
			PORTA |= (1<<PA0);
     4b6:	d8 9a       	sbi	0x1b, 0	; 27
			OCR1A = ctrl_out[camera_y];
     4b8:	80 91 74 00 	lds	r24, 0x0074
     4bc:	90 91 75 00 	lds	r25, 0x0075
     4c0:	a0 91 76 00 	lds	r26, 0x0076
     4c4:	b0 91 77 00 	lds	r27, 0x0077
     4c8:	9b bd       	out	0x2b, r25	; 43
     4ca:	8a bd       	out	0x2a, r24	; 42
			ctrl++;
     4cc:	80 91 9f 01 	lds	r24, 0x019F
     4d0:	8f 5f       	subi	r24, 0xFF	; 255
     4d2:	80 93 9f 01 	sts	0x019F, r24
		break;
     4d6:	39 c0       	rjmp	.+114    	; 0x54a <__vector_7+0x286>
		
		case 11:
			//Pull Dn Channel 6
			PORTA &= ~(1<<PA0);
     4d8:	d8 98       	cbi	0x1b, 0	; 27
			OCR1A = PULSE_WIDTH - ctrl_out[camera_y];
     4da:	80 91 74 00 	lds	r24, 0x0074
     4de:	90 91 75 00 	lds	r25, 0x0075
     4e2:	a0 91 76 00 	lds	r26, 0x0076
     4e6:	b0 91 77 00 	lds	r27, 0x0077
     4ea:	20 ea       	ldi	r18, 0xA0	; 160
     4ec:	3f e0       	ldi	r19, 0x0F	; 15
     4ee:	a9 01       	movw	r20, r18
     4f0:	48 1b       	sub	r20, r24
     4f2:	59 0b       	sbc	r21, r25
     4f4:	5b bd       	out	0x2b, r21	; 43
     4f6:	4a bd       	out	0x2a, r20	; 42
			ctrl++;
     4f8:	80 91 9f 01 	lds	r24, 0x019F
     4fc:	8f 5f       	subi	r24, 0xFF	; 255
     4fe:	80 93 9f 01 	sts	0x019F, r24
		break;
     502:	23 c0       	rjmp	.+70     	; 0x54a <__vector_7+0x286>
		
		case 12:
			//Pull Up Channel 7 // Camera Servo Z Axis
			PORTA |= (1<<PA1);
     504:	d9 9a       	sbi	0x1b, 1	; 27
			OCR1A = ctrl_out[camera_z];	
     506:	80 91 78 00 	lds	r24, 0x0078
     50a:	90 91 79 00 	lds	r25, 0x0079
     50e:	a0 91 7a 00 	lds	r26, 0x007A
     512:	b0 91 7b 00 	lds	r27, 0x007B
     516:	9b bd       	out	0x2b, r25	; 43
     518:	8a bd       	out	0x2a, r24	; 42
			ctrl++;
     51a:	80 91 9f 01 	lds	r24, 0x019F
     51e:	8f 5f       	subi	r24, 0xFF	; 255
     520:	80 93 9f 01 	sts	0x019F, r24
		break;
     524:	12 c0       	rjmp	.+36     	; 0x54a <__vector_7+0x286>
				
		case 13:
			//Pull Dn Channel 7
			PORTA &= ~(1<<PA1);
     526:	d9 98       	cbi	0x1b, 1	; 27
			OCR1A = PULSE_WIDTH - ctrl_out[camera_z];
     528:	80 91 78 00 	lds	r24, 0x0078
     52c:	90 91 79 00 	lds	r25, 0x0079
     530:	a0 91 7a 00 	lds	r26, 0x007A
     534:	b0 91 7b 00 	lds	r27, 0x007B
     538:	20 ea       	ldi	r18, 0xA0	; 160
     53a:	3f e0       	ldi	r19, 0x0F	; 15
     53c:	a9 01       	movw	r20, r18
     53e:	48 1b       	sub	r20, r24
     540:	59 0b       	sbc	r21, r25
     542:	5b bd       	out	0x2b, r21	; 43
     544:	4a bd       	out	0x2a, r20	; 42
			ctrl = 0;	//resetting the ctrl channel
     546:	10 92 9f 01 	sts	0x019F, r1
		break;
						
	}
	
}
     54a:	bf 91       	pop	r27
     54c:	af 91       	pop	r26
     54e:	9f 91       	pop	r25
     550:	8f 91       	pop	r24
     552:	5f 91       	pop	r21
     554:	4f 91       	pop	r20
     556:	3f 91       	pop	r19
     558:	2f 91       	pop	r18
     55a:	0f 90       	pop	r0
     55c:	0f be       	out	0x3f, r0	; 63
     55e:	0f 90       	pop	r0
     560:	1f 90       	pop	r1
     562:	18 95       	reti

00000564 <__vector_1>:

ISR(INT0_vect)
{
     564:	1f 92       	push	r1
     566:	0f 92       	push	r0
     568:	0f b6       	in	r0, 0x3f	; 63
     56a:	0f 92       	push	r0
     56c:	11 24       	eor	r1, r1
     56e:	2f 93       	push	r18
     570:	8f 93       	push	r24
     572:	9f 93       	push	r25
     574:	ef 93       	push	r30
     576:	ff 93       	push	r31
	if(first_pulse == TRUE)
     578:	80 91 9c 01 	lds	r24, 0x019C
     57c:	90 91 9d 01 	lds	r25, 0x019D
     580:	01 97       	sbiw	r24, 0x01	; 1
     582:	29 f4       	brne	.+10     	; 0x58e <__vector_1+0x2a>
	{
		first_pulse = FALSE;
     584:	10 92 9d 01 	sts	0x019D, r1
     588:	10 92 9c 01 	sts	0x019C, r1
     58c:	0f c0       	rjmp	.+30     	; 0x5ac <__vector_1+0x48>
	}
	else
	{
		//write_ubyte_ln(channel);
		ctrl_in[channel] = TCNT2;
     58e:	20 91 9e 01 	lds	r18, 0x019E
     592:	e2 2f       	mov	r30, r18
     594:	f0 e0       	ldi	r31, 0x00	; 0
     596:	84 b5       	in	r24, 0x24	; 36
     598:	90 e0       	ldi	r25, 0x00	; 0
     59a:	ee 0f       	add	r30, r30
     59c:	ff 1f       	adc	r31, r31
     59e:	e8 52       	subi	r30, 0x28	; 40
     5a0:	fe 4f       	sbci	r31, 0xFE	; 254
     5a2:	91 83       	std	Z+1, r25	; 0x01
     5a4:	80 83       	st	Z, r24
		channel++;
     5a6:	2f 5f       	subi	r18, 0xFF	; 255
     5a8:	20 93 9e 01 	sts	0x019E, r18
	}
	TCNT2 = 0;
     5ac:	14 bc       	out	0x24, r1	; 36
}
     5ae:	ff 91       	pop	r31
     5b0:	ef 91       	pop	r30
     5b2:	9f 91       	pop	r25
     5b4:	8f 91       	pop	r24
     5b6:	2f 91       	pop	r18
     5b8:	0f 90       	pop	r0
     5ba:	0f be       	out	0x3f, r0	; 63
     5bc:	0f 90       	pop	r0
     5be:	1f 90       	pop	r1
     5c0:	18 95       	reti

000005c2 <__vector_5>:

ISR(TIMER2_OVF_vect)
{
     5c2:	1f 92       	push	r1
     5c4:	0f 92       	push	r0
     5c6:	0f b6       	in	r0, 0x3f	; 63
     5c8:	0f 92       	push	r0
     5ca:	11 24       	eor	r1, r1
     5cc:	8f 93       	push	r24
     5ce:	9f 93       	push	r25
	channel = 0;
     5d0:	10 92 9e 01 	sts	0x019E, r1
	first_pulse = TRUE;
     5d4:	81 e0       	ldi	r24, 0x01	; 1
     5d6:	90 e0       	ldi	r25, 0x00	; 0
     5d8:	90 93 9d 01 	sts	0x019D, r25
     5dc:	80 93 9c 01 	sts	0x019C, r24
	//write_string_ln("OVF");
     5e0:	9f 91       	pop	r25
     5e2:	8f 91       	pop	r24
     5e4:	0f 90       	pop	r0
     5e6:	0f be       	out	0x3f, r0	; 63
     5e8:	0f 90       	pop	r0
     5ea:	1f 90       	pop	r1
     5ec:	18 95       	reti

000005ee <Task_Timer>:
	// WGM Bits: Define CTC mode
	// CS Bits: Prescaler of 1024 selected
	// desired Frequency: 50Hz => period of 20ms
	// FCPU = 12MHz
	// Steps for clearing the timer: (F_CPU/Prescaler)/(Freq) = 234
	TCCR0 = (0 << FOC0)|(0 << WGM00)|(0 << COM01)|(0 << COM00)|(1 << WGM01)|(1 << CS02)|(0 << CS01)|(1 << CS00);
     5ee:	8d e0       	ldi	r24, 0x0D	; 13
     5f0:	83 bf       	out	0x33, r24	; 51
	// Corrected: Using the ISR to count up. Therefore multiples of the timer OCR value are possible
	// with OCR0 as 195 => 16,6ms count up time => if counter = 3 then 50ms task time to be realised
	
	// Update: want to achieve 20ms to get better resolution...Using 10 ms time and counter to count 2 times...
	// 10 ms -> 117 count value, in the interrupt count til 2!
	OCR0 = 117;//0x75;
     5f2:	85 e7       	ldi	r24, 0x75	; 117
     5f4:	8c bf       	out	0x3c, r24	; 60
	sample_time = 0.03;	// ALWAYS change when changing the task time!
     5f6:	8f e8       	ldi	r24, 0x8F	; 143
     5f8:	92 ec       	ldi	r25, 0xC2	; 194
     5fa:	a5 ef       	ldi	r26, 0xF5	; 245
     5fc:	bc e3       	ldi	r27, 0x3C	; 60
     5fe:	80 93 ea 01 	sts	0x01EA, r24
     602:	90 93 eb 01 	sts	0x01EB, r25
     606:	a0 93 ec 01 	sts	0x01EC, r26
     60a:	b0 93 ed 01 	sts	0x01ED, r27
	write_string_ln("TaskTimerStarted");
     60e:	8f e9       	ldi	r24, 0x9F	; 159
     610:	90 e0       	ldi	r25, 0x00	; 0
     612:	0e 94 77 13 	call	0x26ee	; 0x26ee <write_string_ln>
     616:	08 95       	ret

00000618 <__vector_10>:
}	

ISR(TIMER0_COMP_vect)
{
     618:	1f 92       	push	r1
     61a:	0f 92       	push	r0
     61c:	0f b6       	in	r0, 0x3f	; 63
     61e:	0f 92       	push	r0
     620:	11 24       	eor	r1, r1
     622:	8f 93       	push	r24
	comp_count++;
     624:	80 91 ee 01 	lds	r24, 0x01EE
     628:	8f 5f       	subi	r24, 0xFF	; 255
     62a:	80 93 ee 01 	sts	0x01EE, r24
	if (comp_count >= 3)	// This gives multiple of 10ms	-> Change sample time accordingly
     62e:	83 30       	cpi	r24, 0x03	; 3
     630:	28 f0       	brcs	.+10     	; 0x63c <__vector_10+0x24>
	{
		// Setting the task flag
		task_flag = 1;
     632:	81 e0       	ldi	r24, 0x01	; 1
     634:	80 93 ef 01 	sts	0x01EF, r24
		comp_count = 0; // Resetting comp count
     638:	10 92 ee 01 	sts	0x01EE, r1
	}
	
}
     63c:	8f 91       	pop	r24
     63e:	0f 90       	pop	r0
     640:	0f be       	out	0x3f, r0	; 63
     642:	0f 90       	pop	r0
     644:	1f 90       	pop	r1
     646:	18 95       	reti

00000648 <WDT_on>:
// Enabling the Watchdog
void WDT_on(void)
{
	// Set the Watchdog Enable Bit
	// Seting the Prescaler Bits: 101 will give around 0.5 seconds timeout
		WDTCR |= (1<<WDE)|(1<<WDP2)|(0<<WDP1)|(1<<WDP0);
     648:	81 b5       	in	r24, 0x21	; 33
     64a:	8d 60       	ori	r24, 0x0D	; 13
     64c:	81 bd       	out	0x21, r24	; 33
     64e:	08 95       	ret

00000650 <atol_new>:
}
//-----------------------------------


// Ascii to integer
uint32_t atol_new(const char* str) {
     650:	0f 93       	push	r16
     652:	1f 93       	push	r17
	uint32_t num = 0;
	char digit;
	while ((digit = *str++) != '\0') {
     654:	fc 01       	movw	r30, r24
     656:	41 91       	ld	r20, Z+
     658:	44 23       	and	r20, r20
     65a:	81 f1       	breq	.+96     	; 0x6bc <atol_new+0x6c>
		if (digit < '0' || digit > '9') {
     65c:	84 2f       	mov	r24, r20
     65e:	80 53       	subi	r24, 0x30	; 48
     660:	8a 30       	cpi	r24, 0x0A	; 10
     662:	80 f5       	brcc	.+96     	; 0x6c4 <atol_new+0x74>
//-----------------------------------


// Ascii to integer
uint32_t atol_new(const char* str) {
	uint32_t num = 0;
     664:	00 e0       	ldi	r16, 0x00	; 0
     666:	10 e0       	ldi	r17, 0x00	; 0
     668:	98 01       	movw	r18, r16
     66a:	04 c0       	rjmp	.+8      	; 0x674 <atol_new+0x24>
	char digit;
	while ((digit = *str++) != '\0') {
		if (digit < '0' || digit > '9') {
     66c:	84 2f       	mov	r24, r20
     66e:	80 53       	subi	r24, 0x30	; 48
     670:	8a 30       	cpi	r24, 0x0A	; 10
     672:	58 f5       	brcc	.+86     	; 0x6ca <atol_new+0x7a>
			return num;  /* No valid conversion possible */
		}
		num *= 10;
     674:	d9 01       	movw	r26, r18
     676:	c8 01       	movw	r24, r16
     678:	88 0f       	add	r24, r24
     67a:	99 1f       	adc	r25, r25
     67c:	aa 1f       	adc	r26, r26
     67e:	bb 1f       	adc	r27, r27
     680:	8c 01       	movw	r16, r24
     682:	9d 01       	movw	r18, r26
     684:	00 0f       	add	r16, r16
     686:	11 1f       	adc	r17, r17
     688:	22 1f       	adc	r18, r18
     68a:	33 1f       	adc	r19, r19
     68c:	00 0f       	add	r16, r16
     68e:	11 1f       	adc	r17, r17
     690:	22 1f       	adc	r18, r18
     692:	33 1f       	adc	r19, r19
     694:	80 0f       	add	r24, r16
     696:	91 1f       	adc	r25, r17
     698:	a2 1f       	adc	r26, r18
     69a:	b3 1f       	adc	r27, r19
		num += digit - '0';
     69c:	04 2f       	mov	r16, r20
     69e:	10 e0       	ldi	r17, 0x00	; 0
     6a0:	00 53       	subi	r16, 0x30	; 48
     6a2:	11 09       	sbc	r17, r1
     6a4:	22 27       	eor	r18, r18
     6a6:	17 fd       	sbrc	r17, 7
     6a8:	20 95       	com	r18
     6aa:	32 2f       	mov	r19, r18
     6ac:	08 0f       	add	r16, r24
     6ae:	19 1f       	adc	r17, r25
     6b0:	2a 1f       	adc	r18, r26
     6b2:	3b 1f       	adc	r19, r27

// Ascii to integer
uint32_t atol_new(const char* str) {
	uint32_t num = 0;
	char digit;
	while ((digit = *str++) != '\0') {
     6b4:	41 91       	ld	r20, Z+
     6b6:	41 11       	cpse	r20, r1
     6b8:	d9 cf       	rjmp	.-78     	; 0x66c <atol_new+0x1c>
     6ba:	07 c0       	rjmp	.+14     	; 0x6ca <atol_new+0x7a>
//-----------------------------------


// Ascii to integer
uint32_t atol_new(const char* str) {
	uint32_t num = 0;
     6bc:	00 e0       	ldi	r16, 0x00	; 0
     6be:	10 e0       	ldi	r17, 0x00	; 0
     6c0:	98 01       	movw	r18, r16
     6c2:	03 c0       	rjmp	.+6      	; 0x6ca <atol_new+0x7a>
     6c4:	00 e0       	ldi	r16, 0x00	; 0
     6c6:	10 e0       	ldi	r17, 0x00	; 0
     6c8:	98 01       	movw	r18, r16
		}
		num *= 10;
		num += digit - '0';
	}
	return num;
}
     6ca:	60 2f       	mov	r22, r16
     6cc:	71 2f       	mov	r23, r17
     6ce:	82 2f       	mov	r24, r18
     6d0:	93 2f       	mov	r25, r19
     6d2:	1f 91       	pop	r17
     6d4:	0f 91       	pop	r16
     6d6:	08 95       	ret

000006d8 <main>:

//-----------------------------------


int main(void)
{	
     6d8:	cf 93       	push	r28
     6da:	df 93       	push	r29
     6dc:	cd b7       	in	r28, 0x3d	; 61
     6de:	de b7       	in	r29, 0x3e	; 62
     6e0:	c1 54       	subi	r28, 0x41	; 65
     6e2:	d1 09       	sbc	r29, r1
     6e4:	0f b6       	in	r0, 0x3f	; 63
     6e6:	f8 94       	cli
     6e8:	de bf       	out	0x3e, r29	; 62
     6ea:	0f be       	out	0x3f, r0	; 63
     6ec:	cd bf       	out	0x3d, r28	; 61

	// Initializing
	init_uart();
     6ee:	0e 94 e4 12 	call	0x25c8	; 0x25c8 <init_uart>
	
	// Checking the Reset Status
	if (MCUCSR & (1<<WDRF)) write_string("WdogRst");
     6f2:	04 b6       	in	r0, 0x34	; 52
     6f4:	03 fe       	sbrs	r0, 3
     6f6:	05 c0       	rjmp	.+10     	; 0x702 <main+0x2a>
     6f8:	8b eb       	ldi	r24, 0xBB	; 187
     6fa:	90 e0       	ldi	r25, 0x00	; 0
     6fc:	0e 94 67 13 	call	0x26ce	; 0x26ce <write_string>
     700:	1e c0       	rjmp	.+60     	; 0x73e <main+0x66>
	else if(MCUCSR & (1<<PORF)) write_string("PwrUpRst");
     702:	04 b6       	in	r0, 0x34	; 52
     704:	00 fe       	sbrs	r0, 0
     706:	05 c0       	rjmp	.+10     	; 0x712 <main+0x3a>
     708:	83 ec       	ldi	r24, 0xC3	; 195
     70a:	90 e0       	ldi	r25, 0x00	; 0
     70c:	0e 94 67 13 	call	0x26ce	; 0x26ce <write_string>
     710:	16 c0       	rjmp	.+44     	; 0x73e <main+0x66>
	else if(MCUCSR & (1<<BORF)) write_string("BrwnOutRst");
     712:	04 b6       	in	r0, 0x34	; 52
     714:	02 fe       	sbrs	r0, 2
     716:	05 c0       	rjmp	.+10     	; 0x722 <main+0x4a>
     718:	8c ec       	ldi	r24, 0xCC	; 204
     71a:	90 e0       	ldi	r25, 0x00	; 0
     71c:	0e 94 67 13 	call	0x26ce	; 0x26ce <write_string>
     720:	0e c0       	rjmp	.+28     	; 0x73e <main+0x66>
	else if(MCUCSR & (1<<EXTRF)) write_string("ExtRst");
     722:	04 b6       	in	r0, 0x34	; 52
     724:	01 fe       	sbrs	r0, 1
     726:	05 c0       	rjmp	.+10     	; 0x732 <main+0x5a>
     728:	87 ed       	ldi	r24, 0xD7	; 215
     72a:	90 e0       	ldi	r25, 0x00	; 0
     72c:	0e 94 67 13 	call	0x26ce	; 0x26ce <write_string>
     730:	06 c0       	rjmp	.+12     	; 0x73e <main+0x66>
	else write_var(MCUCSR);
     732:	64 b7       	in	r22, 0x34	; 52
     734:	70 e0       	ldi	r23, 0x00	; 0
     736:	80 e0       	ldi	r24, 0x00	; 0
     738:	90 e0       	ldi	r25, 0x00	; 0
     73a:	0e 94 8b 13 	call	0x2716	; 0x2716 <write_var>
	// Resetting the Status Register
	MCUCSR &= ~((1<<WDRF)|(1<<PORF)|(1<<BORF)|(1<<EXTRF));
     73e:	84 b7       	in	r24, 0x34	; 52
     740:	80 7f       	andi	r24, 0xF0	; 240
     742:	84 bf       	out	0x34, r24	; 52
	#else
		//round up by default
		__ticks_dc = (uint32_t)(ceil(fabs(__tmp)));
	#endif

	__builtin_avr_delay_cycles(__ticks_dc);
     744:	2f e7       	ldi	r18, 0x7F	; 127
     746:	3f e4       	ldi	r19, 0x4F	; 79
     748:	42 e1       	ldi	r20, 0x12	; 18
     74a:	21 50       	subi	r18, 0x01	; 1
     74c:	30 40       	sbci	r19, 0x00	; 0
     74e:	40 40       	sbci	r20, 0x00	; 0
     750:	e1 f7       	brne	.-8      	; 0x74a <main+0x72>
     752:	00 c0       	rjmp	.+0      	; 0x754 <main+0x7c>
     754:	00 00       	nop
	_delay_ms(500);
	
	// Initialize I2C communication
	i2c_initialize();
     756:	0e 94 16 01 	call	0x22c	; 0x22c <i2c_initialize>
// 		OLED_send_string("LON");
	}
	
	
	// Starting the Servo PWM signal setting
	cli();	// disable interrupts
     75a:	f8 94       	cli
	Task_Timer();
     75c:	0e 94 f7 02 	call	0x5ee	; 0x5ee <Task_Timer>
	servo_init();
     760:	0e 94 43 01 	call	0x286	; 0x286 <servo_init>
	// setting all needed timers to Interrupt mode
	TIMSK  = (0<<TICIE1)|(1<<OCIE1A)|(0<<OCIE1B)|(0<<TOIE1)|(1<<OCIE0)|(1<<TOIE2);
     764:	82 e5       	ldi	r24, 0x52	; 82
     766:	89 bf       	out	0x39, r24	; 57
	sei();	//enable interrupts
     768:	78 94       	sei
	
	
				
	// Turn On the Watchdog
	WDT_on();
     76a:	0e 94 24 03 	call	0x648	; 0x648 <WDT_on>
	
	// Define Navigation Lights Output Port D
	DDRD |= (1<<PD4)|(1<<PD5)|(1<<PD6)|(1<<PD7);
     76e:	81 b3       	in	r24, 0x11	; 17
     770:	80 6f       	ori	r24, 0xF0	; 240
     772:	81 bb       	out	0x11, r24	; 17
	// Turn off LEDs at instance
	PORTD &= ~((1<<PD4)|(1<<PD5)|(1<<PD6)|(1<<PD7));
     774:	82 b3       	in	r24, 0x12	; 18
     776:	8f 70       	andi	r24, 0x0F	; 15
     778:	82 bb       	out	0x12, r24	; 18
	
	// Turn on Light for check
	PORTD |= (1<<PD4);
     77a:	94 9a       	sbi	0x12, 4	; 18
		
	while(1)
    {
			// Program Code (infinite loop)
			
			if(UART_READY_FLAG == TRUE)
     77c:	80 91 5b 02 	lds	r24, 0x025B
     780:	81 30       	cpi	r24, 0x01	; 1
     782:	b1 f5       	brne	.+108    	; 0x7f0 <main+0x118>
			{
				if(strcmp(GPS_string[0],"GPRMC")==0)
     784:	6e ed       	ldi	r22, 0xDE	; 222
     786:	70 e0       	ldi	r23, 0x00	; 0
     788:	8f eb       	ldi	r24, 0xBF	; 191
     78a:	93 e0       	ldi	r25, 0x03	; 3
     78c:	0e 94 0a 17 	call	0x2e14	; 0x2e14 <strcmp>
     790:	28 2f       	mov	r18, r24
     792:	39 2f       	mov	r19, r25
     794:	23 2b       	or	r18, r19
     796:	81 f4       	brne	.+32     	; 0x7b8 <main+0xe0>
				{
					memcpy(GPS_RMC,GPS_string,sizeof(GPS_RMC));
     798:	ef eb       	ldi	r30, 0xBF	; 191
     79a:	f3 e0       	ldi	r31, 0x03	; 3
     79c:	ac e5       	ldi	r26, 0x5C	; 92
     79e:	b2 e0       	ldi	r27, 0x02	; 2
     7a0:	80 eb       	ldi	r24, 0xB0	; 176
     7a2:	01 90       	ld	r0, Z+
     7a4:	0d 92       	st	X+, r0
     7a6:	8a 95       	dec	r24
     7a8:	e1 f7       	brne	.-8      	; 0x7a2 <main+0xca>
					memset(GPS_string,0,sizeof(GPS_string));
     7aa:	ef eb       	ldi	r30, 0xBF	; 191
     7ac:	f3 e0       	ldi	r31, 0x03	; 3
     7ae:	df 01       	movw	r26, r30
     7b0:	20 eb       	ldi	r18, 0xB0	; 176
     7b2:	1d 92       	st	X+, r1
     7b4:	2a 95       	dec	r18
     7b6:	e9 f7       	brne	.-6      	; 0x7b2 <main+0xda>
					
				}
				if(strcmp(GPS_string[0],"GPGGA")==0)
     7b8:	64 ee       	ldi	r22, 0xE4	; 228
     7ba:	70 e0       	ldi	r23, 0x00	; 0
     7bc:	8f eb       	ldi	r24, 0xBF	; 191
     7be:	93 e0       	ldi	r25, 0x03	; 3
     7c0:	0e 94 0a 17 	call	0x2e14	; 0x2e14 <strcmp>
     7c4:	28 2f       	mov	r18, r24
     7c6:	39 2f       	mov	r19, r25
     7c8:	23 2b       	or	r18, r19
     7ca:	81 f4       	brne	.+32     	; 0x7ec <main+0x114>
				{
					memcpy(GPS_GGA,GPS_string,sizeof(GPS_GGA));
     7cc:	ef eb       	ldi	r30, 0xBF	; 191
     7ce:	f3 e0       	ldi	r31, 0x03	; 3
     7d0:	ac e0       	ldi	r26, 0x0C	; 12
     7d2:	b3 e0       	ldi	r27, 0x03	; 3
     7d4:	80 eb       	ldi	r24, 0xB0	; 176
     7d6:	01 90       	ld	r0, Z+
     7d8:	0d 92       	st	X+, r0
     7da:	8a 95       	dec	r24
     7dc:	e1 f7       	brne	.-8      	; 0x7d6 <main+0xfe>
					memset(GPS_string,0,sizeof(GPS_string));
     7de:	ef eb       	ldi	r30, 0xBF	; 191
     7e0:	f3 e0       	ldi	r31, 0x03	; 3
     7e2:	df 01       	movw	r26, r30
     7e4:	20 eb       	ldi	r18, 0xB0	; 176
     7e6:	1d 92       	st	X+, r1
     7e8:	2a 95       	dec	r18
     7ea:	e9 f7       	brne	.-6      	; 0x7e6 <main+0x10e>
				}
				/*
				write_string_ln(GPS_RMC[GPS_RMC_GROUNDSPEED]);
				write_string_ln(GPS_GGA[GPS_GGA_ALTMSL]);
				*/
				UART_READY_FLAG = FALSE;
     7ec:	10 92 5b 02 	sts	0x025B, r1
			}
			
			if(task_flag == 1)
     7f0:	80 91 ef 01 	lds	r24, 0x01EF
     7f4:	81 30       	cpi	r24, 0x01	; 1
     7f6:	11 f0       	breq	.+4      	; 0x7fc <main+0x124>
     7f8:	0c 94 e1 12 	jmp	0x25c2	; 0x25c2 <__stack+0x1d63>
			{
				// Resetting the task call:
				task_flag = 0;
     7fc:	10 92 ef 01 	sts	0x01EF, r1
				else if(ctrl_in[4]<150 && ctrl_in[4]>135) Ctrl_Mode = HOLD_CTRL;
				else if(ctrl_in[4]<160 && ctrl_in[4]>150) Ctrl_Mode = HOLD_CTRL;
				*/	
				
				// Calculating the attitude by using Kalman Filtering
				Theta += sample_time * (q_filt-q_bias);
     800:	80 91 16 02 	lds	r24, 0x0216
     804:	90 91 17 02 	lds	r25, 0x0217
     808:	a0 91 18 02 	lds	r26, 0x0218
     80c:	b0 91 19 02 	lds	r27, 0x0219
     810:	8e a7       	std	Y+46, r24	; 0x2e
     812:	9f a7       	std	Y+47, r25	; 0x2f
     814:	a8 ab       	std	Y+48, r26	; 0x30
     816:	b9 ab       	std	Y+49, r27	; 0x31
     818:	80 90 ea 01 	lds	r8, 0x01EA
     81c:	90 90 eb 01 	lds	r9, 0x01EB
     820:	a0 90 ec 01 	lds	r10, 0x01EC
     824:	b0 90 ed 01 	lds	r11, 0x01ED
     828:	60 91 2d 05 	lds	r22, 0x052D
     82c:	70 91 2e 05 	lds	r23, 0x052E
     830:	88 27       	eor	r24, r24
     832:	77 fd       	sbrc	r23, 7
     834:	80 95       	com	r24
     836:	98 2f       	mov	r25, r24
     838:	0e 94 4b 15 	call	0x2a96	; 0x2a96 <__floatsisf>
     83c:	6b 01       	movw	r12, r22
     83e:	7c 01       	movw	r14, r24
     840:	60 91 19 05 	lds	r22, 0x0519
     844:	77 27       	eor	r23, r23
     846:	67 fd       	sbrc	r22, 7
     848:	70 95       	com	r23
     84a:	87 2f       	mov	r24, r23
     84c:	97 2f       	mov	r25, r23
     84e:	0e 94 4b 15 	call	0x2a96	; 0x2a96 <__floatsisf>
     852:	2e a5       	ldd	r18, Y+46	; 0x2e
     854:	3f a5       	ldd	r19, Y+47	; 0x2f
     856:	48 a9       	ldd	r20, Y+48	; 0x30
     858:	59 a9       	ldd	r21, Y+49	; 0x31
     85a:	0e 94 e5 13 	call	0x27ca	; 0x27ca <__subsf3>
     85e:	a5 01       	movw	r20, r10
     860:	94 01       	movw	r18, r8
     862:	0e 94 2b 16 	call	0x2c56	; 0x2c56 <__mulsf3>
     866:	9b 01       	movw	r18, r22
     868:	ac 01       	movw	r20, r24
     86a:	c7 01       	movw	r24, r14
     86c:	b6 01       	movw	r22, r12
     86e:	0e 94 e6 13 	call	0x27cc	; 0x27cc <__addsf3>
     872:	0e 94 18 15 	call	0x2a30	; 0x2a30 <__fixsfsi>
     876:	8b 01       	movw	r16, r22
				
				P_00_Theta +=  - sample_time * ((P_10_Theta + P_01_Theta) - Q_angle);
     878:	75 01       	movw	r14, r10
     87a:	64 01       	movw	r12, r8
     87c:	f7 fa       	bst	r15, 7
     87e:	f0 94       	com	r15
     880:	f7 f8       	bld	r15, 7
     882:	f0 94       	com	r15
     884:	80 91 f2 04 	lds	r24, 0x04F2
     888:	90 91 f3 04 	lds	r25, 0x04F3
     88c:	a0 91 f4 04 	lds	r26, 0x04F4
     890:	b0 91 f5 04 	lds	r27, 0x04F5
     894:	89 83       	std	Y+1, r24	; 0x01
     896:	9a 83       	std	Y+2, r25	; 0x02
     898:	ab 83       	std	Y+3, r26	; 0x03
     89a:	bc 83       	std	Y+4, r27	; 0x04
     89c:	40 90 84 00 	lds	r4, 0x0084
     8a0:	50 90 85 00 	lds	r5, 0x0085
     8a4:	60 90 86 00 	lds	r6, 0x0086
     8a8:	70 90 87 00 	lds	r7, 0x0087
     8ac:	20 91 fe 04 	lds	r18, 0x04FE
     8b0:	30 91 ff 04 	lds	r19, 0x04FF
     8b4:	40 91 00 05 	lds	r20, 0x0500
     8b8:	50 91 01 05 	lds	r21, 0x0501
     8bc:	bc 01       	movw	r22, r24
     8be:	cd 01       	movw	r24, r26
     8c0:	0e 94 e6 13 	call	0x27cc	; 0x27cc <__addsf3>
     8c4:	a3 01       	movw	r20, r6
     8c6:	92 01       	movw	r18, r4
     8c8:	0e 94 e5 13 	call	0x27ca	; 0x27ca <__subsf3>
     8cc:	9b 01       	movw	r18, r22
     8ce:	ac 01       	movw	r20, r24
     8d0:	c7 01       	movw	r24, r14
     8d2:	b6 01       	movw	r22, r12
     8d4:	0e 94 2b 16 	call	0x2c56	; 0x2c56 <__mulsf3>
     8d8:	20 91 0f 05 	lds	r18, 0x050F
     8dc:	30 91 10 05 	lds	r19, 0x0510
     8e0:	40 91 11 05 	lds	r20, 0x0511
     8e4:	50 91 12 05 	lds	r21, 0x0512
     8e8:	0e 94 e6 13 	call	0x27cc	; 0x27cc <__addsf3>
     8ec:	6b 87       	std	Y+11, r22	; 0x0b
     8ee:	7c 87       	std	Y+12, r23	; 0x0c
     8f0:	8d 87       	std	Y+13, r24	; 0x0d
     8f2:	9e 87       	std	Y+14, r25	; 0x0e
				P_01_Theta +=  - sample_time * P_11_Theta;
     8f4:	80 91 12 02 	lds	r24, 0x0212
     8f8:	90 91 13 02 	lds	r25, 0x0213
     8fc:	a0 91 14 02 	lds	r26, 0x0214
     900:	b0 91 15 02 	lds	r27, 0x0215
     904:	8a ab       	std	Y+50, r24	; 0x32
     906:	9b ab       	std	Y+51, r25	; 0x33
     908:	ac ab       	std	Y+52, r26	; 0x34
     90a:	bd ab       	std	Y+53, r27	; 0x35
     90c:	9c 01       	movw	r18, r24
     90e:	ad 01       	movw	r20, r26
     910:	c7 01       	movw	r24, r14
     912:	b6 01       	movw	r22, r12
     914:	0e 94 2b 16 	call	0x2c56	; 0x2c56 <__mulsf3>
     918:	9b 01       	movw	r18, r22
     91a:	ac 01       	movw	r20, r24
     91c:	69 81       	ldd	r22, Y+1	; 0x01
     91e:	7a 81       	ldd	r23, Y+2	; 0x02
     920:	8b 81       	ldd	r24, Y+3	; 0x03
     922:	9c 81       	ldd	r25, Y+4	; 0x04
     924:	0e 94 e6 13 	call	0x27cc	; 0x27cc <__addsf3>
     928:	69 83       	std	Y+1, r22	; 0x01
     92a:	7f 87       	std	Y+15, r23	; 0x0f
     92c:	88 8b       	std	Y+16, r24	; 0x10
     92e:	99 8b       	std	Y+17, r25	; 0x11
				P_10_Theta = P_01_Theta;
				P_11_Theta +=  + Q_gyro * sample_time;
     930:	20 91 80 00 	lds	r18, 0x0080
     934:	30 91 81 00 	lds	r19, 0x0081
     938:	40 91 82 00 	lds	r20, 0x0082
     93c:	50 91 83 00 	lds	r21, 0x0083
     940:	c5 01       	movw	r24, r10
     942:	b4 01       	movw	r22, r8
     944:	0e 94 2b 16 	call	0x2c56	; 0x2c56 <__mulsf3>
     948:	6e af       	std	Y+62, r22	; 0x3e
     94a:	7f af       	std	Y+63, r23	; 0x3f
     94c:	21 96       	adiw	r28, 0x01	; 1
     94e:	8f af       	std	Y+63, r24	; 0x3f
     950:	21 97       	sbiw	r28, 0x01	; 1
     952:	22 96       	adiw	r28, 0x02	; 2
     954:	9f af       	std	Y+63, r25	; 0x3f
     956:	22 97       	sbiw	r28, 0x02	; 2
				
				
				Phi += sample_time * (p_filt-p_bias);
     958:	80 91 0a 02 	lds	r24, 0x020A
     95c:	90 91 0b 02 	lds	r25, 0x020B
     960:	a0 91 0c 02 	lds	r26, 0x020C
     964:	b0 91 0d 02 	lds	r27, 0x020D
     968:	8e ab       	std	Y+54, r24	; 0x36
     96a:	9f ab       	std	Y+55, r25	; 0x37
     96c:	a8 af       	std	Y+56, r26	; 0x38
     96e:	b9 af       	std	Y+57, r27	; 0x39
     970:	60 91 35 02 	lds	r22, 0x0235
     974:	70 91 36 02 	lds	r23, 0x0236
     978:	88 27       	eor	r24, r24
     97a:	77 fd       	sbrc	r23, 7
     97c:	80 95       	com	r24
     97e:	98 2f       	mov	r25, r24
     980:	0e 94 4b 15 	call	0x2a96	; 0x2a96 <__floatsisf>
     984:	6d 83       	std	Y+5, r22	; 0x05
     986:	7e 83       	std	Y+6, r23	; 0x06
     988:	8f 83       	std	Y+7, r24	; 0x07
     98a:	98 87       	std	Y+8, r25	; 0x08
     98c:	60 91 2c 05 	lds	r22, 0x052C
     990:	77 27       	eor	r23, r23
     992:	67 fd       	sbrc	r22, 7
     994:	70 95       	com	r23
     996:	87 2f       	mov	r24, r23
     998:	97 2f       	mov	r25, r23
     99a:	0e 94 4b 15 	call	0x2a96	; 0x2a96 <__floatsisf>
     99e:	2e a9       	ldd	r18, Y+54	; 0x36
     9a0:	3f a9       	ldd	r19, Y+55	; 0x37
     9a2:	48 ad       	ldd	r20, Y+56	; 0x38
     9a4:	59 ad       	ldd	r21, Y+57	; 0x39
     9a6:	0e 94 e5 13 	call	0x27ca	; 0x27ca <__subsf3>
     9aa:	9b 01       	movw	r18, r22
     9ac:	ac 01       	movw	r20, r24
     9ae:	c5 01       	movw	r24, r10
     9b0:	b4 01       	movw	r22, r8
     9b2:	0e 94 2b 16 	call	0x2c56	; 0x2c56 <__mulsf3>
     9b6:	9b 01       	movw	r18, r22
     9b8:	ac 01       	movw	r20, r24
     9ba:	6d 81       	ldd	r22, Y+5	; 0x05
     9bc:	7e 81       	ldd	r23, Y+6	; 0x06
     9be:	8f 81       	ldd	r24, Y+7	; 0x07
     9c0:	98 85       	ldd	r25, Y+8	; 0x08
     9c2:	0e 94 e6 13 	call	0x27cc	; 0x27cc <__addsf3>
     9c6:	0e 94 18 15 	call	0x2a30	; 0x2a30 <__fixsfsi>
     9ca:	7a 87       	std	Y+10, r23	; 0x0a
     9cc:	69 87       	std	Y+9, r22	; 0x09
				P_00_Phi +=  - sample_time * ((P_10_Phi + P_01_Phi) - Q_angle);
     9ce:	80 90 33 05 	lds	r8, 0x0533
     9d2:	90 90 34 05 	lds	r9, 0x0534
     9d6:	a0 90 35 05 	lds	r10, 0x0535
     9da:	b0 90 36 05 	lds	r11, 0x0536
     9de:	20 91 2f 05 	lds	r18, 0x052F
     9e2:	30 91 30 05 	lds	r19, 0x0530
     9e6:	40 91 31 05 	lds	r20, 0x0531
     9ea:	50 91 32 05 	lds	r21, 0x0532
     9ee:	c5 01       	movw	r24, r10
     9f0:	b4 01       	movw	r22, r8
     9f2:	0e 94 e6 13 	call	0x27cc	; 0x27cc <__addsf3>
     9f6:	a3 01       	movw	r20, r6
     9f8:	92 01       	movw	r18, r4
     9fa:	0e 94 e5 13 	call	0x27ca	; 0x27ca <__subsf3>
     9fe:	9b 01       	movw	r18, r22
     a00:	ac 01       	movw	r20, r24
     a02:	c7 01       	movw	r24, r14
     a04:	b6 01       	movw	r22, r12
     a06:	0e 94 2b 16 	call	0x2c56	; 0x2c56 <__mulsf3>
     a0a:	20 91 e4 04 	lds	r18, 0x04E4
     a0e:	30 91 e5 04 	lds	r19, 0x04E5
     a12:	40 91 e6 04 	lds	r20, 0x04E6
     a16:	50 91 e7 04 	lds	r21, 0x04E7
     a1a:	0e 94 e6 13 	call	0x27cc	; 0x27cc <__addsf3>
     a1e:	6d 83       	std	Y+5, r22	; 0x05
     a20:	7a 8b       	std	Y+18, r23	; 0x12
     a22:	8b 8b       	std	Y+19, r24	; 0x13
     a24:	9c 8b       	std	Y+20, r25	; 0x14
				P_01_Phi +=  - sample_time * P_11_Phi;
     a26:	80 91 06 02 	lds	r24, 0x0206
     a2a:	90 91 07 02 	lds	r25, 0x0207
     a2e:	a0 91 08 02 	lds	r26, 0x0208
     a32:	b0 91 09 02 	lds	r27, 0x0209
     a36:	8a af       	std	Y+58, r24	; 0x3a
     a38:	9b af       	std	Y+59, r25	; 0x3b
     a3a:	ac af       	std	Y+60, r26	; 0x3c
     a3c:	bd af       	std	Y+61, r27	; 0x3d
     a3e:	9c 01       	movw	r18, r24
     a40:	ad 01       	movw	r20, r26
     a42:	c7 01       	movw	r24, r14
     a44:	b6 01       	movw	r22, r12
     a46:	0e 94 2b 16 	call	0x2c56	; 0x2c56 <__mulsf3>
     a4a:	9b 01       	movw	r18, r22
     a4c:	ac 01       	movw	r20, r24
     a4e:	c5 01       	movw	r24, r10
     a50:	b4 01       	movw	r22, r8
     a52:	0e 94 e6 13 	call	0x27cc	; 0x27cc <__addsf3>
     a56:	6d 8b       	std	Y+21, r22	; 0x15
     a58:	7e 8b       	std	Y+22, r23	; 0x16
     a5a:	8f 8b       	std	Y+23, r24	; 0x17
     a5c:	98 8f       	std	Y+24, r25	; 0x18
				P_00_Psi +=  - sample_time * (P_10_Psi + P_01_Psi) + Q_angle * sample_time;
				P_01_Psi +=  - sample_time * P_11_Psi;
				P_10_Psi +=  - sample_time * P_11_Psi;
				P_11_Psi +=  + Q_gyro * sample_time;
				*/
				Theta_temp = Theta_acc - Theta;
     a5e:	b8 01       	movw	r22, r16
     a60:	88 27       	eor	r24, r24
     a62:	77 fd       	sbrc	r23, 7
     a64:	80 95       	com	r24
     a66:	98 2f       	mov	r25, r24
     a68:	0e 94 4b 15 	call	0x2a96	; 0x2a96 <__floatsisf>
     a6c:	4b 01       	movw	r8, r22
     a6e:	5c 01       	movw	r10, r24
     a70:	9b 01       	movw	r18, r22
     a72:	ac 01       	movw	r20, r24
     a74:	60 91 1f 02 	lds	r22, 0x021F
     a78:	70 91 20 02 	lds	r23, 0x0220
     a7c:	80 91 21 02 	lds	r24, 0x0221
     a80:	90 91 22 02 	lds	r25, 0x0222
     a84:	0e 94 e5 13 	call	0x27ca	; 0x27ca <__subsf3>
     a88:	6e a3       	std	Y+38, r22	; 0x26
     a8a:	7f a3       	std	Y+39, r23	; 0x27
     a8c:	88 a7       	std	Y+40, r24	; 0x28
     a8e:	99 a7       	std	Y+41, r25	; 0x29
     a90:	47 2f       	mov	r20, r23
     a92:	38 2f       	mov	r19, r24
     a94:	29 2f       	mov	r18, r25
     a96:	86 2f       	mov	r24, r22
     a98:	94 2f       	mov	r25, r20
     a9a:	a3 2f       	mov	r26, r19
     a9c:	b2 2f       	mov	r27, r18
     a9e:	80 93 06 05 	sts	0x0506, r24
     aa2:	90 93 07 05 	sts	0x0507, r25
     aa6:	a0 93 08 05 	sts	0x0508, r26
     aaa:	b0 93 09 05 	sts	0x0509, r27
				S_Theta = P_00_Theta + R_angle;
     aae:	40 90 7c 00 	lds	r4, 0x007C
     ab2:	50 90 7d 00 	lds	r5, 0x007D
     ab6:	60 90 7e 00 	lds	r6, 0x007E
     aba:	70 90 7f 00 	lds	r7, 0x007F
     abe:	a3 01       	movw	r20, r6
     ac0:	92 01       	movw	r18, r4
     ac2:	bb 85       	ldd	r27, Y+11	; 0x0b
     ac4:	ac 85       	ldd	r26, Y+12	; 0x0c
     ac6:	ed 85       	ldd	r30, Y+13	; 0x0d
     ac8:	1e 85       	ldd	r17, Y+14	; 0x0e
     aca:	6b 2f       	mov	r22, r27
     acc:	7a 2f       	mov	r23, r26
     ace:	8e 2f       	mov	r24, r30
     ad0:	91 2f       	mov	r25, r17
     ad2:	0e 94 e6 13 	call	0x27cc	; 0x27cc <__addsf3>
     ad6:	f6 2e       	mov	r15, r22
     ad8:	c7 2e       	mov	r12, r23
     ada:	18 2f       	mov	r17, r24
     adc:	09 2f       	mov	r16, r25
     ade:	56 2f       	mov	r21, r22
     ae0:	47 2f       	mov	r20, r23
     ae2:	86 2f       	mov	r24, r22
     ae4:	9c 2d       	mov	r25, r12
     ae6:	a1 2f       	mov	r26, r17
     ae8:	b0 2f       	mov	r27, r16
     aea:	80 93 d0 04 	sts	0x04D0, r24
     aee:	90 93 d1 04 	sts	0x04D1, r25
     af2:	a0 93 d2 04 	sts	0x04D2, r26
     af6:	b0 93 d3 04 	sts	0x04D3, r27
				K_0_Theta = P_00_Theta / S_Theta;
     afa:	25 2f       	mov	r18, r21
     afc:	34 2f       	mov	r19, r20
     afe:	4a 2f       	mov	r20, r26
     b00:	5b 2f       	mov	r21, r27
     b02:	bb 85       	ldd	r27, Y+11	; 0x0b
     b04:	ac 85       	ldd	r26, Y+12	; 0x0c
     b06:	ed 84       	ldd	r14, Y+13	; 0x0d
     b08:	de 84       	ldd	r13, Y+14	; 0x0e
     b0a:	6b 2f       	mov	r22, r27
     b0c:	7a 2f       	mov	r23, r26
     b0e:	8e 2d       	mov	r24, r14
     b10:	9d 2d       	mov	r25, r13
     b12:	0e 94 b0 14 	call	0x2960	; 0x2960 <__divsf3>
     b16:	36 2e       	mov	r3, r22
     b18:	27 2e       	mov	r2, r23
     b1a:	89 8f       	std	Y+25, r24	; 0x19
     b1c:	9a 8f       	std	Y+26, r25	; 0x1a
     b1e:	38 2f       	mov	r19, r24
     b20:	29 2f       	mov	r18, r25
     b22:	86 2f       	mov	r24, r22
     b24:	92 2d       	mov	r25, r2
     b26:	a3 2f       	mov	r26, r19
     b28:	b2 2f       	mov	r27, r18
     b2a:	80 93 be 04 	sts	0x04BE, r24
     b2e:	90 93 bf 04 	sts	0x04BF, r25
     b32:	a0 93 c0 04 	sts	0x04C0, r26
     b36:	b0 93 c1 04 	sts	0x04C1, r27
				K_1_Theta = P_10_Theta / S_Theta;
     b3a:	2f 2d       	mov	r18, r15
     b3c:	3c 2d       	mov	r19, r12
     b3e:	41 2f       	mov	r20, r17
     b40:	50 2f       	mov	r21, r16
     b42:	b9 81       	ldd	r27, Y+1	; 0x01
     b44:	af 85       	ldd	r26, Y+15	; 0x0f
     b46:	e8 89       	ldd	r30, Y+16	; 0x10
     b48:	19 89       	ldd	r17, Y+17	; 0x11
     b4a:	6b 2f       	mov	r22, r27
     b4c:	7a 2f       	mov	r23, r26
     b4e:	8e 2f       	mov	r24, r30
     b50:	91 2f       	mov	r25, r17
     b52:	0e 94 b0 14 	call	0x2960	; 0x2960 <__divsf3>
     b56:	6b 8f       	std	Y+27, r22	; 0x1b
     b58:	7c 8f       	std	Y+28, r23	; 0x1c
     b5a:	8d 8f       	std	Y+29, r24	; 0x1d
     b5c:	9e 8f       	std	Y+30, r25	; 0x1e
     b5e:	47 2f       	mov	r20, r23
     b60:	38 2f       	mov	r19, r24
     b62:	29 2f       	mov	r18, r25
     b64:	86 2f       	mov	r24, r22
     b66:	94 2f       	mov	r25, r20
     b68:	a3 2f       	mov	r26, r19
     b6a:	b2 2f       	mov	r27, r18
     b6c:	80 93 0e 02 	sts	0x020E, r24
     b70:	90 93 0f 02 	sts	0x020F, r25
     b74:	a0 93 10 02 	sts	0x0210, r26
     b78:	b0 93 11 02 	sts	0x0211, r27
				
				Phi_temp = Phi_acc - Phi;
     b7c:	a9 85       	ldd	r26, Y+9	; 0x09
     b7e:	ba 85       	ldd	r27, Y+10	; 0x0a
     b80:	bd 01       	movw	r22, r26
     b82:	88 27       	eor	r24, r24
     b84:	77 fd       	sbrc	r23, 7
     b86:	80 95       	com	r24
     b88:	98 2f       	mov	r25, r24
     b8a:	0e 94 4b 15 	call	0x2a96	; 0x2a96 <__floatsisf>
     b8e:	6b 01       	movw	r12, r22
     b90:	7c 01       	movw	r14, r24
     b92:	9b 01       	movw	r18, r22
     b94:	ac 01       	movw	r20, r24
     b96:	60 91 1b 02 	lds	r22, 0x021B
     b9a:	70 91 1c 02 	lds	r23, 0x021C
     b9e:	80 91 1d 02 	lds	r24, 0x021D
     ba2:	90 91 1e 02 	lds	r25, 0x021E
     ba6:	0e 94 e5 13 	call	0x27ca	; 0x27ca <__subsf3>
     baa:	6a a7       	std	Y+42, r22	; 0x2a
     bac:	7b a7       	std	Y+43, r23	; 0x2b
     bae:	8c a7       	std	Y+44, r24	; 0x2c
     bb0:	9d a7       	std	Y+45, r25	; 0x2d
     bb2:	47 2f       	mov	r20, r23
     bb4:	38 2f       	mov	r19, r24
     bb6:	29 2f       	mov	r18, r25
     bb8:	86 2f       	mov	r24, r22
     bba:	94 2f       	mov	r25, r20
     bbc:	a3 2f       	mov	r26, r19
     bbe:	b2 2f       	mov	r27, r18
     bc0:	80 93 3b 05 	sts	0x053B, r24
     bc4:	90 93 3c 05 	sts	0x053C, r25
     bc8:	a0 93 3d 05 	sts	0x053D, r26
     bcc:	b0 93 3e 05 	sts	0x053E, r27
				S_Phi = P_00_Phi + R_angle;
     bd0:	a3 01       	movw	r20, r6
     bd2:	92 01       	movw	r18, r4
     bd4:	bd 81       	ldd	r27, Y+5	; 0x05
     bd6:	aa 89       	ldd	r26, Y+18	; 0x12
     bd8:	eb 89       	ldd	r30, Y+19	; 0x13
     bda:	1c 89       	ldd	r17, Y+20	; 0x14
     bdc:	6b 2f       	mov	r22, r27
     bde:	7a 2f       	mov	r23, r26
     be0:	8e 2f       	mov	r24, r30
     be2:	91 2f       	mov	r25, r17
     be4:	0e 94 e6 13 	call	0x27cc	; 0x27cc <__addsf3>
     be8:	76 2e       	mov	r7, r22
     bea:	47 2e       	mov	r4, r23
     bec:	18 2f       	mov	r17, r24
     bee:	09 2f       	mov	r16, r25
     bf0:	56 2f       	mov	r21, r22
     bf2:	47 2f       	mov	r20, r23
     bf4:	86 2f       	mov	r24, r22
     bf6:	94 2d       	mov	r25, r4
     bf8:	a1 2f       	mov	r26, r17
     bfa:	b0 2f       	mov	r27, r16
     bfc:	80 93 28 05 	sts	0x0528, r24
     c00:	90 93 29 05 	sts	0x0529, r25
     c04:	a0 93 2a 05 	sts	0x052A, r26
     c08:	b0 93 2b 05 	sts	0x052B, r27
				K_0_Phi = P_00_Phi / S_Phi;
     c0c:	25 2f       	mov	r18, r21
     c0e:	34 2f       	mov	r19, r20
     c10:	4a 2f       	mov	r20, r26
     c12:	5b 2f       	mov	r21, r27
     c14:	bd 81       	ldd	r27, Y+5	; 0x05
     c16:	aa 89       	ldd	r26, Y+18	; 0x12
     c18:	6b 88       	ldd	r6, Y+19	; 0x13
     c1a:	5c 88       	ldd	r5, Y+20	; 0x14
     c1c:	6b 2f       	mov	r22, r27
     c1e:	7a 2f       	mov	r23, r26
     c20:	86 2d       	mov	r24, r6
     c22:	95 2d       	mov	r25, r5
     c24:	0e 94 b0 14 	call	0x2960	; 0x2960 <__divsf3>
     c28:	69 87       	std	Y+9, r22	; 0x09
     c2a:	7f 8f       	std	Y+31, r23	; 0x1f
     c2c:	88 a3       	std	Y+32, r24	; 0x20
     c2e:	99 a3       	std	Y+33, r25	; 0x21
     c30:	47 2f       	mov	r20, r23
     c32:	38 2f       	mov	r19, r24
     c34:	29 2f       	mov	r18, r25
     c36:	86 2f       	mov	r24, r22
     c38:	94 2f       	mov	r25, r20
     c3a:	a3 2f       	mov	r26, r19
     c3c:	b2 2f       	mov	r27, r18
     c3e:	80 93 42 05 	sts	0x0542, r24
     c42:	90 93 43 05 	sts	0x0543, r25
     c46:	a0 93 44 05 	sts	0x0544, r26
     c4a:	b0 93 45 05 	sts	0x0545, r27
				K_1_Phi = P_10_Phi / S_Phi;
     c4e:	27 2d       	mov	r18, r7
     c50:	34 2d       	mov	r19, r4
     c52:	41 2f       	mov	r20, r17
     c54:	50 2f       	mov	r21, r16
     c56:	bd 89       	ldd	r27, Y+21	; 0x15
     c58:	ae 89       	ldd	r26, Y+22	; 0x16
     c5a:	ef 89       	ldd	r30, Y+23	; 0x17
     c5c:	18 8d       	ldd	r17, Y+24	; 0x18
     c5e:	6b 2f       	mov	r22, r27
     c60:	7a 2f       	mov	r23, r26
     c62:	8e 2f       	mov	r24, r30
     c64:	91 2f       	mov	r25, r17
     c66:	0e 94 b0 14 	call	0x2960	; 0x2960 <__divsf3>
     c6a:	6a a3       	std	Y+34, r22	; 0x22
     c6c:	7b a3       	std	Y+35, r23	; 0x23
     c6e:	8c a3       	std	Y+36, r24	; 0x24
     c70:	9d a3       	std	Y+37, r25	; 0x25
     c72:	47 2f       	mov	r20, r23
     c74:	38 2f       	mov	r19, r24
     c76:	29 2f       	mov	r18, r25
     c78:	86 2f       	mov	r24, r22
     c7a:	94 2f       	mov	r25, r20
     c7c:	a3 2f       	mov	r26, r19
     c7e:	b2 2f       	mov	r27, r18
     c80:	80 93 02 02 	sts	0x0202, r24
     c84:	90 93 03 02 	sts	0x0203, r25
     c88:	a0 93 04 02 	sts	0x0204, r26
     c8c:	b0 93 05 02 	sts	0x0205, r27
				Psi_temp = mag - Psi;
				S_Psi = P_00_Psi + R_angle;
				K_0_Psi = P_00_Psi / S_Psi;
				K_1_Psi = P_10_Psi / S_Psi;
				*/
				Theta +=  K_0_Theta * Theta_temp;
     c90:	99 8d       	ldd	r25, Y+25	; 0x19
     c92:	8a 8d       	ldd	r24, Y+26	; 0x1a
     c94:	23 2d       	mov	r18, r3
     c96:	32 2d       	mov	r19, r2
     c98:	49 2f       	mov	r20, r25
     c9a:	58 2f       	mov	r21, r24
     c9c:	be a1       	ldd	r27, Y+38	; 0x26
     c9e:	af a1       	ldd	r26, Y+39	; 0x27
     ca0:	e8 a5       	ldd	r30, Y+40	; 0x28
     ca2:	19 a5       	ldd	r17, Y+41	; 0x29
     ca4:	6b 2f       	mov	r22, r27
     ca6:	7a 2f       	mov	r23, r26
     ca8:	8e 2f       	mov	r24, r30
     caa:	91 2f       	mov	r25, r17
     cac:	0e 94 2b 16 	call	0x2c56	; 0x2c56 <__mulsf3>
     cb0:	9b 01       	movw	r18, r22
     cb2:	ac 01       	movw	r20, r24
     cb4:	c5 01       	movw	r24, r10
     cb6:	b4 01       	movw	r22, r8
     cb8:	0e 94 e6 13 	call	0x27cc	; 0x27cc <__addsf3>
     cbc:	0e 94 18 15 	call	0x2a30	; 0x2a30 <__fixsfsi>
     cc0:	70 93 2e 05 	sts	0x052E, r23
     cc4:	60 93 2d 05 	sts	0x052D, r22
				q_bias  +=  K_1_Theta * Theta_temp;
     cc8:	7b 8d       	ldd	r23, Y+27	; 0x1b
     cca:	6c 8d       	ldd	r22, Y+28	; 0x1c
     ccc:	9d 8d       	ldd	r25, Y+29	; 0x1d
     cce:	8e 8d       	ldd	r24, Y+30	; 0x1e
     cd0:	27 2f       	mov	r18, r23
     cd2:	36 2f       	mov	r19, r22
     cd4:	49 2f       	mov	r20, r25
     cd6:	58 2f       	mov	r21, r24
     cd8:	be a1       	ldd	r27, Y+38	; 0x26
     cda:	af a1       	ldd	r26, Y+39	; 0x27
     cdc:	e8 a5       	ldd	r30, Y+40	; 0x28
     cde:	6b 2f       	mov	r22, r27
     ce0:	7a 2f       	mov	r23, r26
     ce2:	8e 2f       	mov	r24, r30
     ce4:	91 2f       	mov	r25, r17
     ce6:	0e 94 2b 16 	call	0x2c56	; 0x2c56 <__mulsf3>
     cea:	9b 01       	movw	r18, r22
     cec:	ac 01       	movw	r20, r24
     cee:	6e a5       	ldd	r22, Y+46	; 0x2e
     cf0:	7f a5       	ldd	r23, Y+47	; 0x2f
     cf2:	88 a9       	ldd	r24, Y+48	; 0x30
     cf4:	99 a9       	ldd	r25, Y+49	; 0x31
     cf6:	0e 94 e6 13 	call	0x27cc	; 0x27cc <__addsf3>
     cfa:	60 93 16 02 	sts	0x0216, r22
     cfe:	70 93 17 02 	sts	0x0217, r23
     d02:	80 93 18 02 	sts	0x0218, r24
     d06:	90 93 19 02 	sts	0x0219, r25
				P_00_Theta -= K_0_Theta * P_00_Theta;
     d0a:	99 8d       	ldd	r25, Y+25	; 0x19
     d0c:	8a 8d       	ldd	r24, Y+26	; 0x1a
     d0e:	23 2d       	mov	r18, r3
     d10:	32 2d       	mov	r19, r2
     d12:	49 2f       	mov	r20, r25
     d14:	58 2f       	mov	r21, r24
     d16:	bb 85       	ldd	r27, Y+11	; 0x0b
     d18:	ac 85       	ldd	r26, Y+12	; 0x0c
     d1a:	ed 85       	ldd	r30, Y+13	; 0x0d
     d1c:	1e 85       	ldd	r17, Y+14	; 0x0e
     d1e:	6b 2f       	mov	r22, r27
     d20:	7a 2f       	mov	r23, r26
     d22:	8e 2f       	mov	r24, r30
     d24:	91 2f       	mov	r25, r17
     d26:	0e 94 2b 16 	call	0x2c56	; 0x2c56 <__mulsf3>
     d2a:	9b 01       	movw	r18, r22
     d2c:	ac 01       	movw	r20, r24
     d2e:	bb 85       	ldd	r27, Y+11	; 0x0b
     d30:	ac 85       	ldd	r26, Y+12	; 0x0c
     d32:	ed 85       	ldd	r30, Y+13	; 0x0d
     d34:	6b 2f       	mov	r22, r27
     d36:	7a 2f       	mov	r23, r26
     d38:	8e 2f       	mov	r24, r30
     d3a:	91 2f       	mov	r25, r17
     d3c:	0e 94 e5 13 	call	0x27ca	; 0x27ca <__subsf3>
     d40:	66 2e       	mov	r6, r22
     d42:	77 2e       	mov	r7, r23
     d44:	18 2f       	mov	r17, r24
     d46:	09 2f       	mov	r16, r25
     d48:	86 2f       	mov	r24, r22
     d4a:	97 2d       	mov	r25, r7
     d4c:	a1 2f       	mov	r26, r17
     d4e:	b0 2f       	mov	r27, r16
     d50:	80 93 0f 05 	sts	0x050F, r24
     d54:	90 93 10 05 	sts	0x0510, r25
     d58:	a0 93 11 05 	sts	0x0511, r26
     d5c:	b0 93 12 05 	sts	0x0512, r27
				P_01_Theta -= K_0_Theta * P_01_Theta;
     d60:	99 8d       	ldd	r25, Y+25	; 0x19
     d62:	8a 8d       	ldd	r24, Y+26	; 0x1a
     d64:	23 2d       	mov	r18, r3
     d66:	32 2d       	mov	r19, r2
     d68:	49 2f       	mov	r20, r25
     d6a:	58 2f       	mov	r21, r24
     d6c:	b9 81       	ldd	r27, Y+1	; 0x01
     d6e:	af 85       	ldd	r26, Y+15	; 0x0f
     d70:	b8 88       	ldd	r11, Y+16	; 0x10
     d72:	a9 88       	ldd	r10, Y+17	; 0x11
     d74:	6b 2f       	mov	r22, r27
     d76:	7a 2f       	mov	r23, r26
     d78:	8b 2d       	mov	r24, r11
     d7a:	9a 2d       	mov	r25, r10
     d7c:	0e 94 2b 16 	call	0x2c56	; 0x2c56 <__mulsf3>
     d80:	9b 01       	movw	r18, r22
     d82:	ac 01       	movw	r20, r24
     d84:	b9 81       	ldd	r27, Y+1	; 0x01
     d86:	af 85       	ldd	r26, Y+15	; 0x0f
     d88:	6b 2f       	mov	r22, r27
     d8a:	7a 2f       	mov	r23, r26
     d8c:	8b 2d       	mov	r24, r11
     d8e:	9a 2d       	mov	r25, r10
     d90:	0e 94 e5 13 	call	0x27ca	; 0x27ca <__subsf3>
     d94:	b6 2e       	mov	r11, r22
     d96:	a7 2e       	mov	r10, r23
     d98:	98 2e       	mov	r9, r24
     d9a:	89 2e       	mov	r8, r25
     d9c:	86 2f       	mov	r24, r22
     d9e:	9a 2d       	mov	r25, r10
     da0:	a9 2d       	mov	r26, r9
     da2:	b8 2d       	mov	r27, r8
     da4:	80 93 f2 04 	sts	0x04F2, r24
     da8:	90 93 f3 04 	sts	0x04F3, r25
     dac:	a0 93 f4 04 	sts	0x04F4, r26
     db0:	b0 93 f5 04 	sts	0x04F5, r27
				P_10_Theta -= K_1_Theta * P_00_Theta;
     db4:	26 2d       	mov	r18, r6
     db6:	37 2d       	mov	r19, r7
     db8:	41 2f       	mov	r20, r17
     dba:	50 2f       	mov	r21, r16
     dbc:	bb 8d       	ldd	r27, Y+27	; 0x1b
     dbe:	ac 8d       	ldd	r26, Y+28	; 0x1c
     dc0:	ed 8d       	ldd	r30, Y+29	; 0x1d
     dc2:	1e 8d       	ldd	r17, Y+30	; 0x1e
     dc4:	6b 2f       	mov	r22, r27
     dc6:	7a 2f       	mov	r23, r26
     dc8:	8e 2f       	mov	r24, r30
     dca:	91 2f       	mov	r25, r17
     dcc:	0e 94 2b 16 	call	0x2c56	; 0x2c56 <__mulsf3>
     dd0:	9b 01       	movw	r18, r22
     dd2:	ac 01       	movw	r20, r24
     dd4:	b9 81       	ldd	r27, Y+1	; 0x01
     dd6:	af 85       	ldd	r26, Y+15	; 0x0f
     dd8:	e8 89       	ldd	r30, Y+16	; 0x10
     dda:	19 89       	ldd	r17, Y+17	; 0x11
     ddc:	6b 2f       	mov	r22, r27
     dde:	7a 2f       	mov	r23, r26
     de0:	8e 2f       	mov	r24, r30
     de2:	91 2f       	mov	r25, r17
     de4:	0e 94 e5 13 	call	0x27ca	; 0x27ca <__subsf3>
     de8:	60 93 fe 04 	sts	0x04FE, r22
     dec:	70 93 ff 04 	sts	0x04FF, r23
     df0:	80 93 00 05 	sts	0x0500, r24
     df4:	90 93 01 05 	sts	0x0501, r25
				Theta += sample_time * (q_filt-q_bias);
				
				P_00_Theta +=  - sample_time * ((P_10_Theta + P_01_Theta) - Q_angle);
				P_01_Theta +=  - sample_time * P_11_Theta;
				P_10_Theta = P_01_Theta;
				P_11_Theta +=  + Q_gyro * sample_time;
     df8:	7e ad       	ldd	r23, Y+62	; 0x3e
     dfa:	6f ad       	ldd	r22, Y+63	; 0x3f
     dfc:	21 96       	adiw	r28, 0x01	; 1
     dfe:	9f ad       	ldd	r25, Y+63	; 0x3f
     e00:	21 97       	sbiw	r28, 0x01	; 1
     e02:	22 96       	adiw	r28, 0x02	; 2
     e04:	8f ad       	ldd	r24, Y+63	; 0x3f
     e06:	22 97       	sbiw	r28, 0x02	; 2
     e08:	27 2f       	mov	r18, r23
     e0a:	36 2f       	mov	r19, r22
     e0c:	49 2f       	mov	r20, r25
     e0e:	58 2f       	mov	r21, r24
     e10:	6a a9       	ldd	r22, Y+50	; 0x32
     e12:	7b a9       	ldd	r23, Y+51	; 0x33
     e14:	8c a9       	ldd	r24, Y+52	; 0x34
     e16:	9d a9       	ldd	r25, Y+53	; 0x35
     e18:	0e 94 e6 13 	call	0x27cc	; 0x27cc <__addsf3>
     e1c:	2b 01       	movw	r4, r22
     e1e:	3c 01       	movw	r6, r24
				Theta +=  K_0_Theta * Theta_temp;
				q_bias  +=  K_1_Theta * Theta_temp;
				P_00_Theta -= K_0_Theta * P_00_Theta;
				P_01_Theta -= K_0_Theta * P_01_Theta;
				P_10_Theta -= K_1_Theta * P_00_Theta;
				P_11_Theta -= K_1_Theta * P_01_Theta;
     e20:	2b 2d       	mov	r18, r11
     e22:	3a 2d       	mov	r19, r10
     e24:	49 2d       	mov	r20, r9
     e26:	58 2d       	mov	r21, r8
     e28:	bb 8d       	ldd	r27, Y+27	; 0x1b
     e2a:	ac 8d       	ldd	r26, Y+28	; 0x1c
     e2c:	ed 8d       	ldd	r30, Y+29	; 0x1d
     e2e:	1e 8d       	ldd	r17, Y+30	; 0x1e
     e30:	6b 2f       	mov	r22, r27
     e32:	7a 2f       	mov	r23, r26
     e34:	8e 2f       	mov	r24, r30
     e36:	91 2f       	mov	r25, r17
     e38:	0e 94 2b 16 	call	0x2c56	; 0x2c56 <__mulsf3>
     e3c:	9b 01       	movw	r18, r22
     e3e:	ac 01       	movw	r20, r24
     e40:	c3 01       	movw	r24, r6
     e42:	b2 01       	movw	r22, r4
     e44:	0e 94 e5 13 	call	0x27ca	; 0x27ca <__subsf3>
     e48:	60 93 12 02 	sts	0x0212, r22
     e4c:	70 93 13 02 	sts	0x0213, r23
     e50:	80 93 14 02 	sts	0x0214, r24
     e54:	90 93 15 02 	sts	0x0215, r25
				
				Phi +=  K_0_Phi * Phi_temp;
     e58:	79 85       	ldd	r23, Y+9	; 0x09
     e5a:	6f 8d       	ldd	r22, Y+31	; 0x1f
     e5c:	98 a1       	ldd	r25, Y+32	; 0x20
     e5e:	89 a1       	ldd	r24, Y+33	; 0x21
     e60:	27 2f       	mov	r18, r23
     e62:	36 2f       	mov	r19, r22
     e64:	49 2f       	mov	r20, r25
     e66:	58 2f       	mov	r21, r24
     e68:	ba a5       	ldd	r27, Y+42	; 0x2a
     e6a:	ab a5       	ldd	r26, Y+43	; 0x2b
     e6c:	ec a5       	ldd	r30, Y+44	; 0x2c
     e6e:	1d a5       	ldd	r17, Y+45	; 0x2d
     e70:	6b 2f       	mov	r22, r27
     e72:	7a 2f       	mov	r23, r26
     e74:	8e 2f       	mov	r24, r30
     e76:	91 2f       	mov	r25, r17
     e78:	0e 94 2b 16 	call	0x2c56	; 0x2c56 <__mulsf3>
     e7c:	9b 01       	movw	r18, r22
     e7e:	ac 01       	movw	r20, r24
     e80:	c7 01       	movw	r24, r14
     e82:	b6 01       	movw	r22, r12
     e84:	0e 94 e6 13 	call	0x27cc	; 0x27cc <__addsf3>
     e88:	0e 94 18 15 	call	0x2a30	; 0x2a30 <__fixsfsi>
     e8c:	70 93 36 02 	sts	0x0236, r23
     e90:	60 93 35 02 	sts	0x0235, r22
				p_bias  +=  K_1_Phi * Phi_temp;
     e94:	7a a1       	ldd	r23, Y+34	; 0x22
     e96:	6b a1       	ldd	r22, Y+35	; 0x23
     e98:	9c a1       	ldd	r25, Y+36	; 0x24
     e9a:	8d a1       	ldd	r24, Y+37	; 0x25
     e9c:	27 2f       	mov	r18, r23
     e9e:	36 2f       	mov	r19, r22
     ea0:	49 2f       	mov	r20, r25
     ea2:	58 2f       	mov	r21, r24
     ea4:	ba a5       	ldd	r27, Y+42	; 0x2a
     ea6:	ab a5       	ldd	r26, Y+43	; 0x2b
     ea8:	ec a5       	ldd	r30, Y+44	; 0x2c
     eaa:	6b 2f       	mov	r22, r27
     eac:	7a 2f       	mov	r23, r26
     eae:	8e 2f       	mov	r24, r30
     eb0:	91 2f       	mov	r25, r17
     eb2:	0e 94 2b 16 	call	0x2c56	; 0x2c56 <__mulsf3>
     eb6:	9b 01       	movw	r18, r22
     eb8:	ac 01       	movw	r20, r24
     eba:	6e a9       	ldd	r22, Y+54	; 0x36
     ebc:	7f a9       	ldd	r23, Y+55	; 0x37
     ebe:	88 ad       	ldd	r24, Y+56	; 0x38
     ec0:	99 ad       	ldd	r25, Y+57	; 0x39
     ec2:	0e 94 e6 13 	call	0x27cc	; 0x27cc <__addsf3>
     ec6:	60 93 0a 02 	sts	0x020A, r22
     eca:	70 93 0b 02 	sts	0x020B, r23
     ece:	80 93 0c 02 	sts	0x020C, r24
     ed2:	90 93 0d 02 	sts	0x020D, r25
				P_00_Phi -= K_0_Phi * P_00_Phi;
     ed6:	79 85       	ldd	r23, Y+9	; 0x09
     ed8:	6f 8d       	ldd	r22, Y+31	; 0x1f
     eda:	98 a1       	ldd	r25, Y+32	; 0x20
     edc:	89 a1       	ldd	r24, Y+33	; 0x21
     ede:	27 2f       	mov	r18, r23
     ee0:	36 2f       	mov	r19, r22
     ee2:	49 2f       	mov	r20, r25
     ee4:	58 2f       	mov	r21, r24
     ee6:	bd 81       	ldd	r27, Y+5	; 0x05
     ee8:	aa 89       	ldd	r26, Y+18	; 0x12
     eea:	eb 89       	ldd	r30, Y+19	; 0x13
     eec:	1c 89       	ldd	r17, Y+20	; 0x14
     eee:	6b 2f       	mov	r22, r27
     ef0:	7a 2f       	mov	r23, r26
     ef2:	8e 2f       	mov	r24, r30
     ef4:	91 2f       	mov	r25, r17
     ef6:	0e 94 2b 16 	call	0x2c56	; 0x2c56 <__mulsf3>
     efa:	9b 01       	movw	r18, r22
     efc:	ac 01       	movw	r20, r24
     efe:	bd 81       	ldd	r27, Y+5	; 0x05
     f00:	aa 89       	ldd	r26, Y+18	; 0x12
     f02:	eb 89       	ldd	r30, Y+19	; 0x13
     f04:	6b 2f       	mov	r22, r27
     f06:	7a 2f       	mov	r23, r26
     f08:	8e 2f       	mov	r24, r30
     f0a:	91 2f       	mov	r25, r17
     f0c:	0e 94 e5 13 	call	0x27ca	; 0x27ca <__subsf3>
     f10:	06 2f       	mov	r16, r22
     f12:	17 2f       	mov	r17, r23
     f14:	a8 2e       	mov	r10, r24
     f16:	b9 2e       	mov	r11, r25
     f18:	86 2f       	mov	r24, r22
     f1a:	91 2f       	mov	r25, r17
     f1c:	aa 2d       	mov	r26, r10
     f1e:	bb 2d       	mov	r27, r11
     f20:	80 93 e4 04 	sts	0x04E4, r24
     f24:	90 93 e5 04 	sts	0x04E5, r25
     f28:	a0 93 e6 04 	sts	0x04E6, r26
     f2c:	b0 93 e7 04 	sts	0x04E7, r27
				P_01_Phi -= K_0_Phi * P_01_Phi;
     f30:	79 85       	ldd	r23, Y+9	; 0x09
     f32:	6f 8d       	ldd	r22, Y+31	; 0x1f
     f34:	98 a1       	ldd	r25, Y+32	; 0x20
     f36:	89 a1       	ldd	r24, Y+33	; 0x21
     f38:	27 2f       	mov	r18, r23
     f3a:	36 2f       	mov	r19, r22
     f3c:	49 2f       	mov	r20, r25
     f3e:	58 2f       	mov	r21, r24
     f40:	bd 89       	ldd	r27, Y+21	; 0x15
     f42:	ae 89       	ldd	r26, Y+22	; 0x16
     f44:	ff 88       	ldd	r15, Y+23	; 0x17
     f46:	e8 8c       	ldd	r14, Y+24	; 0x18
     f48:	6b 2f       	mov	r22, r27
     f4a:	7a 2f       	mov	r23, r26
     f4c:	8f 2d       	mov	r24, r15
     f4e:	9e 2d       	mov	r25, r14
     f50:	0e 94 2b 16 	call	0x2c56	; 0x2c56 <__mulsf3>
     f54:	9b 01       	movw	r18, r22
     f56:	ac 01       	movw	r20, r24
     f58:	bd 89       	ldd	r27, Y+21	; 0x15
     f5a:	ae 89       	ldd	r26, Y+22	; 0x16
     f5c:	6b 2f       	mov	r22, r27
     f5e:	7a 2f       	mov	r23, r26
     f60:	8f 2d       	mov	r24, r15
     f62:	9e 2d       	mov	r25, r14
     f64:	0e 94 e5 13 	call	0x27ca	; 0x27ca <__subsf3>
     f68:	c6 2e       	mov	r12, r22
     f6a:	d7 2e       	mov	r13, r23
     f6c:	e8 2e       	mov	r14, r24
     f6e:	f9 2e       	mov	r15, r25
     f70:	86 2f       	mov	r24, r22
     f72:	9d 2d       	mov	r25, r13
     f74:	ae 2d       	mov	r26, r14
     f76:	bf 2d       	mov	r27, r15
     f78:	80 93 33 05 	sts	0x0533, r24
     f7c:	90 93 34 05 	sts	0x0534, r25
     f80:	a0 93 35 05 	sts	0x0535, r26
     f84:	b0 93 36 05 	sts	0x0536, r27
				P_10_Phi -= K_1_Phi * P_00_Phi;
     f88:	20 2f       	mov	r18, r16
     f8a:	31 2f       	mov	r19, r17
     f8c:	4a 2d       	mov	r20, r10
     f8e:	5b 2d       	mov	r21, r11
     f90:	ba a1       	ldd	r27, Y+34	; 0x22
     f92:	ab a1       	ldd	r26, Y+35	; 0x23
     f94:	ec a1       	ldd	r30, Y+36	; 0x24
     f96:	1d a1       	ldd	r17, Y+37	; 0x25
     f98:	6b 2f       	mov	r22, r27
     f9a:	7a 2f       	mov	r23, r26
     f9c:	8e 2f       	mov	r24, r30
     f9e:	91 2f       	mov	r25, r17
     fa0:	0e 94 2b 16 	call	0x2c56	; 0x2c56 <__mulsf3>
     fa4:	9b 01       	movw	r18, r22
     fa6:	ac 01       	movw	r20, r24
     fa8:	bd 89       	ldd	r27, Y+21	; 0x15
     faa:	ae 89       	ldd	r26, Y+22	; 0x16
     fac:	ef 89       	ldd	r30, Y+23	; 0x17
     fae:	18 8d       	ldd	r17, Y+24	; 0x18
     fb0:	6b 2f       	mov	r22, r27
     fb2:	7a 2f       	mov	r23, r26
     fb4:	8e 2f       	mov	r24, r30
     fb6:	91 2f       	mov	r25, r17
     fb8:	0e 94 e5 13 	call	0x27ca	; 0x27ca <__subsf3>
     fbc:	60 93 2f 05 	sts	0x052F, r22
     fc0:	70 93 30 05 	sts	0x0530, r23
     fc4:	80 93 31 05 	sts	0x0531, r24
     fc8:	90 93 32 05 	sts	0x0532, r25
				
				Phi += sample_time * (p_filt-p_bias);
				P_00_Phi +=  - sample_time * ((P_10_Phi + P_01_Phi) - Q_angle);
				P_01_Phi +=  - sample_time * P_11_Phi;
				P_10_Phi = P_01_Phi;
				P_11_Phi +=  + Q_gyro * sample_time;
     fcc:	2a ad       	ldd	r18, Y+58	; 0x3a
     fce:	3b ad       	ldd	r19, Y+59	; 0x3b
     fd0:	4c ad       	ldd	r20, Y+60	; 0x3c
     fd2:	5d ad       	ldd	r21, Y+61	; 0x3d
     fd4:	be ad       	ldd	r27, Y+62	; 0x3e
     fd6:	af ad       	ldd	r26, Y+63	; 0x3f
     fd8:	21 96       	adiw	r28, 0x01	; 1
     fda:	ef ad       	ldd	r30, Y+63	; 0x3f
     fdc:	21 97       	sbiw	r28, 0x01	; 1
     fde:	22 96       	adiw	r28, 0x02	; 2
     fe0:	1f ad       	ldd	r17, Y+63	; 0x3f
     fe2:	22 97       	sbiw	r28, 0x02	; 2
     fe4:	6b 2f       	mov	r22, r27
     fe6:	7a 2f       	mov	r23, r26
     fe8:	8e 2f       	mov	r24, r30
     fea:	91 2f       	mov	r25, r17
     fec:	0e 94 e6 13 	call	0x27cc	; 0x27cc <__addsf3>
     ff0:	4b 01       	movw	r8, r22
     ff2:	5c 01       	movw	r10, r24
				Phi +=  K_0_Phi * Phi_temp;
				p_bias  +=  K_1_Phi * Phi_temp;
				P_00_Phi -= K_0_Phi * P_00_Phi;
				P_01_Phi -= K_0_Phi * P_01_Phi;
				P_10_Phi -= K_1_Phi * P_00_Phi;
				P_11_Phi -= K_1_Phi * P_01_Phi;
     ff4:	2c 2d       	mov	r18, r12
     ff6:	3d 2d       	mov	r19, r13
     ff8:	4e 2d       	mov	r20, r14
     ffa:	5f 2d       	mov	r21, r15
     ffc:	fa a1       	ldd	r31, Y+34	; 0x22
     ffe:	eb a1       	ldd	r30, Y+35	; 0x23
    1000:	ac a1       	ldd	r26, Y+36	; 0x24
    1002:	1d a1       	ldd	r17, Y+37	; 0x25
    1004:	6f 2f       	mov	r22, r31
    1006:	7e 2f       	mov	r23, r30
    1008:	8a 2f       	mov	r24, r26
    100a:	91 2f       	mov	r25, r17
    100c:	0e 94 2b 16 	call	0x2c56	; 0x2c56 <__mulsf3>
    1010:	9b 01       	movw	r18, r22
    1012:	ac 01       	movw	r20, r24
    1014:	c5 01       	movw	r24, r10
    1016:	b4 01       	movw	r22, r8
    1018:	0e 94 e5 13 	call	0x27ca	; 0x27ca <__subsf3>
    101c:	60 93 06 02 	sts	0x0206, r22
    1020:	70 93 07 02 	sts	0x0207, r23
    1024:	80 93 08 02 	sts	0x0208, r24
    1028:	90 93 09 02 	sts	0x0209, r25
				//******************************************
				// Detecting current position and current heading from GPS reading
				
				//GPS_POS_CURRENT_Y = "123456";
							
				GPS_POS_CURRENT_X = atol_new(GPS_RMC[GPS_RMC_LONGITUDE]);
    102c:	83 e9       	ldi	r24, 0x93	; 147
    102e:	92 e0       	ldi	r25, 0x02	; 2
    1030:	0e 94 28 03 	call	0x650	; 0x650 <atol_new>
    1034:	60 93 1e 05 	sts	0x051E, r22
    1038:	70 93 1f 05 	sts	0x051F, r23
    103c:	80 93 20 05 	sts	0x0520, r24
    1040:	90 93 21 05 	sts	0x0521, r25
				GPS_POS_CURRENT_Y = atol_new(GPS_RMC[GPS_RMC_LATITUDE]);
    1044:	8d e7       	ldi	r24, 0x7D	; 125
    1046:	92 e0       	ldi	r25, 0x02	; 2
    1048:	0e 94 28 03 	call	0x650	; 0x650 <atol_new>
    104c:	60 93 0a 05 	sts	0x050A, r22
    1050:	70 93 0b 05 	sts	0x050B, r23
    1054:	80 93 0c 05 	sts	0x050C, r24
    1058:	90 93 0d 05 	sts	0x050D, r25
				
				heading_GPS = atol_new(GPS_RMC[GPS_RMC_PATH])/100;	// divided by 100 as decimals are provided by GPS
    105c:	84 eb       	ldi	r24, 0xB4	; 180
    105e:	92 e0       	ldi	r25, 0x02	; 2
    1060:	0e 94 28 03 	call	0x650	; 0x650 <atol_new>
    1064:	24 e6       	ldi	r18, 0x64	; 100
    1066:	30 e0       	ldi	r19, 0x00	; 0
    1068:	40 e0       	ldi	r20, 0x00	; 0
    106a:	50 e0       	ldi	r21, 0x00	; 0
    106c:	0e 94 e8 16 	call	0x2dd0	; 0x2dd0 <__udivmodsi4>
    1070:	30 93 01 02 	sts	0x0201, r19
    1074:	20 93 00 02 	sts	0x0200, r18
				   |	  '		 |			 |		'	   |
				   |  0			 |			 |			 0 |
				   |_____________|			 |_____________|
				
				*/
				if ((ctrl_in[stick_l_up_down]    <	110) &&		// limit down left stick
    1078:	e8 ed       	ldi	r30, 0xD8	; 216
    107a:	f1 e0       	ldi	r31, 0x01	; 1
    107c:	80 81       	ld	r24, Z
    107e:	91 81       	ldd	r25, Z+1	; 0x01
    1080:	8e 36       	cpi	r24, 0x6E	; 110
    1082:	91 05       	cpc	r25, r1
    1084:	0c f0       	brlt	.+2      	; 0x1088 <__stack+0x829>
    1086:	7a c0       	rjmp	.+244    	; 0x117c <__stack+0x91d>
					(ctrl_in[stick_l_left_right] >	175) &&		// limit left left stick
    1088:	80 91 de 01 	lds	r24, 0x01DE
    108c:	90 91 df 01 	lds	r25, 0x01DF
				   |	  '		 |			 |		'	   |
				   |  0			 |			 |			 0 |
				   |_____________|			 |_____________|
				
				*/
				if ((ctrl_in[stick_l_up_down]    <	110) &&		// limit down left stick
    1090:	80 3b       	cpi	r24, 0xB0	; 176
    1092:	91 05       	cpc	r25, r1
    1094:	0c f4       	brge	.+2      	; 0x1098 <__stack+0x839>
    1096:	72 c0       	rjmp	.+228    	; 0x117c <__stack+0x91d>
					(ctrl_in[stick_l_left_right] >	175) &&		// limit left left stick
					(ctrl_in[stick_r_up_down]	>	170) &&		// limit down right stick
    1098:	ac ed       	ldi	r26, 0xDC	; 220
    109a:	b1 e0       	ldi	r27, 0x01	; 1
    109c:	8d 91       	ld	r24, X+
    109e:	9c 91       	ld	r25, X
				   |  0			 |			 |			 0 |
				   |_____________|			 |_____________|
				
				*/
				if ((ctrl_in[stick_l_up_down]    <	110) &&		// limit down left stick
					(ctrl_in[stick_l_left_right] >	175) &&		// limit left left stick
    10a0:	8b 3a       	cpi	r24, 0xAB	; 171
    10a2:	91 05       	cpc	r25, r1
    10a4:	0c f4       	brge	.+2      	; 0x10a8 <__stack+0x849>
    10a6:	6a c0       	rjmp	.+212    	; 0x117c <__stack+0x91d>
					(ctrl_in[stick_r_up_down]	>	170) &&		// limit down right stick
					(ctrl_in[stick_r_left_right] >	170)) 		// limit right right stick
    10a8:	ea ed       	ldi	r30, 0xDA	; 218
    10aa:	f1 e0       	ldi	r31, 0x01	; 1
    10ac:	80 81       	ld	r24, Z
    10ae:	91 81       	ldd	r25, Z+1	; 0x01
				   |_____________|			 |_____________|
				
				*/
				if ((ctrl_in[stick_l_up_down]    <	110) &&		// limit down left stick
					(ctrl_in[stick_l_left_right] >	175) &&		// limit left left stick
					(ctrl_in[stick_r_up_down]	>	170) &&		// limit down right stick
    10b0:	8b 3a       	cpi	r24, 0xAB	; 171
    10b2:	91 05       	cpc	r25, r1
    10b4:	0c f4       	brge	.+2      	; 0x10b8 <__stack+0x859>
    10b6:	62 c0       	rjmp	.+196    	; 0x117c <__stack+0x91d>
					(ctrl_in[stick_r_left_right] >	170)) 		// limit right right stick
				{
					if (GPS_home_set == FALSE && GPS_home_comm == FALSE)
    10b8:	80 91 f7 01 	lds	r24, 0x01F7
    10bc:	81 11       	cpse	r24, r1
    10be:	3e c0       	rjmp	.+124    	; 0x113c <__stack+0x8dd>
    10c0:	80 91 f6 01 	lds	r24, 0x01F6
    10c4:	81 11       	cpse	r24, r1
    10c6:	5c c0       	rjmp	.+184    	; 0x1180 <__stack+0x921>
					{
					GPS_home_comm = TRUE;
    10c8:	81 e0       	ldi	r24, 0x01	; 1
    10ca:	80 93 f6 01 	sts	0x01F6, r24
					GPS_home_set = TRUE;
    10ce:	80 93 f7 01 	sts	0x01F7, r24
					GPS_POS_HOME_X = atol_new(GPS_RMC[GPS_RMC_LONGITUDE]);
    10d2:	83 e9       	ldi	r24, 0x93	; 147
    10d4:	92 e0       	ldi	r25, 0x02	; 2
    10d6:	0e 94 28 03 	call	0x650	; 0x650 <atol_new>
    10da:	60 93 c6 04 	sts	0x04C6, r22
    10de:	70 93 c7 04 	sts	0x04C7, r23
    10e2:	80 93 c8 04 	sts	0x04C8, r24
    10e6:	90 93 c9 04 	sts	0x04C9, r25
					GPS_POS_HOME_Y = atol_new(GPS_RMC[GPS_RMC_LATITUDE]);
    10ea:	8d e7       	ldi	r24, 0x7D	; 125
    10ec:	92 e0       	ldi	r25, 0x02	; 2
    10ee:	0e 94 28 03 	call	0x650	; 0x650 <atol_new>
    10f2:	60 93 ea 04 	sts	0x04EA, r22
    10f6:	70 93 eb 04 	sts	0x04EB, r23
    10fa:	80 93 ec 04 	sts	0x04EC, r24
    10fe:	90 93 ed 04 	sts	0x04ED, r25
					write_string("Home Set Lat ");write_var(GPS_POS_HOME_Y);write_string(" Long ");write_var_ln(GPS_POS_HOME_X);
    1102:	8a ee       	ldi	r24, 0xEA	; 234
    1104:	90 e0       	ldi	r25, 0x00	; 0
    1106:	0e 94 67 13 	call	0x26ce	; 0x26ce <write_string>
    110a:	60 91 ea 04 	lds	r22, 0x04EA
    110e:	70 91 eb 04 	lds	r23, 0x04EB
    1112:	80 91 ec 04 	lds	r24, 0x04EC
    1116:	90 91 ed 04 	lds	r25, 0x04ED
    111a:	0e 94 8b 13 	call	0x2716	; 0x2716 <write_var>
    111e:	88 ef       	ldi	r24, 0xF8	; 248
    1120:	90 e0       	ldi	r25, 0x00	; 0
    1122:	0e 94 67 13 	call	0x26ce	; 0x26ce <write_string>
    1126:	60 91 c6 04 	lds	r22, 0x04C6
    112a:	70 91 c7 04 	lds	r23, 0x04C7
    112e:	80 91 c8 04 	lds	r24, 0x04C8
    1132:	90 91 c9 04 	lds	r25, 0x04C9
    1136:	0e 94 a9 13 	call	0x2752	; 0x2752 <write_var_ln>
    113a:	22 c0       	rjmp	.+68     	; 0x1180 <__stack+0x921>
// 					GPS_POS_GOAL_WP[WP4][WPX] = GPS_POS_HOME_X;					// WP4 -> X Position		|
// 					GPS_POS_GOAL_WP[WP4][WPY] = GPS_POS_HOME_Y-8335;			// WP4 -> Y Position		|	WP4 = SOUTH of HOME Pos
// 					GPS_POS_GOAL_WP[WP5][WPX] = GPS_POS_HOME_X;	// SPARE
// 					GPS_POS_GOAL_WP[WP5][WPY] = GPS_POS_HOME_Y;	// SPARE
					}
					else if(GPS_home_set == TRUE && GPS_home_comm == FALSE)
    113c:	81 30       	cpi	r24, 0x01	; 1
    113e:	01 f5       	brne	.+64     	; 0x1180 <__stack+0x921>
    1140:	80 91 f6 01 	lds	r24, 0x01F6
    1144:	81 11       	cpse	r24, r1
    1146:	1c c0       	rjmp	.+56     	; 0x1180 <__stack+0x921>
					{
						GPS_home_comm = TRUE;
    1148:	81 e0       	ldi	r24, 0x01	; 1
    114a:	80 93 f6 01 	sts	0x01F6, r24
						GPS_home_set = FALSE;
    114e:	10 92 f7 01 	sts	0x01F7, r1
						GPS_POS_HOME_X = 0;
    1152:	10 92 c6 04 	sts	0x04C6, r1
    1156:	10 92 c7 04 	sts	0x04C7, r1
    115a:	10 92 c8 04 	sts	0x04C8, r1
    115e:	10 92 c9 04 	sts	0x04C9, r1
						GPS_POS_HOME_Y = 0;
    1162:	10 92 ea 04 	sts	0x04EA, r1
    1166:	10 92 eb 04 	sts	0x04EB, r1
    116a:	10 92 ec 04 	sts	0x04EC, r1
    116e:	10 92 ed 04 	sts	0x04ED, r1
						write_string_ln("Home Set Cleared ");
    1172:	8f ef       	ldi	r24, 0xFF	; 255
    1174:	90 e0       	ldi	r25, 0x00	; 0
    1176:	0e 94 77 13 	call	0x26ee	; 0x26ee <write_string_ln>
    117a:	02 c0       	rjmp	.+4      	; 0x1180 <__stack+0x921>
					}
				}
				else GPS_home_comm = FALSE;	
    117c:	10 92 f6 01 	sts	0x01F6, r1
				write_var(ctrl_in[stick_l_up_down]);write_string(";");
				write_var(ctrl_in[stick_l_left_right]);write_string(";");
				write_var(ctrl_in[stick_r_up_down]);write_string(";");
				write_var(ctrl_in[stick_r_left_right]);write_string_ln(";");
				*/
				if ((ctrl_in[stick_l_up_down]    <	130) &&		// limit down left stick
    1180:	a8 ed       	ldi	r26, 0xD8	; 216
    1182:	b1 e0       	ldi	r27, 0x01	; 1
    1184:	8d 91       	ld	r24, X+
    1186:	9c 91       	ld	r25, X
    1188:	82 38       	cpi	r24, 0x82	; 130
    118a:	91 05       	cpc	r25, r1
    118c:	84 f5       	brge	.+96     	; 0x11ee <__stack+0x98f>
					(ctrl_in[stick_l_left_right] >	155) &&		// limit left left stick
    118e:	80 91 de 01 	lds	r24, 0x01DE
    1192:	90 91 df 01 	lds	r25, 0x01DF
				write_var(ctrl_in[stick_l_up_down]);write_string(";");
				write_var(ctrl_in[stick_l_left_right]);write_string(";");
				write_var(ctrl_in[stick_r_up_down]);write_string(";");
				write_var(ctrl_in[stick_r_left_right]);write_string_ln(";");
				*/
				if ((ctrl_in[stick_l_up_down]    <	130) &&		// limit down left stick
    1196:	8c 39       	cpi	r24, 0x9C	; 156
    1198:	91 05       	cpc	r25, r1
    119a:	4c f1       	brlt	.+82     	; 0x11ee <__stack+0x98f>
					(ctrl_in[stick_l_left_right] >	155) &&		// limit left left stick
					(ctrl_in[stick_r_up_down]	<	130) &&		// limit up right stick
    119c:	ec ed       	ldi	r30, 0xDC	; 220
    119e:	f1 e0       	ldi	r31, 0x01	; 1
    11a0:	80 81       	ld	r24, Z
    11a2:	91 81       	ldd	r25, Z+1	; 0x01
				write_var(ctrl_in[stick_l_left_right]);write_string(";");
				write_var(ctrl_in[stick_r_up_down]);write_string(";");
				write_var(ctrl_in[stick_r_left_right]);write_string_ln(";");
				*/
				if ((ctrl_in[stick_l_up_down]    <	130) &&		// limit down left stick
					(ctrl_in[stick_l_left_right] >	155) &&		// limit left left stick
    11a4:	82 38       	cpi	r24, 0x82	; 130
    11a6:	91 05       	cpc	r25, r1
    11a8:	14 f5       	brge	.+68     	; 0x11ee <__stack+0x98f>
					(ctrl_in[stick_r_up_down]	<	130) &&		// limit up right stick
					(ctrl_in[stick_r_left_right] >	155))		// limit right right stick
    11aa:	aa ed       	ldi	r26, 0xDA	; 218
    11ac:	b1 e0       	ldi	r27, 0x01	; 1
    11ae:	8d 91       	ld	r24, X+
    11b0:	9c 91       	ld	r25, X
				write_var(ctrl_in[stick_r_up_down]);write_string(";");
				write_var(ctrl_in[stick_r_left_right]);write_string_ln(";");
				*/
				if ((ctrl_in[stick_l_up_down]    <	130) &&		// limit down left stick
					(ctrl_in[stick_l_left_right] >	155) &&		// limit left left stick
					(ctrl_in[stick_r_up_down]	<	130) &&		// limit up right stick
    11b2:	8c 39       	cpi	r24, 0x9C	; 156
    11b4:	91 05       	cpc	r25, r1
    11b6:	dc f0       	brlt	.+54     	; 0x11ee <__stack+0x98f>
					(ctrl_in[stick_r_left_right] >	155))		// limit right right stick
					{
						if (lights_enabled == FALSE && lights_commanded == FALSE)
    11b8:	80 91 f5 01 	lds	r24, 0x01F5
    11bc:	81 11       	cpse	r24, r1
    11be:	0a c0       	rjmp	.+20     	; 0x11d4 <__stack+0x975>
    11c0:	90 91 f4 01 	lds	r25, 0x01F4
    11c4:	91 11       	cpse	r25, r1
    11c6:	4c c0       	rjmp	.+152    	; 0x1260 <__stack+0xa01>
						{
							lights_commanded = TRUE;
    11c8:	81 e0       	ldi	r24, 0x01	; 1
    11ca:	80 93 f4 01 	sts	0x01F4, r24
							lights_enabled = TRUE;
    11ce:	80 93 f5 01 	sts	0x01F5, r24
    11d2:	13 c0       	rjmp	.+38     	; 0x11fa <__stack+0x99b>
						}
						else if (lights_enabled == TRUE && lights_commanded == FALSE)
    11d4:	81 30       	cpi	r24, 0x01	; 1
    11d6:	09 f0       	breq	.+2      	; 0x11da <__stack+0x97b>
    11d8:	43 c0       	rjmp	.+134    	; 0x1260 <__stack+0xa01>
    11da:	80 91 f4 01 	lds	r24, 0x01F4
    11de:	81 11       	cpse	r24, r1
    11e0:	0c c0       	rjmp	.+24     	; 0x11fa <__stack+0x99b>
						{
							lights_commanded = TRUE;
    11e2:	81 e0       	ldi	r24, 0x01	; 1
    11e4:	80 93 f4 01 	sts	0x01F4, r24
							lights_enabled = FALSE;
    11e8:	10 92 f5 01 	sts	0x01F5, r1
    11ec:	3b c0       	rjmp	.+118    	; 0x1264 <__stack+0xa05>
						}
					}
					else lights_commanded = FALSE;
    11ee:	10 92 f4 01 	sts	0x01F4, r1
				
				//lights_enabled = TRUE;
				if (lights_enabled == TRUE)
    11f2:	80 91 f5 01 	lds	r24, 0x01F5
    11f6:	81 30       	cpi	r24, 0x01	; 1
    11f8:	99 f5       	brne	.+102    	; 0x1260 <__stack+0xa01>
				{
					// Strobe light flash value
					uint8_t flash_value = 40;
					// Lights output:
					PORTD |= (1<<PD6);		// NAV LIGHTS ON
    11fa:	96 9a       	sbi	0x12, 6	; 18
					if ((flap_setpoint == FLAP_1)||(flap_setpoint == FLAP_FULL))
    11fc:	80 91 8b 00 	lds	r24, 0x008B
    1200:	90 91 8c 00 	lds	r25, 0x008C
    1204:	8c 36       	cpi	r24, 0x6C	; 108
    1206:	b7 e0       	ldi	r27, 0x07	; 7
    1208:	9b 07       	cpc	r25, r27
    120a:	19 f0       	breq	.+6      	; 0x1212 <__stack+0x9b3>
    120c:	8c 3f       	cpi	r24, 0xFC	; 252
    120e:	98 40       	sbci	r25, 0x08	; 8
    1210:	11 f4       	brne	.+4      	; 0x1216 <__stack+0x9b7>
					{
						PORTD |= (1<<PD5);		// LANDING LIGHTS ON
    1212:	95 9a       	sbi	0x12, 5	; 18
    1214:	01 c0       	rjmp	.+2      	; 0x1218 <__stack+0x9b9>
					}
					else PORTD &= ~(1<<PD5); // LANDING LIGHTS OFF
    1216:	95 98       	cbi	0x12, 5	; 18
					
					flash_count++;
    1218:	80 91 f3 01 	lds	r24, 0x01F3
    121c:	8f 5f       	subi	r24, 0xFF	; 255
    121e:	80 93 f3 01 	sts	0x01F3, r24
					if (flash_count == (flash_value/2))
    1222:	84 31       	cpi	r24, 0x14	; 20
    1224:	09 f4       	brne	.+2      	; 0x1228 <__stack+0x9c9>
					{
						// Red Engine Light
						PORTD |= (1<<PD7);	
    1226:	97 9a       	sbi	0x12, 7	; 18
					}
					if (flash_count == (flash_value/2)+2)
    1228:	80 91 f3 01 	lds	r24, 0x01F3
    122c:	86 31       	cpi	r24, 0x16	; 22
    122e:	09 f4       	brne	.+2      	; 0x1232 <__stack+0x9d3>
					{
						// Red Engine Light
						PORTD &= ~(1<<PD7);
    1230:	97 98       	cbi	0x12, 7	; 18
					}
					if (flash_count == flash_value)
    1232:	80 91 f3 01 	lds	r24, 0x01F3
    1236:	88 32       	cpi	r24, 0x28	; 40
    1238:	09 f4       	brne	.+2      	; 0x123c <__stack+0x9dd>
					{
						// Strobe On
						PORTD |= (1<<PD4);
    123a:	94 9a       	sbi	0x12, 4	; 18
					}
					if (flash_count == (flash_value+2))
    123c:	80 91 f3 01 	lds	r24, 0x01F3
    1240:	8a 32       	cpi	r24, 0x2A	; 42
    1242:	09 f4       	brne	.+2      	; 0x1246 <__stack+0x9e7>
					{
						// Strobe off
						PORTD &= ~(1<<PD4);
    1244:	94 98       	cbi	0x12, 4	; 18
					}
					if (flash_count == flash_value+6)
    1246:	80 91 f3 01 	lds	r24, 0x01F3
    124a:	8e 32       	cpi	r24, 0x2E	; 46
    124c:	09 f4       	brne	.+2      	; 0x1250 <__stack+0x9f1>
					{
						//Strobe on
						PORTD |= (1<<PD4);
    124e:	94 9a       	sbi	0x12, 4	; 18
					}
					if (flash_count == (flash_value+8))
    1250:	80 91 f3 01 	lds	r24, 0x01F3
    1254:	80 33       	cpi	r24, 0x30	; 48
    1256:	49 f4       	brne	.+18     	; 0x126a <__stack+0xa0b>
					{
						//Strobe off
						PORTD &= ~(1<<PD4);
    1258:	94 98       	cbi	0x12, 4	; 18
						flash_count = 0;
    125a:	10 92 f3 01 	sts	0x01F3, r1
    125e:	05 c0       	rjmp	.+10     	; 0x126a <__stack+0xa0b>
					}
					
				}
				else if(lights_enabled == FALSE)
    1260:	81 11       	cpse	r24, r1
    1262:	03 c0       	rjmp	.+6      	; 0x126a <__stack+0xa0b>
				{
					// Keep all LEDS off
					PORTD &= ~((1<<PD4)|(1<<PD5)|(1<<PD6)|(1<<PD7));
    1264:	82 b3       	in	r24, 0x12	; 18
    1266:	8f 70       	andi	r24, 0x0F	; 15
    1268:	82 bb       	out	0x12, r24	; 18
				
				
				//*******************************************
				// Control of Modes
				// changing from knob to normal switch for mode control
				if(ctrl_in[three_way_switch]>144) Ctrl_Mode = HOLD_CTRL;								// Dn Position
    126a:	a2 ee       	ldi	r26, 0xE2	; 226
    126c:	b1 e0       	ldi	r27, 0x01	; 1
    126e:	8d 91       	ld	r24, X+
    1270:	9c 91       	ld	r25, X
    1272:	81 39       	cpi	r24, 0x91	; 145
    1274:	91 05       	cpc	r25, r1
    1276:	24 f0       	brlt	.+8      	; 0x1280 <__stack+0xa21>
    1278:	83 e0       	ldi	r24, 0x03	; 3
    127a:	80 93 59 02 	sts	0x0259, r24
    127e:	12 c0       	rjmp	.+36     	; 0x12a4 <__stack+0xa45>
				else if (ctrl_in[three_way_switch] > 139 && ctrl_in[three_way_switch] < 144) Ctrl_Mode = DIRECT_CTRL;	// Middle Position
    1280:	e2 ee       	ldi	r30, 0xE2	; 226
    1282:	f1 e0       	ldi	r31, 0x01	; 1
    1284:	80 81       	ld	r24, Z
    1286:	91 81       	ldd	r25, Z+1	; 0x01
    1288:	8c 38       	cpi	r24, 0x8C	; 140
    128a:	91 05       	cpc	r25, r1
    128c:	44 f0       	brlt	.+16     	; 0x129e <__stack+0xa3f>
    128e:	80 81       	ld	r24, Z
    1290:	91 81       	ldd	r25, Z+1	; 0x01
    1292:	80 39       	cpi	r24, 0x90	; 144
    1294:	91 05       	cpc	r25, r1
    1296:	1c f4       	brge	.+6      	; 0x129e <__stack+0xa3f>
    1298:	10 92 59 02 	sts	0x0259, r1
    129c:	03 c0       	rjmp	.+6      	; 0x12a4 <__stack+0xa45>
				else Ctrl_Mode = DAMPED_CTRL;											// Up Position
    129e:	82 e0       	ldi	r24, 0x02	; 2
    12a0:	80 93 59 02 	sts	0x0259, r24
								
				if(Ctrl_Mode_prev != Ctrl_Mode)
    12a4:	80 91 59 02 	lds	r24, 0x0259
    12a8:	90 91 58 02 	lds	r25, 0x0258
    12ac:	98 17       	cp	r25, r24
    12ae:	21 f0       	breq	.+8      	; 0x12b8 <__stack+0xa59>
				{
					// If a state change happens
					state_change = TRUE;
    12b0:	91 e0       	ldi	r25, 0x01	; 1
    12b2:	90 93 57 02 	sts	0x0257, r25
    12b6:	02 c0       	rjmp	.+4      	; 0x12bc <__stack+0xa5d>
				}
				else
				{
					// Otherwise no state change
					state_change = FALSE;
    12b8:	10 92 57 02 	sts	0x0257, r1
				
				//******************************************						
				// use this flag to switch between long / lat tuning mode
				uint8_t mode = 2;
				
				switch(Ctrl_Mode)
    12bc:	82 30       	cpi	r24, 0x02	; 2
    12be:	09 f4       	brne	.+2      	; 0x12c2 <__stack+0xa63>
    12c0:	af c1       	rjmp	.+862    	; 0x1620 <__stack+0xdc1>
    12c2:	20 f4       	brcc	.+8      	; 0x12cc <__stack+0xa6d>
    12c4:	88 23       	and	r24, r24
    12c6:	51 f0       	breq	.+20     	; 0x12dc <__stack+0xa7d>
    12c8:	0c 94 96 12 	jmp	0x252c	; 0x252c <__stack+0x1ccd>
    12cc:	83 30       	cpi	r24, 0x03	; 3
    12ce:	09 f4       	brne	.+2      	; 0x12d2 <__stack+0xa73>
    12d0:	c9 c3       	rjmp	.+1938   	; 0x1a64 <__stack+0x1205>
    12d2:	84 30       	cpi	r24, 0x04	; 4
    12d4:	11 f0       	breq	.+4      	; 0x12da <__stack+0xa7b>
    12d6:	0c 94 96 12 	jmp	0x252c	; 0x252c <__stack+0x1ccd>
    12da:	fb c0       	rjmp	.+502    	; 0x14d2 <__stack+0xc73>
				{
					case DIRECT_CTRL:
					// Direct Law is used for direct Remote Control input -> Servos
					// + / - in front of the long bracket inverses the Control
						if(state_change == TRUE)
    12dc:	80 91 57 02 	lds	r24, 0x0257
    12e0:	81 30       	cpi	r24, 0x01	; 1
    12e2:	21 f4       	brne	.+8      	; 0x12ec <__stack+0xa8d>
						{
							write_string_ln("DIRECT CTRL");
    12e4:	81 e1       	ldi	r24, 0x11	; 17
    12e6:	91 e0       	ldi	r25, 0x01	; 1
    12e8:	0e 94 77 13 	call	0x26ee	; 0x26ee <write_string_ln>
						}

						 ctrl_out[motor]	=	NEUTRAL+((ctrl_in[stick_l_up_down]-SERVO_TRIM_MOTOR)*SERVO_GAIN_MOTOR);		
    12ec:	a8 ed       	ldi	r26, 0xD8	; 216
    12ee:	b1 e0       	ldi	r27, 0x01	; 1
    12f0:	2d 91       	ld	r18, X+
    12f2:	3c 91       	ld	r19, X
    12f4:	22 0f       	add	r18, r18
    12f6:	33 1f       	adc	r19, r19
    12f8:	c9 01       	movw	r24, r18
    12fa:	88 0f       	add	r24, r24
    12fc:	99 1f       	adc	r25, r25
    12fe:	88 0f       	add	r24, r24
    1300:	99 1f       	adc	r25, r25
    1302:	88 0f       	add	r24, r24
    1304:	99 1f       	adc	r25, r25
    1306:	82 1b       	sub	r24, r18
    1308:	93 0b       	sbc	r25, r19
    130a:	8e 5d       	subi	r24, 0xDE	; 222
    130c:	9e 4f       	sbci	r25, 0xFE	; 254
    130e:	aa 27       	eor	r26, r26
    1310:	97 fd       	sbrc	r25, 7
    1312:	a0 95       	com	r26
    1314:	ba 2f       	mov	r27, r26
    1316:	80 93 60 00 	sts	0x0060, r24
    131a:	90 93 61 00 	sts	0x0061, r25
    131e:	a0 93 62 00 	sts	0x0062, r26
    1322:	b0 93 63 00 	sts	0x0063, r27
						 ctrl_out[aileron]	=	NEUTRAL+((ctrl_in[stick_r_left_right]-SERVO_TRIM_AILERON)*SERVO_GAIN_AILERON);
    1326:	ea ed       	ldi	r30, 0xDA	; 218
    1328:	f1 e0       	ldi	r31, 0x01	; 1
    132a:	20 81       	ld	r18, Z
    132c:	31 81       	ldd	r19, Z+1	; 0x01
    132e:	ff e0       	ldi	r31, 0x0F	; 15
    1330:	f2 9f       	mul	r31, r18
    1332:	c0 01       	movw	r24, r0
    1334:	f3 9f       	mul	r31, r19
    1336:	90 0d       	add	r25, r0
    1338:	11 24       	eor	r1, r1
    133a:	8a 56       	subi	r24, 0x6A	; 106
    133c:	9f 4f       	sbci	r25, 0xFF	; 255
    133e:	aa 27       	eor	r26, r26
    1340:	97 fd       	sbrc	r25, 7
    1342:	a0 95       	com	r26
    1344:	ba 2f       	mov	r27, r26
    1346:	80 93 64 00 	sts	0x0064, r24
    134a:	90 93 65 00 	sts	0x0065, r25
    134e:	a0 93 66 00 	sts	0x0066, r26
    1352:	b0 93 67 00 	sts	0x0067, r27
						 ctrl_out[elevator] =	NEUTRAL+((ctrl_in[stick_r_up_down]-SERVO_TRIM_ELEVATOR)*SERVO_GAIN_ELEVATOR);
    1356:	ac ed       	ldi	r26, 0xDC	; 220
    1358:	b1 e0       	ldi	r27, 0x01	; 1
    135a:	2d 91       	ld	r18, X+
    135c:	3c 91       	ld	r19, X
    135e:	f2 9f       	mul	r31, r18
    1360:	c0 01       	movw	r24, r0
    1362:	f3 9f       	mul	r31, r19
    1364:	90 0d       	add	r25, r0
    1366:	11 24       	eor	r1, r1
    1368:	aa 27       	eor	r26, r26
    136a:	97 fd       	sbrc	r25, 7
    136c:	a0 95       	com	r26
    136e:	ba 2f       	mov	r27, r26
    1370:	e8 e6       	ldi	r30, 0x68	; 104
    1372:	f0 e0       	ldi	r31, 0x00	; 0
    1374:	80 83       	st	Z, r24
    1376:	91 83       	std	Z+1, r25	; 0x01
    1378:	a2 83       	std	Z+2, r26	; 0x02
    137a:	b3 83       	std	Z+3, r27	; 0x03
						 ctrl_out[rudder]	=	NEUTRAL+((ctrl_in[stick_l_left_right]-SERVO_TRIM_RUDDER)*SERVO_GAIN_RUDDER);
    137c:	20 91 de 01 	lds	r18, 0x01DE
    1380:	30 91 df 01 	lds	r19, 0x01DF
    1384:	22 0f       	add	r18, r18
    1386:	33 1f       	adc	r19, r19
    1388:	c9 01       	movw	r24, r18
    138a:	88 0f       	add	r24, r24
    138c:	99 1f       	adc	r25, r25
    138e:	88 0f       	add	r24, r24
    1390:	99 1f       	adc	r25, r25
    1392:	88 0f       	add	r24, r24
    1394:	99 1f       	adc	r25, r25
    1396:	82 1b       	sub	r24, r18
    1398:	93 0b       	sbc	r25, r19
    139a:	8e 5d       	subi	r24, 0xDE	; 222
    139c:	9e 4f       	sbci	r25, 0xFE	; 254
    139e:	aa 27       	eor	r26, r26
    13a0:	97 fd       	sbrc	r25, 7
    13a2:	a0 95       	com	r26
    13a4:	ba 2f       	mov	r27, r26
    13a6:	80 93 6c 00 	sts	0x006C, r24
    13aa:	90 93 6d 00 	sts	0x006D, r25
    13ae:	a0 93 6e 00 	sts	0x006E, r26
    13b2:	b0 93 6f 00 	sts	0x006F, r27
						 
						 // Flap Control
						 if(ctrl_in[poti_p3]<120/* && ctrl_in[poti_p3]>120*/)		flap_setpoint = FLAP_UP;
    13b6:	80 91 e0 01 	lds	r24, 0x01E0
    13ba:	90 91 e1 01 	lds	r25, 0x01E1
    13be:	88 37       	cpi	r24, 0x78	; 120
    13c0:	91 05       	cpc	r25, r1
    13c2:	3c f4       	brge	.+14     	; 0x13d2 <__stack+0xb73>
    13c4:	86 ee       	ldi	r24, 0xE6	; 230
    13c6:	95 e0       	ldi	r25, 0x05	; 5
    13c8:	90 93 8c 00 	sts	0x008C, r25
    13cc:	80 93 8b 00 	sts	0x008B, r24
    13d0:	22 c0       	rjmp	.+68     	; 0x1416 <__stack+0xbb7>
						 else if(ctrl_in[poti_p3]<160 && ctrl_in[poti_p3]>135)	flap_setpoint = FLAP_1;
    13d2:	80 91 e0 01 	lds	r24, 0x01E0
    13d6:	90 91 e1 01 	lds	r25, 0x01E1
    13da:	80 3a       	cpi	r24, 0xA0	; 160
    13dc:	91 05       	cpc	r25, r1
    13de:	74 f4       	brge	.+28     	; 0x13fc <__stack+0xb9d>
    13e0:	80 91 e0 01 	lds	r24, 0x01E0
    13e4:	90 91 e1 01 	lds	r25, 0x01E1
    13e8:	88 38       	cpi	r24, 0x88	; 136
    13ea:	91 05       	cpc	r25, r1
    13ec:	3c f0       	brlt	.+14     	; 0x13fc <__stack+0xb9d>
    13ee:	8c e6       	ldi	r24, 0x6C	; 108
    13f0:	97 e0       	ldi	r25, 0x07	; 7
    13f2:	90 93 8c 00 	sts	0x008C, r25
    13f6:	80 93 8b 00 	sts	0x008B, r24
    13fa:	0d c0       	rjmp	.+26     	; 0x1416 <__stack+0xbb7>
						 else if(/*ctrl_in[poti_p3]<160 && */ctrl_in[poti_p3]>160)	flap_setpoint = FLAP_FULL;
    13fc:	80 91 e0 01 	lds	r24, 0x01E0
    1400:	90 91 e1 01 	lds	r25, 0x01E1
    1404:	81 3a       	cpi	r24, 0xA1	; 161
    1406:	91 05       	cpc	r25, r1
    1408:	34 f0       	brlt	.+12     	; 0x1416 <__stack+0xbb7>
    140a:	8c ef       	ldi	r24, 0xFC	; 252
    140c:	98 e0       	ldi	r25, 0x08	; 8
    140e:	90 93 8c 00 	sts	0x008C, r25
    1412:	80 93 8b 00 	sts	0x008B, r24
						 
						 // drive flap with sample_time steps delay 
						 if(ctrl_out[flap] < flap_setpoint)		ctrl_out[flap]+= FLAP_DELTA;
    1416:	40 91 70 00 	lds	r20, 0x0070
    141a:	50 91 71 00 	lds	r21, 0x0071
    141e:	60 91 72 00 	lds	r22, 0x0072
    1422:	70 91 73 00 	lds	r23, 0x0073
    1426:	80 91 8b 00 	lds	r24, 0x008B
    142a:	90 91 8c 00 	lds	r25, 0x008C
    142e:	a0 e0       	ldi	r26, 0x00	; 0
    1430:	b0 e0       	ldi	r27, 0x00	; 0
    1432:	48 17       	cp	r20, r24
    1434:	59 07       	cpc	r21, r25
    1436:	6a 07       	cpc	r22, r26
    1438:	7b 07       	cpc	r23, r27
    143a:	74 f4       	brge	.+28     	; 0x1458 <__stack+0xbf9>
    143c:	e0 e7       	ldi	r30, 0x70	; 112
    143e:	f0 e0       	ldi	r31, 0x00	; 0
    1440:	80 81       	ld	r24, Z
    1442:	91 81       	ldd	r25, Z+1	; 0x01
    1444:	a2 81       	ldd	r26, Z+2	; 0x02
    1446:	b3 81       	ldd	r27, Z+3	; 0x03
    1448:	0a 96       	adiw	r24, 0x0a	; 10
    144a:	a1 1d       	adc	r26, r1
    144c:	b1 1d       	adc	r27, r1
    144e:	80 83       	st	Z, r24
    1450:	91 83       	std	Z+1, r25	; 0x01
    1452:	a2 83       	std	Z+2, r26	; 0x02
    1454:	b3 83       	std	Z+3, r27	; 0x03
    1456:	23 c0       	rjmp	.+70     	; 0x149e <__stack+0xc3f>
						 else if(ctrl_out[flap] > flap_setpoint)	ctrl_out[flap]-= FLAP_DELTA;
    1458:	40 91 70 00 	lds	r20, 0x0070
    145c:	50 91 71 00 	lds	r21, 0x0071
    1460:	60 91 72 00 	lds	r22, 0x0072
    1464:	70 91 73 00 	lds	r23, 0x0073
    1468:	84 17       	cp	r24, r20
    146a:	95 07       	cpc	r25, r21
    146c:	a6 07       	cpc	r26, r22
    146e:	b7 07       	cpc	r27, r23
    1470:	74 f4       	brge	.+28     	; 0x148e <__stack+0xc2f>
    1472:	e0 e7       	ldi	r30, 0x70	; 112
    1474:	f0 e0       	ldi	r31, 0x00	; 0
    1476:	80 81       	ld	r24, Z
    1478:	91 81       	ldd	r25, Z+1	; 0x01
    147a:	a2 81       	ldd	r26, Z+2	; 0x02
    147c:	b3 81       	ldd	r27, Z+3	; 0x03
    147e:	0a 97       	sbiw	r24, 0x0a	; 10
    1480:	a1 09       	sbc	r26, r1
    1482:	b1 09       	sbc	r27, r1
    1484:	80 83       	st	Z, r24
    1486:	91 83       	std	Z+1, r25	; 0x01
    1488:	a2 83       	std	Z+2, r26	; 0x02
    148a:	b3 83       	std	Z+3, r27	; 0x03
    148c:	08 c0       	rjmp	.+16     	; 0x149e <__stack+0xc3f>
						 else ctrl_out[flap] = flap_setpoint;
    148e:	80 93 70 00 	sts	0x0070, r24
    1492:	90 93 71 00 	sts	0x0071, r25
    1496:	a0 93 72 00 	sts	0x0072, r26
    149a:	b0 93 73 00 	sts	0x0073, r27
						 
						 // camera gimbal servo
						 ctrl_out[camera_y] = NEUTRAL;
    149e:	8a ec       	ldi	r24, 0xCA	; 202
    14a0:	98 e0       	ldi	r25, 0x08	; 8
    14a2:	a0 e0       	ldi	r26, 0x00	; 0
    14a4:	b0 e0       	ldi	r27, 0x00	; 0
    14a6:	80 93 74 00 	sts	0x0074, r24
    14aa:	90 93 75 00 	sts	0x0075, r25
    14ae:	a0 93 76 00 	sts	0x0076, r26
    14b2:	b0 93 77 00 	sts	0x0077, r27
						 ctrl_out[camera_z] = SERVO_GIMB_Z_STOP;	// the z axis Servo is a hacked 360 deg Servo without position information
    14b6:	85 e8       	ldi	r24, 0x85	; 133
    14b8:	92 e0       	ldi	r25, 0x02	; 2
    14ba:	a0 e0       	ldi	r26, 0x00	; 0
    14bc:	b0 e0       	ldi	r27, 0x00	; 0
    14be:	80 93 78 00 	sts	0x0078, r24
    14c2:	90 93 79 00 	sts	0x0079, r25
    14c6:	a0 93 7a 00 	sts	0x007A, r26
    14ca:	b0 93 7b 00 	sts	0x007B, r27
																	// There is no feedback from the servo on its position.	
																	// For leaving and reaching a new position, only time integration would work...
						 
					break;
    14ce:	0c 94 96 12 	jmp	0x252c	; 0x252c <__stack+0x1ccd>
						// Tuning Lateral Mode Open Loop Tuning
						if (mode == 2)
						{
							
							// Make a step change and check the response
							if(state_change == TRUE)
    14d2:	80 91 57 02 	lds	r24, 0x0257
    14d6:	81 30       	cpi	r24, 0x01	; 1
    14d8:	09 f0       	breq	.+2      	; 0x14dc <__stack+0xc7d>
    14da:	5a c0       	rjmp	.+180    	; 0x1590 <__stack+0xd31>
							{
								write_string_ln("*TUNING LAT IMPULSE*");
    14dc:	8d e1       	ldi	r24, 0x1D	; 29
    14de:	91 e0       	ldi	r25, 0x01	; 1
    14e0:	0e 94 77 13 	call	0x26ee	; 0x26ee <write_string_ln>
								trimmed_motor = ctrl_out[motor];
    14e4:	20 e6       	ldi	r18, 0x60	; 96
    14e6:	30 e0       	ldi	r19, 0x00	; 0
    14e8:	d9 01       	movw	r26, r18
    14ea:	cd 90       	ld	r12, X+
    14ec:	dd 90       	ld	r13, X+
    14ee:	ed 90       	ld	r14, X+
    14f0:	fc 90       	ld	r15, X
    14f2:	c0 92 4e 02 	sts	0x024E, r12
    14f6:	d0 92 4f 02 	sts	0x024F, r13
    14fa:	e0 92 50 02 	sts	0x0250, r14
    14fe:	f0 92 51 02 	sts	0x0251, r15
								trimmed_aileron = ctrl_out[aileron];
    1502:	04 e6       	ldi	r16, 0x64	; 100
    1504:	10 e0       	ldi	r17, 0x00	; 0
    1506:	f8 01       	movw	r30, r16
    1508:	40 81       	ld	r20, Z
    150a:	51 81       	ldd	r21, Z+1	; 0x01
    150c:	62 81       	ldd	r22, Z+2	; 0x02
    150e:	73 81       	ldd	r23, Z+3	; 0x03
    1510:	40 93 4a 02 	sts	0x024A, r20
    1514:	50 93 4b 02 	sts	0x024B, r21
    1518:	60 93 4c 02 	sts	0x024C, r22
    151c:	70 93 4d 02 	sts	0x024D, r23
								trimmed_elevator = ctrl_out[elevator];
    1520:	a8 e6       	ldi	r26, 0x68	; 104
    1522:	b0 e0       	ldi	r27, 0x00	; 0
    1524:	8d 90       	ld	r8, X+
    1526:	9d 90       	ld	r9, X+
    1528:	ad 90       	ld	r10, X+
    152a:	bc 90       	ld	r11, X
    152c:	80 92 52 02 	sts	0x0252, r8
    1530:	90 92 53 02 	sts	0x0253, r9
    1534:	a0 92 54 02 	sts	0x0254, r10
    1538:	b0 92 55 02 	sts	0x0255, r11
								trimmed_rudder = ctrl_out[rudder];
    153c:	0f 2e       	mov	r0, r31
    153e:	fc e6       	ldi	r31, 0x6C	; 108
    1540:	6f 2e       	mov	r6, r31
    1542:	f0 e0       	ldi	r31, 0x00	; 0
    1544:	7f 2e       	mov	r7, r31
    1546:	f0 2d       	mov	r31, r0
    1548:	f3 01       	movw	r30, r6
    154a:	80 81       	ld	r24, Z
    154c:	91 81       	ldd	r25, Z+1	; 0x01
    154e:	a2 81       	ldd	r26, Z+2	; 0x02
    1550:	b3 81       	ldd	r27, Z+3	; 0x03
    1552:	80 93 46 02 	sts	0x0246, r24
    1556:	90 93 47 02 	sts	0x0247, r25
    155a:	a0 93 48 02 	sts	0x0248, r26
    155e:	b0 93 49 02 	sts	0x0249, r27
								ctrl_out[elevator] = trimmed_elevator;
    1562:	e8 e6       	ldi	r30, 0x68	; 104
    1564:	f0 e0       	ldi	r31, 0x00	; 0
    1566:	80 82       	st	Z, r8
    1568:	91 82       	std	Z+1, r9	; 0x01
    156a:	a2 82       	std	Z+2, r10	; 0x02
    156c:	b3 82       	std	Z+3, r11	; 0x03
								ctrl_out[motor] = trimmed_motor;
    156e:	f9 01       	movw	r30, r18
    1570:	c0 82       	st	Z, r12
    1572:	d1 82       	std	Z+1, r13	; 0x01
    1574:	e2 82       	std	Z+2, r14	; 0x02
    1576:	f3 82       	std	Z+3, r15	; 0x03
								ctrl_out[aileron] = trimmed_aileron;
    1578:	f8 01       	movw	r30, r16
    157a:	40 83       	st	Z, r20
    157c:	51 83       	std	Z+1, r21	; 0x01
    157e:	62 83       	std	Z+2, r22	; 0x02
    1580:	73 83       	std	Z+3, r23	; 0x03
								ctrl_out[rudder] = trimmed_rudder;
    1582:	f3 01       	movw	r30, r6
    1584:	80 83       	st	Z, r24
    1586:	91 83       	std	Z+1, r25	; 0x01
    1588:	a2 83       	std	Z+2, r26	; 0x02
    158a:	b3 83       	std	Z+3, r27	; 0x03
								tune_cnt = 0;
							}

							if(tune_cnt < 40) tune_cnt++;
    158c:	80 e0       	ldi	r24, 0x00	; 0
    158e:	04 c0       	rjmp	.+8      	; 0x1598 <__stack+0xd39>
    1590:	80 91 f1 01 	lds	r24, 0x01F1
    1594:	88 32       	cpi	r24, 0x28	; 40
    1596:	1c f4       	brge	.+6      	; 0x159e <__stack+0xd3f>
    1598:	8f 5f       	subi	r24, 0xFF	; 255
    159a:	80 93 f1 01 	sts	0x01F1, r24
							if(tune_cnt == 40)	// after 2 seconds it will make an impulse to the aileron
    159e:	80 91 f1 01 	lds	r24, 0x01F1
    15a2:	88 32       	cpi	r24, 0x28	; 40
    15a4:	b9 f4       	brne	.+46     	; 0x15d4 <__stack+0xd75>
							{
								write_string_ln("Step Ail");
    15a6:	82 e3       	ldi	r24, 0x32	; 50
    15a8:	91 e0       	ldi	r25, 0x01	; 1
    15aa:	0e 94 77 13 	call	0x26ee	; 0x26ee <write_string_ln>
								ctrl_out[aileron] +=  500;
    15ae:	e4 e6       	ldi	r30, 0x64	; 100
    15b0:	f0 e0       	ldi	r31, 0x00	; 0
    15b2:	80 81       	ld	r24, Z
    15b4:	91 81       	ldd	r25, Z+1	; 0x01
    15b6:	a2 81       	ldd	r26, Z+2	; 0x02
    15b8:	b3 81       	ldd	r27, Z+3	; 0x03
    15ba:	8c 50       	subi	r24, 0x0C	; 12
    15bc:	9e 4f       	sbci	r25, 0xFE	; 254
    15be:	af 4f       	sbci	r26, 0xFF	; 255
    15c0:	bf 4f       	sbci	r27, 0xFF	; 255
    15c2:	80 83       	st	Z, r24
    15c4:	91 83       	std	Z+1, r25	; 0x01
    15c6:	a2 83       	std	Z+2, r26	; 0x02
    15c8:	b3 83       	std	Z+3, r27	; 0x03
								tune_cnt += 1;
    15ca:	80 91 f1 01 	lds	r24, 0x01F1
    15ce:	8f 5f       	subi	r24, 0xFF	; 255
    15d0:	80 93 f1 01 	sts	0x01F1, r24
							}
							if(tune_cnt >= 41 && tune_cnt < 57) tune_cnt++;
    15d4:	80 91 f1 01 	lds	r24, 0x01F1
    15d8:	98 2f       	mov	r25, r24
    15da:	99 52       	subi	r25, 0x29	; 41
    15dc:	90 31       	cpi	r25, 0x10	; 16
    15de:	18 f4       	brcc	.+6      	; 0x15e6 <__stack+0xd87>
    15e0:	8f 5f       	subi	r24, 0xFF	; 255
    15e2:	80 93 f1 01 	sts	0x01F1, r24
							if(tune_cnt == 57)	// after 210 mseconds it will release the aileron
    15e6:	80 91 f1 01 	lds	r24, 0x01F1
    15ea:	89 33       	cpi	r24, 0x39	; 57
    15ec:	09 f0       	breq	.+2      	; 0x15f0 <__stack+0xd91>
    15ee:	9e c7       	rjmp	.+3900   	; 0x252c <__stack+0x1ccd>
							{
								write_string_ln("Step Ail");
    15f0:	82 e3       	ldi	r24, 0x32	; 50
    15f2:	91 e0       	ldi	r25, 0x01	; 1
    15f4:	0e 94 77 13 	call	0x26ee	; 0x26ee <write_string_ln>
								ctrl_out[aileron] -=  500;
    15f8:	e4 e6       	ldi	r30, 0x64	; 100
    15fa:	f0 e0       	ldi	r31, 0x00	; 0
    15fc:	80 81       	ld	r24, Z
    15fe:	91 81       	ldd	r25, Z+1	; 0x01
    1600:	a2 81       	ldd	r26, Z+2	; 0x02
    1602:	b3 81       	ldd	r27, Z+3	; 0x03
    1604:	84 5f       	subi	r24, 0xF4	; 244
    1606:	91 40       	sbci	r25, 0x01	; 1
    1608:	a1 09       	sbc	r26, r1
    160a:	b1 09       	sbc	r27, r1
    160c:	80 83       	st	Z, r24
    160e:	91 83       	std	Z+1, r25	; 0x01
    1610:	a2 83       	std	Z+2, r26	; 0x02
    1612:	b3 83       	std	Z+3, r27	; 0x03
								tune_cnt += 1;
    1614:	80 91 f1 01 	lds	r24, 0x01F1
    1618:	8f 5f       	subi	r24, 0xFF	; 255
    161a:	80 93 f1 01 	sts	0x01F1, r24
    161e:	86 c7       	rjmp	.+3852   	; 0x252c <__stack+0x1ccd>
					
					case DAMPED_CTRL:
					// Heading control test
					// entry condition
					
						if(state_change == TRUE)
    1620:	80 91 57 02 	lds	r24, 0x0257
    1624:	81 30       	cpi	r24, 0x01	; 1
    1626:	09 f0       	breq	.+2      	; 0x162a <__stack+0xdcb>
    1628:	f8 c0       	rjmp	.+496    	; 0x181a <__stack+0xfbb>
						{
							write_string_ln("Damped CONTROL");
    162a:	8b e3       	ldi	r24, 0x3B	; 59
    162c:	91 e0       	ldi	r25, 0x01	; 1
    162e:	0e 94 77 13 	call	0x26ee	; 0x26ee <write_string_ln>
							// Setting current values as control values
							// High level loops
							//alt_hold = altitude_filt;		// controlling barometric altitude
							alt_hold = altitude_filt;
    1632:	80 91 1c 05 	lds	r24, 0x051C
    1636:	90 91 1d 05 	lds	r25, 0x051D
    163a:	90 93 dd 04 	sts	0x04DD, r25
    163e:	80 93 dc 04 	sts	0x04DC, r24
							alt_hold_0 = alt_hold;			// used for finding previous altitude again
    1642:	90 93 45 02 	sts	0x0245, r25
    1646:	80 93 44 02 	sts	0x0244, r24
							heading_hold = heading;	// controlling heading
    164a:	80 91 4c 05 	lds	r24, 0x054C
    164e:	90 91 4d 05 	lds	r25, 0x054D
    1652:	90 93 40 05 	sts	0x0540, r25
    1656:	80 93 3f 05 	sts	0x053F, r24
							
							// middle loops (if required)
							Phi_hold_0 = Phi;			// using current phi as phi_0
    165a:	60 91 35 02 	lds	r22, 0x0235
    165e:	70 91 36 02 	lds	r23, 0x0236
    1662:	88 27       	eor	r24, r24
    1664:	77 fd       	sbrc	r23, 7
    1666:	80 95       	com	r24
    1668:	98 2f       	mov	r25, r24
    166a:	0e 94 4b 15 	call	0x2a96	; 0x2a96 <__floatsisf>
    166e:	60 93 31 02 	sts	0x0231, r22
    1672:	70 93 32 02 	sts	0x0232, r23
    1676:	80 93 33 02 	sts	0x0233, r24
    167a:	90 93 34 02 	sts	0x0234, r25
							Phi_hold = Phi;				// using current phi as hold value
    167e:	60 93 de 04 	sts	0x04DE, r22
    1682:	70 93 df 04 	sts	0x04DF, r23
    1686:	80 93 e0 04 	sts	0x04E0, r24
    168a:	90 93 e1 04 	sts	0x04E1, r25
							Theta_hold = Theta;			// using current theta as theta_0
    168e:	80 91 2d 05 	lds	r24, 0x052D
    1692:	90 91 2e 05 	lds	r25, 0x052E
    1696:	90 93 f7 04 	sts	0x04F7, r25
    169a:	80 93 f6 04 	sts	0x04F6, r24
							//speed_hold = speed_filt;	// current speed reading for speed control
							speed_hold = 15;	// correlates to approx 30kmh			
    169e:	80 e0       	ldi	r24, 0x00	; 0
    16a0:	90 e0       	ldi	r25, 0x00	; 0
    16a2:	a0 e7       	ldi	r26, 0x70	; 112
    16a4:	b1 e4       	ldi	r27, 0x41	; 65
    16a6:	80 93 46 05 	sts	0x0546, r24
    16aa:	90 93 47 05 	sts	0x0547, r25
    16ae:	a0 93 48 05 	sts	0x0548, r26
    16b2:	b0 93 49 05 	sts	0x0549, r27
							
							// Setting current input as "trimmed input"
							trimmed_elevator = ctrl_out[elevator]; 
    16b6:	e8 e6       	ldi	r30, 0x68	; 104
    16b8:	f0 e0       	ldi	r31, 0x00	; 0
    16ba:	80 81       	ld	r24, Z
    16bc:	91 81       	ldd	r25, Z+1	; 0x01
    16be:	a2 81       	ldd	r26, Z+2	; 0x02
    16c0:	b3 81       	ldd	r27, Z+3	; 0x03
    16c2:	80 93 52 02 	sts	0x0252, r24
    16c6:	90 93 53 02 	sts	0x0253, r25
    16ca:	a0 93 54 02 	sts	0x0254, r26
    16ce:	b0 93 55 02 	sts	0x0255, r27
							trimmed_aileron = ctrl_out[aileron];
    16d2:	80 91 64 00 	lds	r24, 0x0064
    16d6:	90 91 65 00 	lds	r25, 0x0065
    16da:	a0 91 66 00 	lds	r26, 0x0066
    16de:	b0 91 67 00 	lds	r27, 0x0067
    16e2:	80 93 4a 02 	sts	0x024A, r24
    16e6:	90 93 4b 02 	sts	0x024B, r25
    16ea:	a0 93 4c 02 	sts	0x024C, r26
    16ee:	b0 93 4d 02 	sts	0x024D, r27
							trimmed_motor = ctrl_out[motor];
    16f2:	80 91 60 00 	lds	r24, 0x0060
    16f6:	90 91 61 00 	lds	r25, 0x0061
    16fa:	a0 91 62 00 	lds	r26, 0x0062
    16fe:	b0 91 63 00 	lds	r27, 0x0063
    1702:	80 93 4e 02 	sts	0x024E, r24
    1706:	90 93 4f 02 	sts	0x024F, r25
    170a:	a0 93 50 02 	sts	0x0250, r26
    170e:	b0 93 51 02 	sts	0x0251, r27
							trimmed_rudder = ctrl_out[rudder];
    1712:	80 91 6c 00 	lds	r24, 0x006C
    1716:	90 91 6d 00 	lds	r25, 0x006D
    171a:	a0 91 6e 00 	lds	r26, 0x006E
    171e:	b0 91 6f 00 	lds	r27, 0x006F
    1722:	80 93 46 02 	sts	0x0246, r24
    1726:	90 93 47 02 	sts	0x0247, r25
    172a:	a0 93 48 02 	sts	0x0248, r26
    172e:	b0 93 49 02 	sts	0x0249, r27
							
							//****************************
							// Resetting the errors
							// altitude
							alt_error = 0;
    1732:	10 92 43 02 	sts	0x0243, r1
    1736:	10 92 42 02 	sts	0x0242, r1
							alt_error_sum = 0;
    173a:	10 92 41 02 	sts	0x0241, r1
    173e:	10 92 40 02 	sts	0x0240, r1
							alt_error_prev = 0;
    1742:	10 92 3f 02 	sts	0x023F, r1
    1746:	10 92 3e 02 	sts	0x023E, r1
							// speed
							speed_error = 0;
    174a:	10 92 ee 04 	sts	0x04EE, r1
    174e:	10 92 ef 04 	sts	0x04EF, r1
    1752:	10 92 f0 04 	sts	0x04F0, r1
    1756:	10 92 f1 04 	sts	0x04F1, r1
							speed_error_sum = 0;
    175a:	10 92 22 05 	sts	0x0522, r1
    175e:	10 92 23 05 	sts	0x0523, r1
    1762:	10 92 24 05 	sts	0x0524, r1
    1766:	10 92 25 05 	sts	0x0525, r1
							// Theta
							Theta_error = 0;
    176a:	10 92 e9 04 	sts	0x04E9, r1
    176e:	10 92 e8 04 	sts	0x04E8, r1
							Theta_error_sum = 0;
    1772:	10 92 1b 05 	sts	0x051B, r1
    1776:	10 92 1a 05 	sts	0x051A, r1
							Theta_error_prev = 0;
    177a:	10 92 38 02 	sts	0x0238, r1
    177e:	10 92 37 02 	sts	0x0237, r1
							// Phi
							Phi_error = 0;
    1782:	10 92 2d 02 	sts	0x022D, r1
    1786:	10 92 2e 02 	sts	0x022E, r1
    178a:	10 92 2f 02 	sts	0x022F, r1
    178e:	10 92 30 02 	sts	0x0230, r1
							Phi_error_sum = 0;
    1792:	10 92 29 02 	sts	0x0229, r1
    1796:	10 92 2a 02 	sts	0x022A, r1
    179a:	10 92 2b 02 	sts	0x022B, r1
    179e:	10 92 2c 02 	sts	0x022C, r1
							Phi_error_prev = 0;
    17a2:	10 92 25 02 	sts	0x0225, r1
    17a6:	10 92 26 02 	sts	0x0226, r1
    17aa:	10 92 27 02 	sts	0x0227, r1
    17ae:	10 92 28 02 	sts	0x0228, r1
							// *****************************
							
							acc_z_raw_prev = acc_z_raw;
    17b2:	80 91 13 05 	lds	r24, 0x0513
    17b6:	90 91 14 05 	lds	r25, 0x0514
    17ba:	90 93 24 02 	sts	0x0224, r25
    17be:	80 93 23 02 	sts	0x0223, r24
							
							write_string("Goal Alt - Heading - Speed: ");write_var(alt_hold);write_string(" - ");write_var(heading_hold);write_string(" - ");write_var_ln(speed_hold);
    17c2:	8a e4       	ldi	r24, 0x4A	; 74
    17c4:	91 e0       	ldi	r25, 0x01	; 1
    17c6:	0e 94 67 13 	call	0x26ce	; 0x26ce <write_string>
    17ca:	60 91 dc 04 	lds	r22, 0x04DC
    17ce:	70 91 dd 04 	lds	r23, 0x04DD
    17d2:	88 27       	eor	r24, r24
    17d4:	77 fd       	sbrc	r23, 7
    17d6:	80 95       	com	r24
    17d8:	98 2f       	mov	r25, r24
    17da:	0e 94 8b 13 	call	0x2716	; 0x2716 <write_var>
    17de:	87 e6       	ldi	r24, 0x67	; 103
    17e0:	91 e0       	ldi	r25, 0x01	; 1
    17e2:	0e 94 67 13 	call	0x26ce	; 0x26ce <write_string>
    17e6:	60 91 3f 05 	lds	r22, 0x053F
    17ea:	70 91 40 05 	lds	r23, 0x0540
    17ee:	88 27       	eor	r24, r24
    17f0:	77 fd       	sbrc	r23, 7
    17f2:	80 95       	com	r24
    17f4:	98 2f       	mov	r25, r24
    17f6:	0e 94 8b 13 	call	0x2716	; 0x2716 <write_var>
    17fa:	87 e6       	ldi	r24, 0x67	; 103
    17fc:	91 e0       	ldi	r25, 0x01	; 1
    17fe:	0e 94 67 13 	call	0x26ce	; 0x26ce <write_string>
    1802:	60 91 46 05 	lds	r22, 0x0546
    1806:	70 91 47 05 	lds	r23, 0x0547
    180a:	80 91 48 05 	lds	r24, 0x0548
    180e:	90 91 49 05 	lds	r25, 0x0549
    1812:	0e 94 18 15 	call	0x2a30	; 0x2a30 <__fixsfsi>
    1816:	0e 94 a9 13 	call	0x2752	; 0x2752 <write_var_ln>
						// Pitch damping
						// Input: turn rate q
						// Output: elevator command damping
						// Gains: K_d_q
						
						if (ctrl_in[poti_p2]>140)
    181a:	a6 ee       	ldi	r26, 0xE6	; 230
    181c:	b1 e0       	ldi	r27, 0x01	; 1
    181e:	8d 91       	ld	r24, X+
    1820:	9c 91       	ld	r25, X
    1822:	8d 38       	cpi	r24, 0x8D	; 141
    1824:	91 05       	cpc	r25, r1
    1826:	0c f1       	brlt	.+66     	; 0x186a <__stack+0x100b>
						{
							// the design is for speed = 17
							if (speed_filt>30)
    1828:	80 91 da 04 	lds	r24, 0x04DA
    182c:	90 91 db 04 	lds	r25, 0x04DB
    1830:	8f 31       	cpi	r24, 0x1F	; 31
    1832:	91 05       	cpc	r25, r1
    1834:	44 f0       	brlt	.+16     	; 0x1846 <__stack+0xfe7>
							{
								K_d_q=3;
    1836:	83 e0       	ldi	r24, 0x03	; 3
    1838:	80 93 8a 00 	sts	0x008A, r24
								K_d_p=3;
    183c:	80 93 88 00 	sts	0x0088, r24
								K_d_r=3;
    1840:	80 93 89 00 	sts	0x0089, r24
    1844:	19 c0       	rjmp	.+50     	; 0x1878 <__stack+0x1019>
							}
							else if (speed_filt>20)
    1846:	45 97       	sbiw	r24, 0x15	; 21
    1848:	44 f0       	brlt	.+16     	; 0x185a <__stack+0xffb>
							{
								K_d_q=5;
    184a:	85 e0       	ldi	r24, 0x05	; 5
    184c:	80 93 8a 00 	sts	0x008A, r24
								K_d_p=5;
    1850:	80 93 88 00 	sts	0x0088, r24
								K_d_r=5;
    1854:	80 93 89 00 	sts	0x0089, r24
    1858:	0f c0       	rjmp	.+30     	; 0x1878 <__stack+0x1019>
							}
							else
							{
								K_d_q=7;
    185a:	87 e0       	ldi	r24, 0x07	; 7
    185c:	80 93 8a 00 	sts	0x008A, r24
								K_d_p=7;
    1860:	80 93 88 00 	sts	0x0088, r24
								K_d_r=7;
    1864:	80 93 89 00 	sts	0x0089, r24
    1868:	07 c0       	rjmp	.+14     	; 0x1878 <__stack+0x1019>
							}
							
						}
						else
						{
								K_d_q=7;
    186a:	87 e0       	ldi	r24, 0x07	; 7
    186c:	80 93 8a 00 	sts	0x008A, r24
								K_d_p=7;
    1870:	80 93 88 00 	sts	0x0088, r24
								K_d_r=7;
    1874:	80 93 89 00 	sts	0x0089, r24
						}
						
						
						ctrl_out_DAMP[elevator] = K_d_q * (q_filt);
    1878:	90 91 8a 00 	lds	r25, 0x008A
    187c:	80 91 19 05 	lds	r24, 0x0519
    1880:	98 02       	muls	r25, r24
    1882:	c0 01       	movw	r24, r0
    1884:	11 24       	eor	r1, r1
    1886:	aa 27       	eor	r26, r26
    1888:	97 fd       	sbrc	r25, 7
    188a:	a0 95       	com	r26
    188c:	ba 2f       	mov	r27, r26
    188e:	e8 ea       	ldi	r30, 0xA8	; 168
    1890:	f1 e0       	ldi	r31, 0x01	; 1
    1892:	80 83       	st	Z, r24
    1894:	91 83       	std	Z+1, r25	; 0x01
    1896:	a2 83       	std	Z+2, r26	; 0x02
    1898:	b3 83       	std	Z+3, r27	; 0x03
						ctrl_out_DAMP[aileron] = K_d_p * (p_filt);
    189a:	90 91 88 00 	lds	r25, 0x0088
    189e:	80 91 2c 05 	lds	r24, 0x052C
    18a2:	98 02       	muls	r25, r24
    18a4:	c0 01       	movw	r24, r0
    18a6:	11 24       	eor	r1, r1
    18a8:	aa 27       	eor	r26, r26
    18aa:	97 fd       	sbrc	r25, 7
    18ac:	a0 95       	com	r26
    18ae:	ba 2f       	mov	r27, r26
    18b0:	e4 ea       	ldi	r30, 0xA4	; 164
    18b2:	f1 e0       	ldi	r31, 0x01	; 1
    18b4:	80 83       	st	Z, r24
    18b6:	91 83       	std	Z+1, r25	; 0x01
    18b8:	a2 83       	std	Z+2, r26	; 0x02
    18ba:	b3 83       	std	Z+3, r27	; 0x03
						ctrl_out_DAMP[rudder] = K_d_r * (r_filt);
    18bc:	90 91 89 00 	lds	r25, 0x0089
    18c0:	80 91 39 02 	lds	r24, 0x0239
    18c4:	98 02       	muls	r25, r24
    18c6:	c0 01       	movw	r24, r0
    18c8:	11 24       	eor	r1, r1
    18ca:	aa 27       	eor	r26, r26
    18cc:	97 fd       	sbrc	r25, 7
    18ce:	a0 95       	com	r26
    18d0:	ba 2f       	mov	r27, r26
    18d2:	ec ea       	ldi	r30, 0xAC	; 172
    18d4:	f1 e0       	ldi	r31, 0x01	; 1
    18d6:	80 83       	st	Z, r24
    18d8:	91 83       	std	Z+1, r25	; 0x01
    18da:	a2 83       	std	Z+2, r26	; 0x02
    18dc:	b3 83       	std	Z+3, r27	; 0x03
						// Here only damper on the normal commands
						ctrl_out[elevator] = (NEUTRAL+((ctrl_in[stick_r_up_down]-SERVO_TRIM_ELEVATOR)*SERVO_GAIN_ELEVATOR))-ctrl_out_DAMP[elevator];
    18de:	ac ed       	ldi	r26, 0xDC	; 220
    18e0:	b1 e0       	ldi	r27, 0x01	; 1
    18e2:	2d 91       	ld	r18, X+
    18e4:	3c 91       	ld	r19, X
    18e6:	e8 ea       	ldi	r30, 0xA8	; 168
    18e8:	f1 e0       	ldi	r31, 0x01	; 1
    18ea:	40 81       	ld	r20, Z
    18ec:	51 81       	ldd	r21, Z+1	; 0x01
    18ee:	62 81       	ldd	r22, Z+2	; 0x02
    18f0:	73 81       	ldd	r23, Z+3	; 0x03
    18f2:	ff e0       	ldi	r31, 0x0F	; 15
    18f4:	f2 9f       	mul	r31, r18
    18f6:	c0 01       	movw	r24, r0
    18f8:	f3 9f       	mul	r31, r19
    18fa:	90 0d       	add	r25, r0
    18fc:	11 24       	eor	r1, r1
    18fe:	aa 27       	eor	r26, r26
    1900:	97 fd       	sbrc	r25, 7
    1902:	a0 95       	com	r26
    1904:	ba 2f       	mov	r27, r26
    1906:	84 1b       	sub	r24, r20
    1908:	95 0b       	sbc	r25, r21
    190a:	a6 0b       	sbc	r26, r22
    190c:	b7 0b       	sbc	r27, r23
    190e:	e8 e6       	ldi	r30, 0x68	; 104
    1910:	f0 e0       	ldi	r31, 0x00	; 0
    1912:	80 83       	st	Z, r24
    1914:	91 83       	std	Z+1, r25	; 0x01
    1916:	a2 83       	std	Z+2, r26	; 0x02
    1918:	b3 83       	std	Z+3, r27	; 0x03
						ctrl_out[aileron]	=	(NEUTRAL+((ctrl_in[stick_r_left_right]-SERVO_TRIM_AILERON)*SERVO_GAIN_AILERON))-ctrl_out_DAMP[aileron]; 
    191a:	aa ed       	ldi	r26, 0xDA	; 218
    191c:	b1 e0       	ldi	r27, 0x01	; 1
    191e:	2d 91       	ld	r18, X+
    1920:	3c 91       	ld	r19, X
    1922:	e4 ea       	ldi	r30, 0xA4	; 164
    1924:	f1 e0       	ldi	r31, 0x01	; 1
    1926:	40 81       	ld	r20, Z
    1928:	51 81       	ldd	r21, Z+1	; 0x01
    192a:	62 81       	ldd	r22, Z+2	; 0x02
    192c:	73 81       	ldd	r23, Z+3	; 0x03
    192e:	f2 9f       	mul	r31, r18
    1930:	c0 01       	movw	r24, r0
    1932:	f3 9f       	mul	r31, r19
    1934:	90 0d       	add	r25, r0
    1936:	11 24       	eor	r1, r1
    1938:	8a 56       	subi	r24, 0x6A	; 106
    193a:	9f 4f       	sbci	r25, 0xFF	; 255
    193c:	aa 27       	eor	r26, r26
    193e:	97 fd       	sbrc	r25, 7
    1940:	a0 95       	com	r26
    1942:	ba 2f       	mov	r27, r26
    1944:	84 1b       	sub	r24, r20
    1946:	95 0b       	sbc	r25, r21
    1948:	a6 0b       	sbc	r26, r22
    194a:	b7 0b       	sbc	r27, r23
    194c:	80 93 64 00 	sts	0x0064, r24
    1950:	90 93 65 00 	sts	0x0065, r25
    1954:	a0 93 66 00 	sts	0x0066, r26
    1958:	b0 93 67 00 	sts	0x0067, r27
						ctrl_out[rudder]	=	(NEUTRAL+((ctrl_in[stick_l_left_right]-SERVO_TRIM_RUDDER)*SERVO_GAIN_RUDDER))+ctrl_out_DAMP[rudder]; 
    195c:	20 91 de 01 	lds	r18, 0x01DE
    1960:	30 91 df 01 	lds	r19, 0x01DF
    1964:	ac ea       	ldi	r26, 0xAC	; 172
    1966:	b1 e0       	ldi	r27, 0x01	; 1
    1968:	4d 91       	ld	r20, X+
    196a:	5d 91       	ld	r21, X+
    196c:	6d 91       	ld	r22, X+
    196e:	7c 91       	ld	r23, X
    1970:	22 0f       	add	r18, r18
    1972:	33 1f       	adc	r19, r19
    1974:	c9 01       	movw	r24, r18
    1976:	88 0f       	add	r24, r24
    1978:	99 1f       	adc	r25, r25
    197a:	88 0f       	add	r24, r24
    197c:	99 1f       	adc	r25, r25
    197e:	88 0f       	add	r24, r24
    1980:	99 1f       	adc	r25, r25
    1982:	82 1b       	sub	r24, r18
    1984:	93 0b       	sbc	r25, r19
    1986:	8e 5d       	subi	r24, 0xDE	; 222
    1988:	9e 4f       	sbci	r25, 0xFE	; 254
    198a:	aa 27       	eor	r26, r26
    198c:	97 fd       	sbrc	r25, 7
    198e:	a0 95       	com	r26
    1990:	ba 2f       	mov	r27, r26
    1992:	84 0f       	add	r24, r20
    1994:	95 1f       	adc	r25, r21
    1996:	a6 1f       	adc	r26, r22
    1998:	b7 1f       	adc	r27, r23
    199a:	80 93 6c 00 	sts	0x006C, r24
    199e:	90 93 6d 00 	sts	0x006D, r25
    19a2:	a0 93 6e 00 	sts	0x006E, r26
    19a6:	b0 93 6f 00 	sts	0x006F, r27
						ctrl_out[motor]	=	NEUTRAL+((ctrl_in[stick_l_up_down]-SERVO_TRIM_MOTOR)*SERVO_GAIN_MOTOR); 
    19aa:	e8 ed       	ldi	r30, 0xD8	; 216
    19ac:	f1 e0       	ldi	r31, 0x01	; 1
    19ae:	20 81       	ld	r18, Z
    19b0:	31 81       	ldd	r19, Z+1	; 0x01
    19b2:	22 0f       	add	r18, r18
    19b4:	33 1f       	adc	r19, r19
    19b6:	c9 01       	movw	r24, r18
    19b8:	88 0f       	add	r24, r24
    19ba:	99 1f       	adc	r25, r25
    19bc:	88 0f       	add	r24, r24
    19be:	99 1f       	adc	r25, r25
    19c0:	88 0f       	add	r24, r24
    19c2:	99 1f       	adc	r25, r25
    19c4:	82 1b       	sub	r24, r18
    19c6:	93 0b       	sbc	r25, r19
    19c8:	8e 5d       	subi	r24, 0xDE	; 222
    19ca:	9e 4f       	sbci	r25, 0xFE	; 254
    19cc:	aa 27       	eor	r26, r26
    19ce:	97 fd       	sbrc	r25, 7
    19d0:	a0 95       	com	r26
    19d2:	ba 2f       	mov	r27, r26
    19d4:	80 93 60 00 	sts	0x0060, r24
    19d8:	90 93 61 00 	sts	0x0061, r25
    19dc:	a0 93 62 00 	sts	0x0062, r26
    19e0:	b0 93 63 00 	sts	0x0063, r27
						
						if (ctrl_in[poti_p1] > 140)
    19e4:	80 91 e4 01 	lds	r24, 0x01E4
    19e8:	90 91 e5 01 	lds	r25, 0x01E5
    19ec:	8d 38       	cpi	r24, 0x8D	; 141
    19ee:	91 05       	cpc	r25, r1
    19f0:	b4 f1       	brlt	.+108    	; 0x1a5e <__stack+0x11ff>
						{
							ctrl_out[flap]	= FLAP_UP -  ((-1000 - acc_z_raw)/4);
    19f2:	20 91 13 05 	lds	r18, 0x0513
    19f6:	30 91 14 05 	lds	r19, 0x0514
    19fa:	88 e1       	ldi	r24, 0x18	; 24
    19fc:	9c ef       	ldi	r25, 0xFC	; 252
    19fe:	82 1b       	sub	r24, r18
    1a00:	93 0b       	sbc	r25, r19
    1a02:	0a f4       	brpl	.+2      	; 0x1a06 <__stack+0x11a7>
    1a04:	03 96       	adiw	r24, 0x03	; 3
    1a06:	9c 01       	movw	r18, r24
    1a08:	35 95       	asr	r19
    1a0a:	27 95       	ror	r18
    1a0c:	35 95       	asr	r19
    1a0e:	27 95       	ror	r18
    1a10:	86 ee       	ldi	r24, 0xE6	; 230
    1a12:	95 e0       	ldi	r25, 0x05	; 5
    1a14:	82 1b       	sub	r24, r18
    1a16:	93 0b       	sbc	r25, r19
    1a18:	aa 27       	eor	r26, r26
    1a1a:	97 fd       	sbrc	r25, 7
    1a1c:	a0 95       	com	r26
    1a1e:	ba 2f       	mov	r27, r26
    1a20:	e0 e7       	ldi	r30, 0x70	; 112
    1a22:	f0 e0       	ldi	r31, 0x00	; 0
    1a24:	80 83       	st	Z, r24
    1a26:	91 83       	std	Z+1, r25	; 0x01
    1a28:	a2 83       	std	Z+2, r26	; 0x02
    1a2a:	b3 83       	std	Z+3, r27	; 0x03
							if (ctrl_out[flap]<FLAP_UP)
    1a2c:	80 81       	ld	r24, Z
    1a2e:	91 81       	ldd	r25, Z+1	; 0x01
    1a30:	a2 81       	ldd	r26, Z+2	; 0x02
    1a32:	b3 81       	ldd	r27, Z+3	; 0x03
    1a34:	86 3e       	cpi	r24, 0xE6	; 230
    1a36:	95 40       	sbci	r25, 0x05	; 5
    1a38:	a1 05       	cpc	r26, r1
    1a3a:	b1 05       	cpc	r27, r1
    1a3c:	64 f4       	brge	.+24     	; 0x1a56 <__stack+0x11f7>
							{
								ctrl_out[flap]=FLAP_UP;
    1a3e:	86 ee       	ldi	r24, 0xE6	; 230
    1a40:	95 e0       	ldi	r25, 0x05	; 5
    1a42:	a0 e0       	ldi	r26, 0x00	; 0
    1a44:	b0 e0       	ldi	r27, 0x00	; 0
    1a46:	80 93 70 00 	sts	0x0070, r24
    1a4a:	90 93 71 00 	sts	0x0071, r25
    1a4e:	a0 93 72 00 	sts	0x0072, r26
    1a52:	b0 93 73 00 	sts	0x0073, r27
							}
							DLC_en = 1;
    1a56:	81 e0       	ldi	r24, 0x01	; 1
    1a58:	80 93 1a 02 	sts	0x021A, r24
    1a5c:	67 c5       	rjmp	.+2766   	; 0x252c <__stack+0x1ccd>
						}
						else DLC_en = 0;
    1a5e:	10 92 1a 02 	sts	0x021A, r1
    1a62:	64 c5       	rjmp	.+2760   	; 0x252c <__stack+0x1ccd>

					break;
					
					case HOLD_CTRL:
						// entry condition
						if(state_change == TRUE)
    1a64:	80 91 57 02 	lds	r24, 0x0257
    1a68:	81 30       	cpi	r24, 0x01	; 1
    1a6a:	09 f0       	breq	.+2      	; 0x1a6e <__stack+0x120f>
    1a6c:	02 c1       	rjmp	.+516    	; 0x1c72 <__stack+0x1413>
						{
							write_string_ln("HOLD CONTROL");
    1a6e:	8b e6       	ldi	r24, 0x6B	; 107
    1a70:	91 e0       	ldi	r25, 0x01	; 1
    1a72:	0e 94 77 13 	call	0x26ee	; 0x26ee <write_string_ln>
							// Setting current values as control values
							// High level loops
							//alt_hold = altitude_filt;		// controlling barometric altitude
							alt_hold = altitude_filt;
    1a76:	80 91 1c 05 	lds	r24, 0x051C
    1a7a:	90 91 1d 05 	lds	r25, 0x051D
    1a7e:	90 93 dd 04 	sts	0x04DD, r25
    1a82:	80 93 dc 04 	sts	0x04DC, r24
							alt_hold_0 = alt_hold;			// used for finding previous altitude again
    1a86:	90 93 45 02 	sts	0x0245, r25
    1a8a:	80 93 44 02 	sts	0x0244, r24
							heading_hold = heading_GPS;	// controlling heading
    1a8e:	80 91 00 02 	lds	r24, 0x0200
    1a92:	90 91 01 02 	lds	r25, 0x0201
    1a96:	90 93 40 05 	sts	0x0540, r25
    1a9a:	80 93 3f 05 	sts	0x053F, r24
							
							// middle loops (if required)
							Phi_hold_0 = Phi;			// using current phi as phi_0
    1a9e:	60 91 35 02 	lds	r22, 0x0235
    1aa2:	70 91 36 02 	lds	r23, 0x0236
    1aa6:	88 27       	eor	r24, r24
    1aa8:	77 fd       	sbrc	r23, 7
    1aaa:	80 95       	com	r24
    1aac:	98 2f       	mov	r25, r24
    1aae:	0e 94 4b 15 	call	0x2a96	; 0x2a96 <__floatsisf>
    1ab2:	60 93 31 02 	sts	0x0231, r22
    1ab6:	70 93 32 02 	sts	0x0232, r23
    1aba:	80 93 33 02 	sts	0x0233, r24
    1abe:	90 93 34 02 	sts	0x0234, r25
							Phi_hold = Phi;				// using current phi as hold value
    1ac2:	60 93 de 04 	sts	0x04DE, r22
    1ac6:	70 93 df 04 	sts	0x04DF, r23
    1aca:	80 93 e0 04 	sts	0x04E0, r24
    1ace:	90 93 e1 04 	sts	0x04E1, r25
							Theta_hold = Theta;			// using current theta as theta_0
    1ad2:	80 91 2d 05 	lds	r24, 0x052D
    1ad6:	90 91 2e 05 	lds	r25, 0x052E
    1ada:	90 93 f7 04 	sts	0x04F7, r25
    1ade:	80 93 f6 04 	sts	0x04F6, r24
							speed_hold = speed_filt;			// current speed reading for speed control				
    1ae2:	60 91 da 04 	lds	r22, 0x04DA
    1ae6:	70 91 db 04 	lds	r23, 0x04DB
    1aea:	88 27       	eor	r24, r24
    1aec:	77 fd       	sbrc	r23, 7
    1aee:	80 95       	com	r24
    1af0:	98 2f       	mov	r25, r24
    1af2:	0e 94 4b 15 	call	0x2a96	; 0x2a96 <__floatsisf>
    1af6:	60 93 46 05 	sts	0x0546, r22
    1afa:	70 93 47 05 	sts	0x0547, r23
    1afe:	80 93 48 05 	sts	0x0548, r24
    1b02:	90 93 49 05 	sts	0x0549, r25
							
							// Setting current input as "trimmed input"
							trimmed_elevator = ctrl_out[elevator]; 
    1b06:	e8 e6       	ldi	r30, 0x68	; 104
    1b08:	f0 e0       	ldi	r31, 0x00	; 0
    1b0a:	80 81       	ld	r24, Z
    1b0c:	91 81       	ldd	r25, Z+1	; 0x01
    1b0e:	a2 81       	ldd	r26, Z+2	; 0x02
    1b10:	b3 81       	ldd	r27, Z+3	; 0x03
    1b12:	80 93 52 02 	sts	0x0252, r24
    1b16:	90 93 53 02 	sts	0x0253, r25
    1b1a:	a0 93 54 02 	sts	0x0254, r26
    1b1e:	b0 93 55 02 	sts	0x0255, r27
							trimmed_aileron = ctrl_out[aileron];
    1b22:	80 91 64 00 	lds	r24, 0x0064
    1b26:	90 91 65 00 	lds	r25, 0x0065
    1b2a:	a0 91 66 00 	lds	r26, 0x0066
    1b2e:	b0 91 67 00 	lds	r27, 0x0067
    1b32:	80 93 4a 02 	sts	0x024A, r24
    1b36:	90 93 4b 02 	sts	0x024B, r25
    1b3a:	a0 93 4c 02 	sts	0x024C, r26
    1b3e:	b0 93 4d 02 	sts	0x024D, r27
							trimmed_motor = ctrl_out[motor];
    1b42:	80 91 60 00 	lds	r24, 0x0060
    1b46:	90 91 61 00 	lds	r25, 0x0061
    1b4a:	a0 91 62 00 	lds	r26, 0x0062
    1b4e:	b0 91 63 00 	lds	r27, 0x0063
    1b52:	80 93 4e 02 	sts	0x024E, r24
    1b56:	90 93 4f 02 	sts	0x024F, r25
    1b5a:	a0 93 50 02 	sts	0x0250, r26
    1b5e:	b0 93 51 02 	sts	0x0251, r27
							trimmed_rudder = ctrl_out[rudder];
    1b62:	80 91 6c 00 	lds	r24, 0x006C
    1b66:	90 91 6d 00 	lds	r25, 0x006D
    1b6a:	a0 91 6e 00 	lds	r26, 0x006E
    1b6e:	b0 91 6f 00 	lds	r27, 0x006F
    1b72:	80 93 46 02 	sts	0x0246, r24
    1b76:	90 93 47 02 	sts	0x0247, r25
    1b7a:	a0 93 48 02 	sts	0x0248, r26
    1b7e:	b0 93 49 02 	sts	0x0249, r27
							
							//****************************
							// Resetting the errors
							// altitude
							alt_error = 0;
    1b82:	10 92 43 02 	sts	0x0243, r1
    1b86:	10 92 42 02 	sts	0x0242, r1
							alt_error_sum = 0;
    1b8a:	10 92 41 02 	sts	0x0241, r1
    1b8e:	10 92 40 02 	sts	0x0240, r1
							alt_error_prev = 0;
    1b92:	10 92 3f 02 	sts	0x023F, r1
    1b96:	10 92 3e 02 	sts	0x023E, r1
							// speed
							speed_error = 0;
    1b9a:	10 92 ee 04 	sts	0x04EE, r1
    1b9e:	10 92 ef 04 	sts	0x04EF, r1
    1ba2:	10 92 f0 04 	sts	0x04F0, r1
    1ba6:	10 92 f1 04 	sts	0x04F1, r1
							speed_error_sum = 0;
    1baa:	10 92 22 05 	sts	0x0522, r1
    1bae:	10 92 23 05 	sts	0x0523, r1
    1bb2:	10 92 24 05 	sts	0x0524, r1
    1bb6:	10 92 25 05 	sts	0x0525, r1
							// Theta
							Theta_error = 0;
    1bba:	10 92 e9 04 	sts	0x04E9, r1
    1bbe:	10 92 e8 04 	sts	0x04E8, r1
							Theta_error_sum = 0;
    1bc2:	10 92 1b 05 	sts	0x051B, r1
    1bc6:	10 92 1a 05 	sts	0x051A, r1
							Theta_error_prev = 0;
    1bca:	10 92 38 02 	sts	0x0238, r1
    1bce:	10 92 37 02 	sts	0x0237, r1
							// Phi
							Phi_error = 0;
    1bd2:	10 92 2d 02 	sts	0x022D, r1
    1bd6:	10 92 2e 02 	sts	0x022E, r1
    1bda:	10 92 2f 02 	sts	0x022F, r1
    1bde:	10 92 30 02 	sts	0x0230, r1
							Phi_error_sum = 0;
    1be2:	10 92 29 02 	sts	0x0229, r1
    1be6:	10 92 2a 02 	sts	0x022A, r1
    1bea:	10 92 2b 02 	sts	0x022B, r1
    1bee:	10 92 2c 02 	sts	0x022C, r1
							Phi_error_prev = 0;
    1bf2:	10 92 25 02 	sts	0x0225, r1
    1bf6:	10 92 26 02 	sts	0x0226, r1
    1bfa:	10 92 27 02 	sts	0x0227, r1
    1bfe:	10 92 28 02 	sts	0x0228, r1
							// *****************************
							OLED_set_position(5,3);
    1c02:	63 e0       	ldi	r22, 0x03	; 3
    1c04:	85 e0       	ldi	r24, 0x05	; 5
    1c06:	0e 94 7a 00 	call	0xf4	; 0xf4 <OLED_set_position>
							OLED_send_char_H();
    1c0a:	0e 94 be 00 	call	0x17c	; 0x17c <OLED_send_char_H>
							OLED_send_char_O();
    1c0e:	0e 94 00 01 	call	0x200	; 0x200 <OLED_send_char_O>
							OLED_send_char_L();
    1c12:	0e 94 d4 00 	call	0x1a8	; 0x1a8 <OLED_send_char_L>
							OLED_send_char_D();
    1c16:	0e 94 92 00 	call	0x124	; 0x124 <OLED_send_char_D>
							
							write_string("Goal Alt - Heading - Speed: ");write_var(alt_hold);write_string(" - ");write_var(heading_hold);write_string(" - ");write_var_ln(speed_hold);
    1c1a:	8a e4       	ldi	r24, 0x4A	; 74
    1c1c:	91 e0       	ldi	r25, 0x01	; 1
    1c1e:	0e 94 67 13 	call	0x26ce	; 0x26ce <write_string>
    1c22:	60 91 dc 04 	lds	r22, 0x04DC
    1c26:	70 91 dd 04 	lds	r23, 0x04DD
    1c2a:	88 27       	eor	r24, r24
    1c2c:	77 fd       	sbrc	r23, 7
    1c2e:	80 95       	com	r24
    1c30:	98 2f       	mov	r25, r24
    1c32:	0e 94 8b 13 	call	0x2716	; 0x2716 <write_var>
    1c36:	87 e6       	ldi	r24, 0x67	; 103
    1c38:	91 e0       	ldi	r25, 0x01	; 1
    1c3a:	0e 94 67 13 	call	0x26ce	; 0x26ce <write_string>
    1c3e:	60 91 3f 05 	lds	r22, 0x053F
    1c42:	70 91 40 05 	lds	r23, 0x0540
    1c46:	88 27       	eor	r24, r24
    1c48:	77 fd       	sbrc	r23, 7
    1c4a:	80 95       	com	r24
    1c4c:	98 2f       	mov	r25, r24
    1c4e:	0e 94 8b 13 	call	0x2716	; 0x2716 <write_var>
    1c52:	87 e6       	ldi	r24, 0x67	; 103
    1c54:	91 e0       	ldi	r25, 0x01	; 1
    1c56:	0e 94 67 13 	call	0x26ce	; 0x26ce <write_string>
    1c5a:	60 91 46 05 	lds	r22, 0x0546
    1c5e:	70 91 47 05 	lds	r23, 0x0547
    1c62:	80 91 48 05 	lds	r24, 0x0548
    1c66:	90 91 49 05 	lds	r25, 0x0549
    1c6a:	0e 94 18 15 	call	0x2a30	; 0x2a30 <__fixsfsi>
    1c6e:	0e 94 a9 13 	call	0x2752	; 0x2752 <write_var_ln>
						}
						
						// Using Poti to change between two altitudes
						// direct poti value might be too noisy for altitude values
						if ((ctrl_in[poti_p1]-155) < 30)
    1c72:	80 91 e4 01 	lds	r24, 0x01E4
    1c76:	90 91 e5 01 	lds	r25, 0x01E5
    1c7a:	8b 59       	subi	r24, 0x9B	; 155
    1c7c:	91 09       	sbc	r25, r1
    1c7e:	4e 97       	sbiw	r24, 0x1e	; 30
    1c80:	4c f4       	brge	.+18     	; 0x1c94 <__stack+0x1435>
						{
							alt_hold = alt_hold_0;
    1c82:	80 91 44 02 	lds	r24, 0x0244
    1c86:	90 91 45 02 	lds	r25, 0x0245
    1c8a:	90 93 dd 04 	sts	0x04DD, r25
    1c8e:	80 93 dc 04 	sts	0x04DC, r24
    1c92:	09 c0       	rjmp	.+18     	; 0x1ca6 <__stack+0x1447>
						}
						else
						{
							alt_hold = alt_hold_0 + 10;
    1c94:	80 91 44 02 	lds	r24, 0x0244
    1c98:	90 91 45 02 	lds	r25, 0x0245
    1c9c:	0a 96       	adiw	r24, 0x0a	; 10
    1c9e:	90 93 dd 04 	sts	0x04DD, r25
    1ca2:	80 93 dc 04 	sts	0x04DC, r24
 						// Theta control with elevator
 						// Input: Theta command from Altitude Hold loop
 						// Output: elevator command pid loop
 						// Controller: PID Controller
						// Gains: K_p = 10 K_i = 10 K_d = 5
 						Theta_error = Theta - Theta_hold; // as per Simulation in SCILAB this convention is best
    1ca6:	20 90 2d 05 	lds	r2, 0x052D
    1caa:	30 90 2e 05 	lds	r3, 0x052E
    1cae:	80 91 f6 04 	lds	r24, 0x04F6
    1cb2:	90 91 f7 04 	lds	r25, 0x04F7
    1cb6:	28 1a       	sub	r2, r24
    1cb8:	39 0a       	sbc	r3, r25
    1cba:	30 92 e9 04 	sts	0x04E9, r3
    1cbe:	20 92 e8 04 	sts	0x04E8, r2
 						Theta_error_sum += Theta_error;
    1cc2:	00 91 1a 05 	lds	r16, 0x051A
    1cc6:	10 91 1b 05 	lds	r17, 0x051B
    1cca:	02 0d       	add	r16, r2
    1ccc:	13 1d       	adc	r17, r3
    1cce:	10 93 1b 05 	sts	0x051B, r17
    1cd2:	00 93 1a 05 	sts	0x051A, r16
 						// controller formula for the necessary control change						 
 						ctrl_out_PID[elevator] = (KP_THETA*Theta_error + KI_THETA*Theta_error_sum*sample_time + KD_THETA*(-Theta_error_prev + Theta_error)/(sample_time*3));
    1cd6:	c0 90 ea 01 	lds	r12, 0x01EA
    1cda:	d0 90 eb 01 	lds	r13, 0x01EB
    1cde:	e0 90 ec 01 	lds	r14, 0x01EC
    1ce2:	f0 90 ed 01 	lds	r15, 0x01ED
    1ce6:	b1 01       	movw	r22, r2
    1ce8:	66 0f       	add	r22, r22
    1cea:	77 1f       	adc	r23, r23
    1cec:	c1 01       	movw	r24, r2
    1cee:	88 0f       	add	r24, r24
    1cf0:	99 1f       	adc	r25, r25
    1cf2:	88 0f       	add	r24, r24
    1cf4:	99 1f       	adc	r25, r25
    1cf6:	88 0f       	add	r24, r24
    1cf8:	99 1f       	adc	r25, r25
    1cfa:	68 0f       	add	r22, r24
    1cfc:	79 1f       	adc	r23, r25
    1cfe:	88 27       	eor	r24, r24
    1d00:	77 fd       	sbrc	r23, 7
    1d02:	80 95       	com	r24
    1d04:	98 2f       	mov	r25, r24
    1d06:	0e 94 4b 15 	call	0x2a96	; 0x2a96 <__floatsisf>
    1d0a:	4b 01       	movw	r8, r22
    1d0c:	5c 01       	movw	r10, r24
    1d0e:	b8 01       	movw	r22, r16
    1d10:	66 0f       	add	r22, r22
    1d12:	77 1f       	adc	r23, r23
    1d14:	00 0f       	add	r16, r16
    1d16:	11 1f       	adc	r17, r17
    1d18:	00 0f       	add	r16, r16
    1d1a:	11 1f       	adc	r17, r17
    1d1c:	00 0f       	add	r16, r16
    1d1e:	11 1f       	adc	r17, r17
    1d20:	60 0f       	add	r22, r16
    1d22:	71 1f       	adc	r23, r17
    1d24:	88 27       	eor	r24, r24
    1d26:	77 fd       	sbrc	r23, 7
    1d28:	80 95       	com	r24
    1d2a:	98 2f       	mov	r25, r24
    1d2c:	0e 94 4b 15 	call	0x2a96	; 0x2a96 <__floatsisf>
    1d30:	a7 01       	movw	r20, r14
    1d32:	96 01       	movw	r18, r12
    1d34:	0e 94 2b 16 	call	0x2c56	; 0x2c56 <__mulsf3>
    1d38:	9b 01       	movw	r18, r22
    1d3a:	ac 01       	movw	r20, r24
    1d3c:	c5 01       	movw	r24, r10
    1d3e:	b4 01       	movw	r22, r8
    1d40:	0e 94 e6 13 	call	0x27cc	; 0x27cc <__addsf3>
    1d44:	4b 01       	movw	r8, r22
    1d46:	5c 01       	movw	r10, r24
    1d48:	80 91 37 02 	lds	r24, 0x0237
    1d4c:	90 91 38 02 	lds	r25, 0x0238
    1d50:	b1 01       	movw	r22, r2
    1d52:	68 1b       	sub	r22, r24
    1d54:	79 0b       	sbc	r23, r25
    1d56:	66 0f       	add	r22, r22
    1d58:	77 1f       	adc	r23, r23
    1d5a:	88 27       	eor	r24, r24
    1d5c:	77 fd       	sbrc	r23, 7
    1d5e:	80 95       	com	r24
    1d60:	98 2f       	mov	r25, r24
    1d62:	0e 94 4b 15 	call	0x2a96	; 0x2a96 <__floatsisf>
    1d66:	2b 01       	movw	r4, r22
    1d68:	3c 01       	movw	r6, r24
    1d6a:	20 e0       	ldi	r18, 0x00	; 0
    1d6c:	30 e0       	ldi	r19, 0x00	; 0
    1d6e:	40 e4       	ldi	r20, 0x40	; 64
    1d70:	50 e4       	ldi	r21, 0x40	; 64
    1d72:	c7 01       	movw	r24, r14
    1d74:	b6 01       	movw	r22, r12
    1d76:	0e 94 2b 16 	call	0x2c56	; 0x2c56 <__mulsf3>
    1d7a:	9b 01       	movw	r18, r22
    1d7c:	ac 01       	movw	r20, r24
    1d7e:	c3 01       	movw	r24, r6
    1d80:	b2 01       	movw	r22, r4
    1d82:	0e 94 b0 14 	call	0x2960	; 0x2960 <__divsf3>
    1d86:	9b 01       	movw	r18, r22
    1d88:	ac 01       	movw	r20, r24
    1d8a:	c5 01       	movw	r24, r10
    1d8c:	b4 01       	movw	r22, r8
    1d8e:	0e 94 e6 13 	call	0x27cc	; 0x27cc <__addsf3>
    1d92:	0e 94 18 15 	call	0x2a30	; 0x2a30 <__fixsfsi>
    1d96:	60 93 c4 01 	sts	0x01C4, r22
    1d9a:	70 93 c5 01 	sts	0x01C5, r23
    1d9e:	80 93 c6 01 	sts	0x01C6, r24
    1da2:	90 93 c7 01 	sts	0x01C7, r25
  						test_cnt++;
    1da6:	80 91 4a 05 	lds	r24, 0x054A
    1daa:	8f 5f       	subi	r24, 0xFF	; 255
    1dac:	80 93 4a 05 	sts	0x054A, r24
						if (test_cnt == 3)
    1db0:	83 30       	cpi	r24, 0x03	; 3
    1db2:	31 f4       	brne	.+12     	; 0x1dc0 <__stack+0x1561>
  						{
							 Theta_error_prev = Theta_error; 
    1db4:	30 92 38 02 	sts	0x0238, r3
    1db8:	20 92 37 02 	sts	0x0237, r2
							 test_cnt = 0;
    1dbc:	10 92 4a 05 	sts	0x054A, r1
						//******************************************************
						// Pitch damping
						// Input: turn rate q
						// Output: elevator command damping
						// Gains: K_d_q
						ctrl_out_DAMP[elevator] = K_d_q * (q_filt);
    1dc0:	90 91 8a 00 	lds	r25, 0x008A
    1dc4:	80 91 19 05 	lds	r24, 0x0519
    1dc8:	98 02       	muls	r25, r24
    1dca:	c0 01       	movw	r24, r0
    1dcc:	11 24       	eor	r1, r1
    1dce:	aa 27       	eor	r26, r26
    1dd0:	97 fd       	sbrc	r25, 7
    1dd2:	a0 95       	com	r26
    1dd4:	ba 2f       	mov	r27, r26
    1dd6:	e8 ea       	ldi	r30, 0xA8	; 168
    1dd8:	f1 e0       	ldi	r31, 0x01	; 1
    1dda:	80 83       	st	Z, r24
    1ddc:	91 83       	std	Z+1, r25	; 0x01
    1dde:	a2 83       	std	Z+2, r26	; 0x02
    1de0:	b3 83       	std	Z+3, r27	; 0x03
						//******************************************************
						
						//******************************************************
						// Combining the calculated inputs elevator and limiting elevator command
						ctrl_out[elevator] = trimmed_elevator - ctrl_out_PID[elevator] - ctrl_out_DAMP[elevator];
    1de2:	00 91 c4 01 	lds	r16, 0x01C4
    1de6:	10 91 c5 01 	lds	r17, 0x01C5
    1dea:	20 91 c6 01 	lds	r18, 0x01C6
    1dee:	30 91 c7 01 	lds	r19, 0x01C7
    1df2:	40 81       	ld	r20, Z
    1df4:	51 81       	ldd	r21, Z+1	; 0x01
    1df6:	62 81       	ldd	r22, Z+2	; 0x02
    1df8:	73 81       	ldd	r23, Z+3	; 0x03
    1dfa:	80 91 52 02 	lds	r24, 0x0252
    1dfe:	90 91 53 02 	lds	r25, 0x0253
    1e02:	a0 91 54 02 	lds	r26, 0x0254
    1e06:	b0 91 55 02 	lds	r27, 0x0255
    1e0a:	80 1b       	sub	r24, r16
    1e0c:	91 0b       	sbc	r25, r17
    1e0e:	a2 0b       	sbc	r26, r18
    1e10:	b3 0b       	sbc	r27, r19
    1e12:	84 1b       	sub	r24, r20
    1e14:	95 0b       	sbc	r25, r21
    1e16:	a6 0b       	sbc	r26, r22
    1e18:	b7 0b       	sbc	r27, r23
    1e1a:	e8 e6       	ldi	r30, 0x68	; 104
    1e1c:	f0 e0       	ldi	r31, 0x00	; 0
    1e1e:	80 83       	st	Z, r24
    1e20:	91 83       	std	Z+1, r25	; 0x01
    1e22:	a2 83       	std	Z+2, r26	; 0x02
    1e24:	b3 83       	std	Z+3, r27	; 0x03
						if(ctrl_out[elevator] > RIGHT) ctrl_out[elevator] = RIGHT;
    1e26:	80 81       	ld	r24, Z
    1e28:	91 81       	ldd	r25, Z+1	; 0x01
    1e2a:	a2 81       	ldd	r26, Z+2	; 0x02
    1e2c:	b3 81       	ldd	r27, Z+3	; 0x03
    1e2e:	89 3b       	cpi	r24, 0xB9	; 185
    1e30:	9b 40       	sbci	r25, 0x0B	; 11
    1e32:	a1 05       	cpc	r26, r1
    1e34:	b1 05       	cpc	r27, r1
    1e36:	4c f0       	brlt	.+18     	; 0x1e4a <__stack+0x15eb>
    1e38:	88 eb       	ldi	r24, 0xB8	; 184
    1e3a:	9b e0       	ldi	r25, 0x0B	; 11
    1e3c:	a0 e0       	ldi	r26, 0x00	; 0
    1e3e:	b0 e0       	ldi	r27, 0x00	; 0
    1e40:	80 83       	st	Z, r24
    1e42:	91 83       	std	Z+1, r25	; 0x01
    1e44:	a2 83       	std	Z+2, r26	; 0x02
    1e46:	b3 83       	std	Z+3, r27	; 0x03
    1e48:	13 c0       	rjmp	.+38     	; 0x1e70 <__stack+0x1611>
						else if (ctrl_out[elevator] < LEFT) ctrl_out[elevator] = LEFT;
    1e4a:	e8 e6       	ldi	r30, 0x68	; 104
    1e4c:	f0 e0       	ldi	r31, 0x00	; 0
    1e4e:	80 81       	ld	r24, Z
    1e50:	91 81       	ldd	r25, Z+1	; 0x01
    1e52:	a2 81       	ldd	r26, Z+2	; 0x02
    1e54:	b3 81       	ldd	r27, Z+3	; 0x03
    1e56:	88 3e       	cpi	r24, 0xE8	; 232
    1e58:	93 40       	sbci	r25, 0x03	; 3
    1e5a:	a1 05       	cpc	r26, r1
    1e5c:	b1 05       	cpc	r27, r1
    1e5e:	44 f4       	brge	.+16     	; 0x1e70 <__stack+0x1611>
    1e60:	88 ee       	ldi	r24, 0xE8	; 232
    1e62:	93 e0       	ldi	r25, 0x03	; 3
    1e64:	a0 e0       	ldi	r26, 0x00	; 0
    1e66:	b0 e0       	ldi	r27, 0x00	; 0
    1e68:	80 83       	st	Z, r24
    1e6a:	91 83       	std	Z+1, r25	; 0x01
    1e6c:	a2 83       	std	Z+2, r26	; 0x02
    1e6e:	b3 83       	std	Z+3, r27	; 0x03
						// Heading solution: Using GPS heading information (GPS_RMC[GPS_RMC_PATH])
						
						//**********************************************
						// GPS GOAL control
						// Using Rotary knob for GPS and hold control (testing)
						if(ctrl_in[poti_p3]<135 && ctrl_in[poti_p3]>120 && knob_flag == 1)	// NEUTRAL (Up Middle
    1e70:	80 91 e0 01 	lds	r24, 0x01E0
    1e74:	90 91 e1 01 	lds	r25, 0x01E1
    1e78:	87 38       	cpi	r24, 0x87	; 135
    1e7a:	91 05       	cpc	r25, r1
    1e7c:	84 f5       	brge	.+96     	; 0x1ede <__stack+0x167f>
    1e7e:	80 91 e0 01 	lds	r24, 0x01E0
    1e82:	90 91 e1 01 	lds	r25, 0x01E1
    1e86:	89 37       	cpi	r24, 0x79	; 121
    1e88:	91 05       	cpc	r25, r1
    1e8a:	4c f1       	brlt	.+82     	; 0x1ede <__stack+0x167f>
    1e8c:	80 91 56 02 	lds	r24, 0x0256
    1e90:	81 30       	cpi	r24, 0x01	; 1
    1e92:	29 f5       	brne	.+74     	; 0x1ede <__stack+0x167f>
						{
							knob_flag = 0;
    1e94:	10 92 56 02 	sts	0x0256, r1
							// normal position -> normal hold control of actual course
							heading_hold = heading_GPS;
    1e98:	80 91 00 02 	lds	r24, 0x0200
    1e9c:	90 91 01 02 	lds	r25, 0x0201
    1ea0:	90 93 40 05 	sts	0x0540, r25
    1ea4:	80 93 3f 05 	sts	0x053F, r24

							write_string("Heading Hold ");write_var_ln(heading_hold);
    1ea8:	88 e7       	ldi	r24, 0x78	; 120
    1eaa:	91 e0       	ldi	r25, 0x01	; 1
    1eac:	0e 94 67 13 	call	0x26ce	; 0x26ce <write_string>
    1eb0:	60 91 3f 05 	lds	r22, 0x053F
    1eb4:	70 91 40 05 	lds	r23, 0x0540
    1eb8:	88 27       	eor	r24, r24
    1eba:	77 fd       	sbrc	r23, 7
    1ebc:	80 95       	com	r24
    1ebe:	98 2f       	mov	r25, r24
    1ec0:	0e 94 a9 13 	call	0x2752	; 0x2752 <write_var_ln>
							OLED_set_position(5,3);
    1ec4:	63 e0       	ldi	r22, 0x03	; 3
    1ec6:	85 e0       	ldi	r24, 0x05	; 5
    1ec8:	0e 94 7a 00 	call	0xf4	; 0xf4 <OLED_set_position>
							OLED_send_char_H();
    1ecc:	0e 94 be 00 	call	0x17c	; 0x17c <OLED_send_char_H>
							OLED_send_char_O();
    1ed0:	0e 94 00 01 	call	0x200	; 0x200 <OLED_send_char_O>
							OLED_send_char_L();
    1ed4:	0e 94 d4 00 	call	0x1a8	; 0x1a8 <OLED_send_char_L>
							OLED_send_char_D();
    1ed8:	0e 94 92 00 	call	0x124	; 0x124 <OLED_send_char_D>
    1edc:	a4 c0       	rjmp	.+328    	; 0x2026 <__stack+0x17c7>

						}
						else if(ctrl_in[poti_p3]<160 && ctrl_in[poti_p3]>150 && knob_flag == 0) // Left One Click
    1ede:	80 91 e0 01 	lds	r24, 0x01E0
    1ee2:	90 91 e1 01 	lds	r25, 0x01E1
    1ee6:	80 3a       	cpi	r24, 0xA0	; 160
    1ee8:	91 05       	cpc	r25, r1
    1eea:	0c f0       	brlt	.+2      	; 0x1eee <__stack+0x168f>
    1eec:	9c c0       	rjmp	.+312    	; 0x2026 <__stack+0x17c7>
    1eee:	80 91 e0 01 	lds	r24, 0x01E0
    1ef2:	90 91 e1 01 	lds	r25, 0x01E1
    1ef6:	87 39       	cpi	r24, 0x97	; 151
    1ef8:	91 05       	cpc	r25, r1
    1efa:	0c f4       	brge	.+2      	; 0x1efe <__stack+0x169f>
    1efc:	94 c0       	rjmp	.+296    	; 0x2026 <__stack+0x17c7>
    1efe:	80 91 56 02 	lds	r24, 0x0256
    1f02:	81 11       	cpse	r24, r1
    1f04:	90 c0       	rjmp	.+288    	; 0x2026 <__stack+0x17c7>
						{
							knob_flag = 1;
    1f06:	81 e0       	ldi	r24, 0x01	; 1
    1f08:	80 93 56 02 	sts	0x0256, r24
							// when knob turned -> GPS -> Return to home -> Home Position needs to be defined before (see above)
							GPS_POS_GOAL_X = GPS_POS_HOME_X;
    1f0c:	c0 90 c6 04 	lds	r12, 0x04C6
    1f10:	d0 90 c7 04 	lds	r13, 0x04C7
    1f14:	e0 90 c8 04 	lds	r14, 0x04C8
    1f18:	f0 90 c9 04 	lds	r15, 0x04C9
    1f1c:	c0 92 ca 04 	sts	0x04CA, r12
    1f20:	d0 92 cb 04 	sts	0x04CB, r13
    1f24:	e0 92 cc 04 	sts	0x04CC, r14
    1f28:	f0 92 cd 04 	sts	0x04CD, r15
							GPS_POS_GOAL_Y = GPS_POS_HOME_Y;
    1f2c:	80 91 ea 04 	lds	r24, 0x04EA
    1f30:	90 91 eb 04 	lds	r25, 0x04EB
    1f34:	a0 91 ec 04 	lds	r26, 0x04EC
    1f38:	b0 91 ed 04 	lds	r27, 0x04ED
    1f3c:	80 93 15 05 	sts	0x0515, r24
    1f40:	90 93 16 05 	sts	0x0516, r25
    1f44:	a0 93 17 05 	sts	0x0517, r26
    1f48:	b0 93 18 05 	sts	0x0518, r27
							

							//write_var(GPS_POS_CURRENT_X);write_string(";");write_var(GPS_POS_CURRENT_Y);write_string(";");
							GPS_POS_DIF_X = GPS_POS_GOAL_X - GPS_POS_CURRENT_X;	// define errors in such way that the course is correct!
    1f4c:	00 91 1e 05 	lds	r16, 0x051E
    1f50:	10 91 1f 05 	lds	r17, 0x051F
    1f54:	20 91 20 05 	lds	r18, 0x0520
    1f58:	30 91 21 05 	lds	r19, 0x0521
    1f5c:	c0 1a       	sub	r12, r16
    1f5e:	d1 0a       	sbc	r13, r17
    1f60:	e2 0a       	sbc	r14, r18
    1f62:	f3 0a       	sbc	r15, r19
    1f64:	c0 92 c2 04 	sts	0x04C2, r12
    1f68:	d0 92 c3 04 	sts	0x04C3, r13
    1f6c:	e0 92 c4 04 	sts	0x04C4, r14
    1f70:	f0 92 c5 04 	sts	0x04C5, r15
							GPS_POS_DIF_Y = GPS_POS_GOAL_Y - GPS_POS_CURRENT_Y;
    1f74:	00 91 0a 05 	lds	r16, 0x050A
    1f78:	10 91 0b 05 	lds	r17, 0x050B
    1f7c:	20 91 0c 05 	lds	r18, 0x050C
    1f80:	30 91 0d 05 	lds	r19, 0x050D
    1f84:	bc 01       	movw	r22, r24
    1f86:	cd 01       	movw	r24, r26
    1f88:	60 1b       	sub	r22, r16
    1f8a:	71 0b       	sbc	r23, r17
    1f8c:	82 0b       	sbc	r24, r18
    1f8e:	93 0b       	sbc	r25, r19
    1f90:	60 93 f8 01 	sts	0x01F8, r22
    1f94:	70 93 f9 01 	sts	0x01F9, r23
    1f98:	80 93 fa 01 	sts	0x01FA, r24
    1f9c:	90 93 fb 01 	sts	0x01FB, r25
							
							// Test Goal coordinates: Berlin
							//GPS_POS_GOAL_X = 132400290;	// 10 Latitude digits
							//GPS_POS_GOAL_Y = 523138036;	// 10 Longitude digits
							
							heading_goal = atan2((GPS_POS_DIF_X),(GPS_POS_DIF_Y))*(180/PI);
    1fa0:	0e 94 4b 15 	call	0x2a96	; 0x2a96 <__floatsisf>
    1fa4:	4b 01       	movw	r8, r22
    1fa6:	5c 01       	movw	r10, r24
    1fa8:	c7 01       	movw	r24, r14
    1faa:	b6 01       	movw	r22, r12
    1fac:	0e 94 4b 15 	call	0x2a96	; 0x2a96 <__floatsisf>
    1fb0:	a5 01       	movw	r20, r10
    1fb2:	94 01       	movw	r18, r8
    1fb4:	0e 94 59 14 	call	0x28b2	; 0x28b2 <atan2>
    1fb8:	20 ee       	ldi	r18, 0xE0	; 224
    1fba:	3e e2       	ldi	r19, 0x2E	; 46
    1fbc:	45 e6       	ldi	r20, 0x65	; 101
    1fbe:	52 e4       	ldi	r21, 0x42	; 66
    1fc0:	0e 94 2b 16 	call	0x2c56	; 0x2c56 <__mulsf3>
    1fc4:	0e 94 18 15 	call	0x2a30	; 0x2a30 <__fixsfsi>
							if (heading_goal < 0)
    1fc8:	77 23       	and	r23, r23
    1fca:	2c f0       	brlt	.+10     	; 0x1fd6 <__stack+0x1777>
							
							// Test Goal coordinates: Berlin
							//GPS_POS_GOAL_X = 132400290;	// 10 Latitude digits
							//GPS_POS_GOAL_Y = 523138036;	// 10 Longitude digits
							
							heading_goal = atan2((GPS_POS_DIF_X),(GPS_POS_DIF_Y))*(180/PI);
    1fcc:	70 93 ff 01 	sts	0x01FF, r23
    1fd0:	60 93 fe 01 	sts	0x01FE, r22
    1fd4:	06 c0       	rjmp	.+12     	; 0x1fe2 <__stack+0x1783>
							if (heading_goal < 0)
							{
								heading_goal += 360;
    1fd6:	68 59       	subi	r22, 0x98	; 152
    1fd8:	7e 4f       	sbci	r23, 0xFE	; 254
    1fda:	70 93 ff 01 	sts	0x01FF, r23
    1fde:	60 93 fe 01 	sts	0x01FE, r22
							}
							
							heading_hold = heading_goal;
    1fe2:	80 91 fe 01 	lds	r24, 0x01FE
    1fe6:	90 91 ff 01 	lds	r25, 0x01FF
    1fea:	90 93 40 05 	sts	0x0540, r25
    1fee:	80 93 3f 05 	sts	0x053F, r24

							write_string("Return Home Head ");write_var_ln(heading_hold);
    1ff2:	86 e8       	ldi	r24, 0x86	; 134
    1ff4:	91 e0       	ldi	r25, 0x01	; 1
    1ff6:	0e 94 67 13 	call	0x26ce	; 0x26ce <write_string>
    1ffa:	60 91 3f 05 	lds	r22, 0x053F
    1ffe:	70 91 40 05 	lds	r23, 0x0540
    2002:	88 27       	eor	r24, r24
    2004:	77 fd       	sbrc	r23, 7
    2006:	80 95       	com	r24
    2008:	98 2f       	mov	r25, r24
    200a:	0e 94 a9 13 	call	0x2752	; 0x2752 <write_var_ln>
							OLED_set_position(5,3);
    200e:	63 e0       	ldi	r22, 0x03	; 3
    2010:	85 e0       	ldi	r24, 0x05	; 5
    2012:	0e 94 7a 00 	call	0xf4	; 0xf4 <OLED_set_position>
							OLED_send_char_H();
    2016:	0e 94 be 00 	call	0x17c	; 0x17c <OLED_send_char_H>
							OLED_send_char_O();
    201a:	0e 94 00 01 	call	0x200	; 0x200 <OLED_send_char_O>
							OLED_send_char_M();
    201e:	0e 94 ea 00 	call	0x1d4	; 0x1d4 <OLED_send_char_M>
							OLED_send_char_E();
    2022:	0e 94 a8 00 	call	0x150	; 0x150 <OLED_send_char_E>
 						// Heading hold control	
 						// input: current heading, heading_command
 						// control: Phi	
 						// controller: PD control (as per Scilab the most efficient controller)
 						// when Phi positive we do a right turn, when Phi negative, we do a left turn
 						heading_error = heading_GPS - heading_hold;	// as per Simulation
    2026:	20 91 00 02 	lds	r18, 0x0200
    202a:	30 91 01 02 	lds	r19, 0x0201
    202e:	80 91 3f 05 	lds	r24, 0x053F
    2032:	90 91 40 05 	lds	r25, 0x0540
    2036:	28 1b       	sub	r18, r24
    2038:	39 0b       	sbc	r19, r25
 						// to identify which way to go we calculate commanded heading (do not travel 270 deg left, when shortest is 90 deg right)
 						int16_t heading_ctrl = 360 + heading_error;
    203a:	c9 01       	movw	r24, r18
    203c:	88 59       	subi	r24, 0x98	; 152
    203e:	9e 4f       	sbci	r25, 0xFE	; 254
						if (heading_ctrl < 180) heading_error = heading_ctrl;
    2040:	84 3b       	cpi	r24, 0xB4	; 180
    2042:	91 05       	cpc	r25, r1
    2044:	2c f0       	brlt	.+10     	; 0x2050 <__stack+0x17f1>
 						// Heading hold control	
 						// input: current heading, heading_command
 						// control: Phi	
 						// controller: PD control (as per Scilab the most efficient controller)
 						// when Phi positive we do a right turn, when Phi negative, we do a left turn
 						heading_error = heading_GPS - heading_hold;	// as per Simulation
    2046:	30 93 d9 04 	sts	0x04D9, r19
    204a:	20 93 d8 04 	sts	0x04D8, r18
    204e:	04 c0       	rjmp	.+8      	; 0x2058 <__stack+0x17f9>
 						// to identify which way to go we calculate commanded heading (do not travel 270 deg left, when shortest is 90 deg right)
 						int16_t heading_ctrl = 360 + heading_error;
						if (heading_ctrl < 180) heading_error = heading_ctrl;
    2050:	90 93 d9 04 	sts	0x04D9, r25
    2054:	80 93 d8 04 	sts	0x04D8, r24
 						heading_error_sum += heading_error;
    2058:	00 91 d8 04 	lds	r16, 0x04D8
    205c:	10 91 d9 04 	lds	r17, 0x04D9
    2060:	80 91 fc 01 	lds	r24, 0x01FC
    2064:	90 91 fd 01 	lds	r25, 0x01FD
    2068:	80 0f       	add	r24, r16
    206a:	91 1f       	adc	r25, r17
    206c:	90 93 fd 01 	sts	0x01FD, r25
    2070:	80 93 fc 01 	sts	0x01FC, r24
 						// The Phi_hold 0 does make sense when the sensor is not properly installed. 
 						// Otherwise it does not make sense!
 						Phi_hold = -(KP_HEAD*heading_error + KD_HEAD*(heading_error-heading_error_prev)*sample_time);
    2074:	80 90 ea 01 	lds	r8, 0x01EA
    2078:	90 90 eb 01 	lds	r9, 0x01EB
    207c:	a0 90 ec 01 	lds	r10, 0x01EC
    2080:	b0 90 ed 01 	lds	r11, 0x01ED
    2084:	b8 01       	movw	r22, r16
    2086:	88 27       	eor	r24, r24
    2088:	77 fd       	sbrc	r23, 7
    208a:	80 95       	com	r24
    208c:	98 2f       	mov	r25, r24
    208e:	0e 94 4b 15 	call	0x2a96	; 0x2a96 <__floatsisf>
    2092:	6b 01       	movw	r12, r22
    2094:	7c 01       	movw	r14, r24
    2096:	80 91 fc 04 	lds	r24, 0x04FC
    209a:	90 91 fd 04 	lds	r25, 0x04FD
    209e:	b8 01       	movw	r22, r16
    20a0:	68 1b       	sub	r22, r24
    20a2:	79 0b       	sbc	r23, r25
    20a4:	88 27       	eor	r24, r24
    20a6:	77 fd       	sbrc	r23, 7
    20a8:	80 95       	com	r24
    20aa:	98 2f       	mov	r25, r24
    20ac:	0e 94 4b 15 	call	0x2a96	; 0x2a96 <__floatsisf>
    20b0:	a5 01       	movw	r20, r10
    20b2:	94 01       	movw	r18, r8
    20b4:	0e 94 2b 16 	call	0x2c56	; 0x2c56 <__mulsf3>
    20b8:	9b 01       	movw	r18, r22
    20ba:	ac 01       	movw	r20, r24
    20bc:	c7 01       	movw	r24, r14
    20be:	b6 01       	movw	r22, r12
    20c0:	0e 94 e6 13 	call	0x27cc	; 0x27cc <__addsf3>
    20c4:	6b 01       	movw	r12, r22
    20c6:	7c 01       	movw	r14, r24
    20c8:	f7 fa       	bst	r15, 7
    20ca:	f0 94       	com	r15
    20cc:	f7 f8       	bld	r15, 7
    20ce:	f0 94       	com	r15
    20d0:	c0 92 de 04 	sts	0x04DE, r12
    20d4:	d0 92 df 04 	sts	0x04DF, r13
    20d8:	e0 92 e0 04 	sts	0x04E0, r14
    20dc:	f0 92 e1 04 	sts	0x04E1, r15
 						heading_error_prev = heading_error;
    20e0:	10 93 fd 04 	sts	0x04FD, r17
    20e4:	00 93 fc 04 	sts	0x04FC, r16
 						// Limiting the Bank Angle command to +- 10 maximum (= Saturation)
 						int8_t bank_limit = 10;
 						if (Phi_hold < -bank_limit) Phi_hold = -bank_limit;
    20e8:	20 e0       	ldi	r18, 0x00	; 0
    20ea:	30 e0       	ldi	r19, 0x00	; 0
    20ec:	40 e2       	ldi	r20, 0x20	; 32
    20ee:	51 ec       	ldi	r21, 0xC1	; 193
    20f0:	c7 01       	movw	r24, r14
    20f2:	b6 01       	movw	r22, r12
    20f4:	0e 94 ac 14 	call	0x2958	; 0x2958 <__cmpsf2>
    20f8:	88 23       	and	r24, r24
    20fa:	6c f4       	brge	.+26     	; 0x2116 <__stack+0x18b7>
    20fc:	80 e0       	ldi	r24, 0x00	; 0
    20fe:	90 e0       	ldi	r25, 0x00	; 0
    2100:	a0 e2       	ldi	r26, 0x20	; 32
    2102:	b1 ec       	ldi	r27, 0xC1	; 193
    2104:	80 93 de 04 	sts	0x04DE, r24
    2108:	90 93 df 04 	sts	0x04DF, r25
    210c:	a0 93 e0 04 	sts	0x04E0, r26
    2110:	b0 93 e1 04 	sts	0x04E1, r27
    2114:	16 c0       	rjmp	.+44     	; 0x2142 <__stack+0x18e3>
 						else if (Phi_hold > bank_limit) Phi_hold = bank_limit;
    2116:	20 e0       	ldi	r18, 0x00	; 0
    2118:	30 e0       	ldi	r19, 0x00	; 0
    211a:	40 e2       	ldi	r20, 0x20	; 32
    211c:	51 e4       	ldi	r21, 0x41	; 65
    211e:	c7 01       	movw	r24, r14
    2120:	b6 01       	movw	r22, r12
    2122:	0e 94 20 16 	call	0x2c40	; 0x2c40 <__gesf2>
    2126:	18 16       	cp	r1, r24
    2128:	64 f4       	brge	.+24     	; 0x2142 <__stack+0x18e3>
    212a:	80 e0       	ldi	r24, 0x00	; 0
    212c:	90 e0       	ldi	r25, 0x00	; 0
    212e:	a0 e2       	ldi	r26, 0x20	; 32
    2130:	b1 e4       	ldi	r27, 0x41	; 65
    2132:	80 93 de 04 	sts	0x04DE, r24
    2136:	90 93 df 04 	sts	0x04DF, r25
    213a:	a0 93 e0 04 	sts	0x04E0, r26
    213e:	b0 93 e1 04 	sts	0x04E1, r27
						
						// *********************************************	
						// Bank angle control with aileron
						// Input: Phi_hold = Phi_command
						// Output: Aileron Command
						Phi_error =  Phi_hold_0 - Phi;		// as per Simulation in Scilab
    2142:	60 91 35 02 	lds	r22, 0x0235
    2146:	70 91 36 02 	lds	r23, 0x0236
    214a:	88 27       	eor	r24, r24
    214c:	77 fd       	sbrc	r23, 7
    214e:	80 95       	com	r24
    2150:	98 2f       	mov	r25, r24
    2152:	0e 94 4b 15 	call	0x2a96	; 0x2a96 <__floatsisf>
    2156:	9b 01       	movw	r18, r22
    2158:	ac 01       	movw	r20, r24
    215a:	60 91 31 02 	lds	r22, 0x0231
    215e:	70 91 32 02 	lds	r23, 0x0232
    2162:	80 91 33 02 	lds	r24, 0x0233
    2166:	90 91 34 02 	lds	r25, 0x0234
    216a:	0e 94 e5 13 	call	0x27ca	; 0x27ca <__subsf3>
    216e:	06 2f       	mov	r16, r22
    2170:	17 2f       	mov	r17, r23
    2172:	28 2e       	mov	r2, r24
    2174:	39 2e       	mov	r3, r25
    2176:	86 2f       	mov	r24, r22
    2178:	91 2f       	mov	r25, r17
    217a:	a2 2d       	mov	r26, r2
    217c:	b3 2d       	mov	r27, r3
    217e:	80 93 2d 02 	sts	0x022D, r24
    2182:	90 93 2e 02 	sts	0x022E, r25
    2186:	a0 93 2f 02 	sts	0x022F, r26
    218a:	b0 93 30 02 	sts	0x0230, r27
						Phi_error_sum += Phi_error;
    218e:	20 91 29 02 	lds	r18, 0x0229
    2192:	30 91 2a 02 	lds	r19, 0x022A
    2196:	40 91 2b 02 	lds	r20, 0x022B
    219a:	50 91 2c 02 	lds	r21, 0x022C
    219e:	60 2f       	mov	r22, r16
    21a0:	71 2f       	mov	r23, r17
    21a2:	82 2d       	mov	r24, r2
    21a4:	93 2d       	mov	r25, r3
    21a6:	0e 94 e6 13 	call	0x27cc	; 0x27cc <__addsf3>
    21aa:	c6 2e       	mov	r12, r22
    21ac:	d7 2e       	mov	r13, r23
    21ae:	e8 2e       	mov	r14, r24
    21b0:	f9 2e       	mov	r15, r25
    21b2:	86 2f       	mov	r24, r22
    21b4:	9d 2d       	mov	r25, r13
    21b6:	ae 2d       	mov	r26, r14
    21b8:	bf 2d       	mov	r27, r15
    21ba:	80 93 29 02 	sts	0x0229, r24
    21be:	90 93 2a 02 	sts	0x022A, r25
    21c2:	a0 93 2b 02 	sts	0x022B, r26
    21c6:	b0 93 2c 02 	sts	0x022C, r27
						ctrl_out_PID[aileron] = (KP_PHI*Phi_error + KI_PHI*Phi_error_sum*sample_time + KD_PHI*((-Phi_error_prev + Phi_error)/(sample_time*3)));
    21ca:	20 e0       	ldi	r18, 0x00	; 0
    21cc:	30 e0       	ldi	r19, 0x00	; 0
    21ce:	40 e2       	ldi	r20, 0x20	; 32
    21d0:	51 e4       	ldi	r21, 0x41	; 65
    21d2:	60 2f       	mov	r22, r16
    21d4:	71 2f       	mov	r23, r17
    21d6:	82 2d       	mov	r24, r2
    21d8:	93 2d       	mov	r25, r3
    21da:	0e 94 2b 16 	call	0x2c56	; 0x2c56 <__mulsf3>
    21de:	2b 01       	movw	r4, r22
    21e0:	3c 01       	movw	r6, r24
    21e2:	20 e0       	ldi	r18, 0x00	; 0
    21e4:	30 e0       	ldi	r19, 0x00	; 0
    21e6:	40 e2       	ldi	r20, 0x20	; 32
    21e8:	51 e4       	ldi	r21, 0x41	; 65
    21ea:	6c 2d       	mov	r22, r12
    21ec:	7d 2d       	mov	r23, r13
    21ee:	8e 2d       	mov	r24, r14
    21f0:	9f 2d       	mov	r25, r15
    21f2:	0e 94 2b 16 	call	0x2c56	; 0x2c56 <__mulsf3>
    21f6:	9b 01       	movw	r18, r22
    21f8:	ac 01       	movw	r20, r24
    21fa:	c5 01       	movw	r24, r10
    21fc:	b4 01       	movw	r22, r8
    21fe:	0e 94 2b 16 	call	0x2c56	; 0x2c56 <__mulsf3>
    2202:	9b 01       	movw	r18, r22
    2204:	ac 01       	movw	r20, r24
    2206:	c3 01       	movw	r24, r6
    2208:	b2 01       	movw	r22, r4
    220a:	0e 94 e6 13 	call	0x27cc	; 0x27cc <__addsf3>
    220e:	2b 01       	movw	r4, r22
    2210:	3c 01       	movw	r6, r24
    2212:	20 91 25 02 	lds	r18, 0x0225
    2216:	30 91 26 02 	lds	r19, 0x0226
    221a:	40 91 27 02 	lds	r20, 0x0227
    221e:	50 91 28 02 	lds	r21, 0x0228
    2222:	60 2f       	mov	r22, r16
    2224:	71 2f       	mov	r23, r17
    2226:	82 2d       	mov	r24, r2
    2228:	93 2d       	mov	r25, r3
    222a:	0e 94 e5 13 	call	0x27ca	; 0x27ca <__subsf3>
    222e:	6b 01       	movw	r12, r22
    2230:	7c 01       	movw	r14, r24
    2232:	20 e0       	ldi	r18, 0x00	; 0
    2234:	30 e0       	ldi	r19, 0x00	; 0
    2236:	40 e4       	ldi	r20, 0x40	; 64
    2238:	50 e4       	ldi	r21, 0x40	; 64
    223a:	c5 01       	movw	r24, r10
    223c:	b4 01       	movw	r22, r8
    223e:	0e 94 2b 16 	call	0x2c56	; 0x2c56 <__mulsf3>
    2242:	9b 01       	movw	r18, r22
    2244:	ac 01       	movw	r20, r24
    2246:	c7 01       	movw	r24, r14
    2248:	b6 01       	movw	r22, r12
    224a:	0e 94 b0 14 	call	0x2960	; 0x2960 <__divsf3>
    224e:	9b 01       	movw	r18, r22
    2250:	ac 01       	movw	r20, r24
    2252:	0e 94 e6 13 	call	0x27cc	; 0x27cc <__addsf3>
    2256:	9b 01       	movw	r18, r22
    2258:	ac 01       	movw	r20, r24
    225a:	c3 01       	movw	r24, r6
    225c:	b2 01       	movw	r22, r4
    225e:	0e 94 e6 13 	call	0x27cc	; 0x27cc <__addsf3>
    2262:	0e 94 18 15 	call	0x2a30	; 0x2a30 <__fixsfsi>
    2266:	60 93 c0 01 	sts	0x01C0, r22
    226a:	70 93 c1 01 	sts	0x01C1, r23
    226e:	80 93 c2 01 	sts	0x01C2, r24
    2272:	90 93 c3 01 	sts	0x01C3, r25
						test_cnt2++;
    2276:	80 91 f0 01 	lds	r24, 0x01F0
    227a:	8f 5f       	subi	r24, 0xFF	; 255
    227c:	80 93 f0 01 	sts	0x01F0, r24
						if (test_cnt2 == 3)
    2280:	83 30       	cpi	r24, 0x03	; 3
    2282:	71 f4       	brne	.+28     	; 0x22a0 <__stack+0x1a41>
						{
							Phi_error_prev = Phi_error;
    2284:	80 2f       	mov	r24, r16
    2286:	91 2f       	mov	r25, r17
    2288:	a2 2d       	mov	r26, r2
    228a:	b3 2d       	mov	r27, r3
    228c:	80 93 25 02 	sts	0x0225, r24
    2290:	90 93 26 02 	sts	0x0226, r25
    2294:	a0 93 27 02 	sts	0x0227, r26
    2298:	b0 93 28 02 	sts	0x0228, r27
							test_cnt2 = 0;
    229c:	10 92 f0 01 	sts	0x01F0, r1
						
						//***********************************************
						// Damping of Bank Angle
						// Input: turn rate p
						// Output: aileron damping
						ctrl_out_DAMP[aileron] = K_d_p * (p_filt);					
    22a0:	90 91 88 00 	lds	r25, 0x0088
    22a4:	80 91 2c 05 	lds	r24, 0x052C
    22a8:	98 02       	muls	r25, r24
    22aa:	c0 01       	movw	r24, r0
    22ac:	11 24       	eor	r1, r1
    22ae:	aa 27       	eor	r26, r26
    22b0:	97 fd       	sbrc	r25, 7
    22b2:	a0 95       	com	r26
    22b4:	ba 2f       	mov	r27, r26
    22b6:	e4 ea       	ldi	r30, 0xA4	; 164
    22b8:	f1 e0       	ldi	r31, 0x01	; 1
    22ba:	80 83       	st	Z, r24
    22bc:	91 83       	std	Z+1, r25	; 0x01
    22be:	a2 83       	std	Z+2, r26	; 0x02
    22c0:	b3 83       	std	Z+3, r27	; 0x03
						//***********************************************
						
						//******************************************************
						// Combining the calculated inputs elevator and limiting elevator command
						ctrl_out[aileron] = trimmed_aileron + ctrl_out_PID[aileron] - ctrl_out_DAMP[aileron];
    22c2:	00 91 c0 01 	lds	r16, 0x01C0
    22c6:	10 91 c1 01 	lds	r17, 0x01C1
    22ca:	20 91 c2 01 	lds	r18, 0x01C2
    22ce:	30 91 c3 01 	lds	r19, 0x01C3
    22d2:	40 81       	ld	r20, Z
    22d4:	51 81       	ldd	r21, Z+1	; 0x01
    22d6:	62 81       	ldd	r22, Z+2	; 0x02
    22d8:	73 81       	ldd	r23, Z+3	; 0x03
    22da:	80 91 4a 02 	lds	r24, 0x024A
    22de:	90 91 4b 02 	lds	r25, 0x024B
    22e2:	a0 91 4c 02 	lds	r26, 0x024C
    22e6:	b0 91 4d 02 	lds	r27, 0x024D
    22ea:	80 0f       	add	r24, r16
    22ec:	91 1f       	adc	r25, r17
    22ee:	a2 1f       	adc	r26, r18
    22f0:	b3 1f       	adc	r27, r19
    22f2:	84 1b       	sub	r24, r20
    22f4:	95 0b       	sbc	r25, r21
    22f6:	a6 0b       	sbc	r26, r22
    22f8:	b7 0b       	sbc	r27, r23
    22fa:	e4 e6       	ldi	r30, 0x64	; 100
    22fc:	f0 e0       	ldi	r31, 0x00	; 0
    22fe:	80 83       	st	Z, r24
    2300:	91 83       	std	Z+1, r25	; 0x01
    2302:	a2 83       	std	Z+2, r26	; 0x02
    2304:	b3 83       	std	Z+3, r27	; 0x03
						if(ctrl_out[aileron] > RIGHT) ctrl_out[aileron] = RIGHT;
    2306:	80 81       	ld	r24, Z
    2308:	91 81       	ldd	r25, Z+1	; 0x01
    230a:	a2 81       	ldd	r26, Z+2	; 0x02
    230c:	b3 81       	ldd	r27, Z+3	; 0x03
    230e:	89 3b       	cpi	r24, 0xB9	; 185
    2310:	9b 40       	sbci	r25, 0x0B	; 11
    2312:	a1 05       	cpc	r26, r1
    2314:	b1 05       	cpc	r27, r1
    2316:	6c f0       	brlt	.+26     	; 0x2332 <__stack+0x1ad3>
    2318:	88 eb       	ldi	r24, 0xB8	; 184
    231a:	9b e0       	ldi	r25, 0x0B	; 11
    231c:	a0 e0       	ldi	r26, 0x00	; 0
    231e:	b0 e0       	ldi	r27, 0x00	; 0
    2320:	80 93 64 00 	sts	0x0064, r24
    2324:	90 93 65 00 	sts	0x0065, r25
    2328:	a0 93 66 00 	sts	0x0066, r26
    232c:	b0 93 67 00 	sts	0x0067, r27
    2330:	19 c0       	rjmp	.+50     	; 0x2364 <__stack+0x1b05>
						else if (ctrl_out[aileron] < LEFT) ctrl_out[aileron] = LEFT;
    2332:	80 91 64 00 	lds	r24, 0x0064
    2336:	90 91 65 00 	lds	r25, 0x0065
    233a:	a0 91 66 00 	lds	r26, 0x0066
    233e:	b0 91 67 00 	lds	r27, 0x0067
    2342:	88 3e       	cpi	r24, 0xE8	; 232
    2344:	93 40       	sbci	r25, 0x03	; 3
    2346:	a1 05       	cpc	r26, r1
    2348:	b1 05       	cpc	r27, r1
    234a:	64 f4       	brge	.+24     	; 0x2364 <__stack+0x1b05>
    234c:	88 ee       	ldi	r24, 0xE8	; 232
    234e:	93 e0       	ldi	r25, 0x03	; 3
    2350:	a0 e0       	ldi	r26, 0x00	; 0
    2352:	b0 e0       	ldi	r27, 0x00	; 0
    2354:	80 93 64 00 	sts	0x0064, r24
    2358:	90 93 65 00 	sts	0x0065, r25
    235c:	a0 93 66 00 	sts	0x0066, r26
    2360:	b0 93 67 00 	sts	0x0067, r27
						//*********************************************
						
						//*********************************************
						// Damping of yaw
						ctrl_out_DAMP[rudder] = K_d_r * (r_filt);
    2364:	90 91 89 00 	lds	r25, 0x0089
    2368:	80 91 39 02 	lds	r24, 0x0239
    236c:	98 02       	muls	r25, r24
    236e:	c0 01       	movw	r24, r0
    2370:	11 24       	eor	r1, r1
    2372:	aa 27       	eor	r26, r26
    2374:	97 fd       	sbrc	r25, 7
    2376:	a0 95       	com	r26
    2378:	ba 2f       	mov	r27, r26
    237a:	ec ea       	ldi	r30, 0xAC	; 172
    237c:	f1 e0       	ldi	r31, 0x01	; 1
    237e:	80 83       	st	Z, r24
    2380:	91 83       	std	Z+1, r25	; 0x01
    2382:	a2 83       	std	Z+2, r26	; 0x02
    2384:	b3 83       	std	Z+3, r27	; 0x03
						ctrl_out[rudder] = trimmed_rudder + ctrl_out_DAMP[rudder];
    2386:	40 81       	ld	r20, Z
    2388:	51 81       	ldd	r21, Z+1	; 0x01
    238a:	62 81       	ldd	r22, Z+2	; 0x02
    238c:	73 81       	ldd	r23, Z+3	; 0x03
    238e:	80 91 46 02 	lds	r24, 0x0246
    2392:	90 91 47 02 	lds	r25, 0x0247
    2396:	a0 91 48 02 	lds	r26, 0x0248
    239a:	b0 91 49 02 	lds	r27, 0x0249
    239e:	84 0f       	add	r24, r20
    23a0:	95 1f       	adc	r25, r21
    23a2:	a6 1f       	adc	r26, r22
    23a4:	b7 1f       	adc	r27, r23
    23a6:	80 93 6c 00 	sts	0x006C, r24
    23aa:	90 93 6d 00 	sts	0x006D, r25
    23ae:	a0 93 6e 00 	sts	0x006E, r26
    23b2:	b0 93 6f 00 	sts	0x006F, r27
						
						//**********************************************
						// SPEED CONTROL AUTOPILOT
						
 						// Speed control (PI only -> noisy signal) with motor
 						speed_error = speed_hold - speed_filt; // Positive Error (too slow) shall give positive input (motor increase)
    23b6:	60 91 da 04 	lds	r22, 0x04DA
    23ba:	70 91 db 04 	lds	r23, 0x04DB
    23be:	88 27       	eor	r24, r24
    23c0:	77 fd       	sbrc	r23, 7
    23c2:	80 95       	com	r24
    23c4:	98 2f       	mov	r25, r24
    23c6:	0e 94 4b 15 	call	0x2a96	; 0x2a96 <__floatsisf>
    23ca:	9b 01       	movw	r18, r22
    23cc:	ac 01       	movw	r20, r24
    23ce:	60 91 46 05 	lds	r22, 0x0546
    23d2:	70 91 47 05 	lds	r23, 0x0547
    23d6:	80 91 48 05 	lds	r24, 0x0548
    23da:	90 91 49 05 	lds	r25, 0x0549
    23de:	0e 94 e5 13 	call	0x27ca	; 0x27ca <__subsf3>
    23e2:	06 2f       	mov	r16, r22
    23e4:	17 2f       	mov	r17, r23
    23e6:	28 2e       	mov	r2, r24
    23e8:	39 2e       	mov	r3, r25
    23ea:	86 2f       	mov	r24, r22
    23ec:	91 2f       	mov	r25, r17
    23ee:	a2 2d       	mov	r26, r2
    23f0:	b3 2d       	mov	r27, r3
    23f2:	80 93 ee 04 	sts	0x04EE, r24
    23f6:	90 93 ef 04 	sts	0x04EF, r25
    23fa:	a0 93 f0 04 	sts	0x04F0, r26
    23fe:	b0 93 f1 04 	sts	0x04F1, r27
 						speed_error_sum += speed_error;
    2402:	20 91 22 05 	lds	r18, 0x0522
    2406:	30 91 23 05 	lds	r19, 0x0523
    240a:	40 91 24 05 	lds	r20, 0x0524
    240e:	50 91 25 05 	lds	r21, 0x0525
    2412:	60 2f       	mov	r22, r16
    2414:	71 2f       	mov	r23, r17
    2416:	82 2d       	mov	r24, r2
    2418:	93 2d       	mov	r25, r3
    241a:	0e 94 e6 13 	call	0x27cc	; 0x27cc <__addsf3>
    241e:	c6 2e       	mov	r12, r22
    2420:	d7 2e       	mov	r13, r23
    2422:	e8 2e       	mov	r14, r24
    2424:	f9 2e       	mov	r15, r25
    2426:	86 2f       	mov	r24, r22
    2428:	9d 2d       	mov	r25, r13
    242a:	ae 2d       	mov	r26, r14
    242c:	bf 2d       	mov	r27, r15
    242e:	80 93 22 05 	sts	0x0522, r24
    2432:	90 93 23 05 	sts	0x0523, r25
    2436:	a0 93 24 05 	sts	0x0524, r26
    243a:	b0 93 25 05 	sts	0x0525, r27
 						// when too slow (bracket turns positive) the motor gets increased
 						ctrl_out[motor] = trimmed_motor + KP_SPEED*speed_error + (KI_SPEED * speed_error_sum * sample_time);
    243e:	60 91 4e 02 	lds	r22, 0x024E
    2442:	70 91 4f 02 	lds	r23, 0x024F
    2446:	80 91 50 02 	lds	r24, 0x0250
    244a:	90 91 51 02 	lds	r25, 0x0251
    244e:	0e 94 4b 15 	call	0x2a96	; 0x2a96 <__floatsisf>
    2452:	2b 01       	movw	r4, r22
    2454:	3c 01       	movw	r6, r24
    2456:	20 e0       	ldi	r18, 0x00	; 0
    2458:	30 e0       	ldi	r19, 0x00	; 0
    245a:	40 ea       	ldi	r20, 0xA0	; 160
    245c:	50 e4       	ldi	r21, 0x40	; 64
    245e:	60 2f       	mov	r22, r16
    2460:	71 2f       	mov	r23, r17
    2462:	82 2d       	mov	r24, r2
    2464:	93 2d       	mov	r25, r3
    2466:	0e 94 2b 16 	call	0x2c56	; 0x2c56 <__mulsf3>
    246a:	9b 01       	movw	r18, r22
    246c:	ac 01       	movw	r20, r24
    246e:	c3 01       	movw	r24, r6
    2470:	b2 01       	movw	r22, r4
    2472:	0e 94 e6 13 	call	0x27cc	; 0x27cc <__addsf3>
    2476:	2b 01       	movw	r4, r22
    2478:	3c 01       	movw	r6, r24
    247a:	20 e0       	ldi	r18, 0x00	; 0
    247c:	30 e0       	ldi	r19, 0x00	; 0
    247e:	40 e4       	ldi	r20, 0x40	; 64
    2480:	50 e4       	ldi	r21, 0x40	; 64
    2482:	6c 2d       	mov	r22, r12
    2484:	7d 2d       	mov	r23, r13
    2486:	8e 2d       	mov	r24, r14
    2488:	9f 2d       	mov	r25, r15
    248a:	0e 94 2b 16 	call	0x2c56	; 0x2c56 <__mulsf3>
    248e:	9b 01       	movw	r18, r22
    2490:	ac 01       	movw	r20, r24
    2492:	c5 01       	movw	r24, r10
    2494:	b4 01       	movw	r22, r8
    2496:	0e 94 2b 16 	call	0x2c56	; 0x2c56 <__mulsf3>
    249a:	9b 01       	movw	r18, r22
    249c:	ac 01       	movw	r20, r24
    249e:	c3 01       	movw	r24, r6
    24a0:	b2 01       	movw	r22, r4
    24a2:	0e 94 e6 13 	call	0x27cc	; 0x27cc <__addsf3>
    24a6:	0e 94 18 15 	call	0x2a30	; 0x2a30 <__fixsfsi>
    24aa:	e0 e6       	ldi	r30, 0x60	; 96
    24ac:	f0 e0       	ldi	r31, 0x00	; 0
    24ae:	60 83       	st	Z, r22
    24b0:	71 83       	std	Z+1, r23	; 0x01
    24b2:	82 83       	std	Z+2, r24	; 0x02
    24b4:	93 83       	std	Z+3, r25	; 0x03
 						//write_var(KI_SPEED * speed_error_sum * sample_time);write_string(";");
 						if(ctrl_out[motor] > MOTOR_LIM_HI)
    24b6:	80 81       	ld	r24, Z
    24b8:	91 81       	ldd	r25, Z+1	; 0x01
    24ba:	a2 81       	ldd	r26, Z+2	; 0x02
    24bc:	b3 81       	ldd	r27, Z+3	; 0x03
    24be:	89 3b       	cpi	r24, 0xB9	; 185
    24c0:	9b 40       	sbci	r25, 0x0B	; 11
    24c2:	a1 05       	cpc	r26, r1
    24c4:	b1 05       	cpc	r27, r1
    24c6:	6c f0       	brlt	.+26     	; 0x24e2 <__stack+0x1c83>
 						{
	 						ctrl_out[motor] = MOTOR_LIM_HI;
    24c8:	88 eb       	ldi	r24, 0xB8	; 184
    24ca:	9b e0       	ldi	r25, 0x0B	; 11
    24cc:	a0 e0       	ldi	r26, 0x00	; 0
    24ce:	b0 e0       	ldi	r27, 0x00	; 0
    24d0:	80 93 60 00 	sts	0x0060, r24
    24d4:	90 93 61 00 	sts	0x0061, r25
    24d8:	a0 93 62 00 	sts	0x0062, r26
    24dc:	b0 93 63 00 	sts	0x0063, r27
    24e0:	19 c0       	rjmp	.+50     	; 0x2514 <__stack+0x1cb5>
	 						//speed_error_sum -= speed_error; // to stop
 						}
 						else if (ctrl_out[motor] < MOTOR_LIM_LOW)
    24e2:	80 91 60 00 	lds	r24, 0x0060
    24e6:	90 91 61 00 	lds	r25, 0x0061
    24ea:	a0 91 62 00 	lds	r26, 0x0062
    24ee:	b0 91 63 00 	lds	r27, 0x0063
    24f2:	8a 3e       	cpi	r24, 0xEA	; 234
    24f4:	96 40       	sbci	r25, 0x06	; 6
    24f6:	a1 05       	cpc	r26, r1
    24f8:	b1 05       	cpc	r27, r1
    24fa:	64 f4       	brge	.+24     	; 0x2514 <__stack+0x1cb5>
 						{
	 						ctrl_out[motor] = MOTOR_LIM_LOW;
    24fc:	8a ee       	ldi	r24, 0xEA	; 234
    24fe:	96 e0       	ldi	r25, 0x06	; 6
    2500:	a0 e0       	ldi	r26, 0x00	; 0
    2502:	b0 e0       	ldi	r27, 0x00	; 0
    2504:	80 93 60 00 	sts	0x0060, r24
    2508:	90 93 61 00 	sts	0x0061, r25
    250c:	a0 93 62 00 	sts	0x0062, r26
    2510:	b0 93 63 00 	sts	0x0063, r27
	 						//speed_error_sum -= speed_error;
 						}
 						speed_error_prev = speed_error;
    2514:	80 2f       	mov	r24, r16
    2516:	91 2f       	mov	r25, r17
    2518:	a2 2d       	mov	r26, r2
    251a:	b3 2d       	mov	r27, r3
    251c:	80 93 3a 02 	sts	0x023A, r24
    2520:	90 93 3b 02 	sts	0x023B, r25
    2524:	a0 93 3c 02 	sts	0x023C, r26
    2528:	b0 93 3d 02 	sts	0x023D, r27
					
						write_string_ln(";");
					}
					if (SERIAL_TEL == TRUE)
					{
						if (telemetry_cnt >= 7)
    252c:	80 91 f2 01 	lds	r24, 0x01F2
    2530:	87 30       	cpi	r24, 0x07	; 7
    2532:	b8 f1       	brcs	.+110    	; 0x25a2 <__stack+0x1d43>
						{
							
							send_ubyte(0x5E);		// START BYTE
    2534:	8e e5       	ldi	r24, 0x5E	; 94
    2536:	0e 94 cf 13 	call	0x279e	; 0x279e <send_ubyte>
							send_ubyte(0x10);		// ID 10 =  Baro Altitude
    253a:	80 e1       	ldi	r24, 0x10	; 16
    253c:	0e 94 cf 13 	call	0x279e	; 0x279e <send_ubyte>
							int16_t alt_temp = 12;
							send_sshort_tel(altitude_filt);	// Data
    2540:	80 91 1c 05 	lds	r24, 0x051C
    2544:	90 91 1d 05 	lds	r25, 0x051D
    2548:	0e 94 d3 13 	call	0x27a6	; 0x27a6 <send_sshort_tel>
							//send_sshort_tel(alt_temp);	// Data
							send_ubyte(0x5E);		// END BYTE
    254c:	8e e5       	ldi	r24, 0x5E	; 94
    254e:	0e 94 cf 13 	call	0x279e	; 0x279e <send_ubyte>
							
							send_ubyte(0x5E);		// START BYTE
    2552:	8e e5       	ldi	r24, 0x5E	; 94
    2554:	0e 94 cf 13 	call	0x279e	; 0x279e <send_ubyte>
							send_ubyte(0x11);		// ID 11 =  Speed
    2558:	81 e1       	ldi	r24, 0x11	; 17
    255a:	0e 94 cf 13 	call	0x279e	; 0x279e <send_ubyte>
							int16_t speed_temp = (sqrt(6.64*speed_filt))*3.6;
    255e:	60 91 da 04 	lds	r22, 0x04DA
    2562:	70 91 db 04 	lds	r23, 0x04DB
    2566:	88 27       	eor	r24, r24
    2568:	77 fd       	sbrc	r23, 7
    256a:	80 95       	com	r24
    256c:	98 2f       	mov	r25, r24
    256e:	0e 94 4b 15 	call	0x2a96	; 0x2a96 <__floatsisf>
    2572:	21 ee       	ldi	r18, 0xE1	; 225
    2574:	3a e7       	ldi	r19, 0x7A	; 122
    2576:	44 ed       	ldi	r20, 0xD4	; 212
    2578:	50 e4       	ldi	r21, 0x40	; 64
    257a:	0e 94 2b 16 	call	0x2c56	; 0x2c56 <__mulsf3>
    257e:	0e 94 92 16 	call	0x2d24	; 0x2d24 <sqrt>
    2582:	26 e6       	ldi	r18, 0x66	; 102
    2584:	36 e6       	ldi	r19, 0x66	; 102
    2586:	46 e6       	ldi	r20, 0x66	; 102
    2588:	50 e4       	ldi	r21, 0x40	; 64
    258a:	0e 94 2b 16 	call	0x2c56	; 0x2c56 <__mulsf3>
    258e:	0e 94 18 15 	call	0x2a30	; 0x2a30 <__fixsfsi>
							send_ushort_tel(speed_temp);	// Data
    2592:	cb 01       	movw	r24, r22
    2594:	0e 94 dc 13 	call	0x27b8	; 0x27b8 <send_ushort_tel>
								// 1 = 
								// 10 = 8 m/s = 29 km/h
								// 11 = 8,5 m/s = 30 km/h
								// 15 = 9,9 m/s = 35,5 km/h
								
							send_ubyte(0x5E);		// END BYTE
    2598:	8e e5       	ldi	r24, 0x5E	; 94
    259a:	0e 94 cf 13 	call	0x279e	; 0x279e <send_ubyte>
							
							telemetry_cnt = 0;
    259e:	10 92 f2 01 	sts	0x01F2, r1
						}
						telemetry_cnt++;
    25a2:	80 91 f2 01 	lds	r24, 0x01F2
    25a6:	8f 5f       	subi	r24, 0xFF	; 255
    25a8:	80 93 f2 01 	sts	0x01F2, r24

					}
					
					
					
				Ctrl_Mode_prev = Ctrl_Mode;		// Setting previous State
    25ac:	80 91 59 02 	lds	r24, 0x0259
    25b0:	80 93 58 02 	sts	0x0258, r24
				
				ctrl_in_prev[9] = ctrl_in;
    25b4:	e8 ed       	ldi	r30, 0xD8	; 216
    25b6:	f1 e0       	ldi	r31, 0x01	; 1
    25b8:	ac ea       	ldi	r26, 0xAC	; 172
    25ba:	b4 e0       	ldi	r27, 0x04	; 4
    25bc:	11 96       	adiw	r26, 0x01	; 1
    25be:	fc 93       	st	X, r31
    25c0:	ee 93       	st	-X, r30
				//GPS_string_prev[GPS_LONGITUDE][] = GPS_string[GPS_LONGITUDE];
			}		
			
			
			// Toggling the Watchdog (Reset)
			wdt_reset();
    25c2:	a8 95       	wdr
    }
    25c4:	0c 94 be 03 	jmp	0x77c	; 0x77c <main+0xa4>

000025c8 <init_uart>:
// UART initialization
void init_uart()
{
	// USART Initialization
	// USCSRB Register
	cli();	//that is needed essentially (turn off interrupts shortly)
    25c8:	f8 94       	cli
	UCSRB = (0<<UCSZ2)|(1<<TXEN)|(1<<RXEN)|(1<<RXCIE);//|(1<<UDRIE);
    25ca:	88 e9       	ldi	r24, 0x98	; 152
    25cc:	8a b9       	out	0x0a, r24	; 10
	UCSRC = (1<<URSEL)|(1<<UCSZ1)|(1<<UCSZ0);
    25ce:	86 e8       	ldi	r24, 0x86	; 134
    25d0:	80 bd       	out	0x20, r24	; 32
	// Need to be in line with the baudrate!
	// Baudrate: 12 MHZ prozessor
	uint16_t baudrate = 57600; // achtung: bei geringen baudraten msste evtl das URRH auch noch beschrieben werden...
	int8_t baud_calc = (F_CPU/(baudrate*16))-1;
	UBRRH = 0x00;
    25d2:	10 bc       	out	0x20, r1	; 32
	//UBRRL = 0x0C;	// 57600
	UBRRL = 0x4D;	// 9600
    25d4:	8d e4       	ldi	r24, 0x4D	; 77
    25d6:	89 b9       	out	0x09, r24	; 9
	
	sei();	//that is needed essentially (turn on interrupts globally)
    25d8:	78 94       	sei
	// das UDR auslesen, falls daten drin sind und verwerfen
	do
    {
        UDR;
    25da:	8c b1       	in	r24, 0x0c	; 12
    }
    while (UCSRA & (1 << RXC));	//solange das receive bit gesetzt ist
    25dc:	5f 99       	sbic	0x0b, 7	; 11
    25de:	fd cf       	rjmp	.-6      	; 0x25da <init_uart+0x12>
	
}
    25e0:	08 95       	ret

000025e2 <__vector_13>:


// UART receive interrupt routine
ISR (USART_RXC_vect)
{
    25e2:	1f 92       	push	r1
    25e4:	0f 92       	push	r0
    25e6:	0f b6       	in	r0, 0x3f	; 63
    25e8:	0f 92       	push	r0
    25ea:	11 24       	eor	r1, r1
    25ec:	2f 93       	push	r18
    25ee:	8f 93       	push	r24
    25f0:	9f 93       	push	r25
    25f2:	ef 93       	push	r30
    25f4:	ff 93       	push	r31
	// the UDR is read in number	
    uart_reading_ascii = UDR;
    25f6:	8c b1       	in	r24, 0x0c	; 12
    25f8:	80 93 bd 03 	sts	0x03BD, r24
    25fc:	10 92 be 03 	sts	0x03BE, r1
	// the ascii number will be converted to char
	uart_reading = (char) uart_reading_ascii;
    2600:	80 93 bc 03 	sts	0x03BC, r24
	UART_READY_FLAG	= FALSE;
    2604:	10 92 5b 02 	sts	0x025B, r1
	if(GPS_ACTIVE)
	{

		if (uart_reading == '$')	/* The GPS string always starts with a $ sign to indicate new data*/
    2608:	80 91 bc 03 	lds	r24, 0x03BC
    260c:	84 32       	cpi	r24, 0x24	; 36
    260e:	a1 f4       	brne	.+40     	; 0x2638 <__vector_13+0x56>
		{
			// always terminate a string with \0
			GPS_string[GPS_param][GPS_char] = '\0';
    2610:	e0 91 5a 02 	lds	r30, 0x025A
    2614:	80 91 4e 05 	lds	r24, 0x054E
    2618:	2b e0       	ldi	r18, 0x0B	; 11
    261a:	e2 02       	muls	r30, r18
    261c:	f0 01       	movw	r30, r0
    261e:	11 24       	eor	r1, r1
    2620:	e8 0f       	add	r30, r24
    2622:	f1 1d       	adc	r31, r1
    2624:	87 fd       	sbrc	r24, 7
    2626:	fa 95       	dec	r31
    2628:	e1 54       	subi	r30, 0x41	; 65
    262a:	fc 4f       	sbci	r31, 0xFC	; 252
    262c:	10 82       	st	Z, r1
			// reset position
			GPS_char = 0;
    262e:	10 92 4e 05 	sts	0x054E, r1
			// reset row = parameter
			GPS_param = 0;
    2632:	10 92 5a 02 	sts	0x025A, r1
    2636:	3d c0       	rjmp	.+122    	; 0x26b2 <__vector_13+0xd0>
		}
		else if ((uart_reading == ','))	/*the information in the GPS string is separated by commata */
    2638:	80 91 bc 03 	lds	r24, 0x03BC
    263c:	8c 32       	cpi	r24, 0x2C	; 44
    263e:	a9 f4       	brne	.+42     	; 0x266a <__vector_13+0x88>
		{
			// always terminate a string with \0
			GPS_string[GPS_param][GPS_char] = '\0';
    2640:	80 91 5a 02 	lds	r24, 0x025A
    2644:	90 91 4e 05 	lds	r25, 0x054E
    2648:	2b e0       	ldi	r18, 0x0B	; 11
    264a:	82 02       	muls	r24, r18
    264c:	f0 01       	movw	r30, r0
    264e:	11 24       	eor	r1, r1
    2650:	e9 0f       	add	r30, r25
    2652:	f1 1d       	adc	r31, r1
    2654:	97 fd       	sbrc	r25, 7
    2656:	fa 95       	dec	r31
    2658:	e1 54       	subi	r30, 0x41	; 65
    265a:	fc 4f       	sbci	r31, 0xFC	; 252
    265c:	10 82       	st	Z, r1
			// jump to start
			GPS_char = 0;
    265e:	10 92 4e 05 	sts	0x054E, r1
			// increase row = parameter
			GPS_param++;
    2662:	8f 5f       	subi	r24, 0xFF	; 255
    2664:	80 93 5a 02 	sts	0x025A, r24
    2668:	24 c0       	rjmp	.+72     	; 0x26b2 <__vector_13+0xd0>
		}
		else if ((uart_reading == '.'))	/*the decimal point will have problems to be converted*/
    266a:	80 91 bc 03 	lds	r24, 0x03BC
    266e:	8e 32       	cpi	r24, 0x2E	; 46
    2670:	01 f1       	breq	.+64     	; 0x26b2 <__vector_13+0xd0>
		{
			// skip the decimal point as it will give problems when converting to integer
		}
		else if ((uart_reading == '\n'))	/*GPS is sending CR LF anyways so we can use the line feed to detect transmitted data */
    2672:	80 91 bc 03 	lds	r24, 0x03BC
    2676:	8a 30       	cpi	r24, 0x0A	; 10
    2678:	21 f4       	brne	.+8      	; 0x2682 <__vector_13+0xa0>
		{

			UART_READY_FLAG	= TRUE;
    267a:	81 e0       	ldi	r24, 0x01	; 1
    267c:	80 93 5b 02 	sts	0x025B, r24
    2680:	18 c0       	rjmp	.+48     	; 0x26b2 <__vector_13+0xd0>
		}
		else
		{
			if(uart_reading != '\n') // carriage return captured above, line feed not to write!
    2682:	80 91 bc 03 	lds	r24, 0x03BC
    2686:	8a 30       	cpi	r24, 0x0A	; 10
    2688:	a1 f0       	breq	.+40     	; 0x26b2 <__vector_13+0xd0>
			{
				// write the reading into the string array on the position of the counter
				GPS_string[GPS_param][GPS_char] = uart_reading;
    268a:	e0 91 5a 02 	lds	r30, 0x025A
    268e:	80 91 4e 05 	lds	r24, 0x054E
    2692:	90 91 bc 03 	lds	r25, 0x03BC
    2696:	2b e0       	ldi	r18, 0x0B	; 11
    2698:	e2 02       	muls	r30, r18
    269a:	f0 01       	movw	r30, r0
    269c:	11 24       	eor	r1, r1
    269e:	e8 0f       	add	r30, r24
    26a0:	f1 1d       	adc	r31, r1
    26a2:	87 fd       	sbrc	r24, 7
    26a4:	fa 95       	dec	r31
    26a6:	e1 54       	subi	r30, 0x41	; 65
    26a8:	fc 4f       	sbci	r31, 0xFC	; 252
    26aa:	90 83       	st	Z, r25
				// increase the counter (position of the string)
				GPS_char++;
    26ac:	8f 5f       	subi	r24, 0xFF	; 255
    26ae:	80 93 4e 05 	sts	0x054E, r24
			UART_READY_FLAG = TRUE;
			// check the reading
			//write_string(uart_word);
		}
	}	
}
    26b2:	ff 91       	pop	r31
    26b4:	ef 91       	pop	r30
    26b6:	9f 91       	pop	r25
    26b8:	8f 91       	pop	r24
    26ba:	2f 91       	pop	r18
    26bc:	0f 90       	pop	r0
    26be:	0f be       	out	0x3f, r0	; 63
    26c0:	0f 90       	pop	r0
    26c2:	1f 90       	pop	r1
    26c4:	18 95       	reti

000026c6 <write_char>:

// UART write char
extern void write_char(char *c)
{	
    while (!(UCSRA & (1<<UDRE)))  /* wait to send */
    26c6:	5d 9b       	sbis	0x0b, 5	; 11
    26c8:	fe cf       	rjmp	.-4      	; 0x26c6 <write_char>
    {
    }
    
    UDR = c;                      /* Send char */
    26ca:	8c b9       	out	0x0c, r24	; 12
    26cc:	08 95       	ret

000026ce <write_string>:
}

// UART write string
extern void	write_string(char *s)
{
    26ce:	cf 93       	push	r28
    26d0:	df 93       	push	r29
    26d2:	ec 01       	movw	r28, r24
	while(*s)
    26d4:	88 81       	ld	r24, Y
    26d6:	88 23       	and	r24, r24
    26d8:	39 f0       	breq	.+14     	; 0x26e8 <write_string+0x1a>
    
    UDR = c;                      /* Send char */
}

// UART write string
extern void	write_string(char *s)
    26da:	21 96       	adiw	r28, 0x01	; 1
{
	while(*s)
	{
		write_char(*s);
    26dc:	90 e0       	ldi	r25, 0x00	; 0
    26de:	0e 94 63 13 	call	0x26c6	; 0x26c6 <write_char>
}

// UART write string
extern void	write_string(char *s)
{
	while(*s)
    26e2:	89 91       	ld	r24, Y+
    26e4:	81 11       	cpse	r24, r1
    26e6:	fa cf       	rjmp	.-12     	; 0x26dc <write_string+0xe>
	{
		write_char(*s);
		s++;
	}
	
}
    26e8:	df 91       	pop	r29
    26ea:	cf 91       	pop	r28
    26ec:	08 95       	ret

000026ee <write_string_ln>:

// UART write string with carriage return and line feed
extern void write_string_ln(char *s)
{
    26ee:	cf 93       	push	r28
    26f0:	df 93       	push	r29
    26f2:	ec 01       	movw	r28, r24
	while(*s)
    26f4:	88 81       	ld	r24, Y
    26f6:	88 23       	and	r24, r24
    26f8:	39 f0       	breq	.+14     	; 0x2708 <write_string_ln+0x1a>
	}
	
}

// UART write string with carriage return and line feed
extern void write_string_ln(char *s)
    26fa:	21 96       	adiw	r28, 0x01	; 1
{
	while(*s)
	{
		write_char(*s);
    26fc:	90 e0       	ldi	r25, 0x00	; 0
    26fe:	0e 94 63 13 	call	0x26c6	; 0x26c6 <write_char>
}

// UART write string with carriage return and line feed
extern void write_string_ln(char *s)
{
	while(*s)
    2702:	89 91       	ld	r24, Y+
    2704:	81 11       	cpse	r24, r1
    2706:	fa cf       	rjmp	.-12     	; 0x26fc <write_string_ln+0xe>
	{
		write_char(*s);
		s++;
	}
	write_string("\r\n");
    2708:	88 e9       	ldi	r24, 0x98	; 152
    270a:	91 e0       	ldi	r25, 0x01	; 1
    270c:	0e 94 67 13 	call	0x26ce	; 0x26ce <write_string>
}
    2710:	df 91       	pop	r29
    2712:	cf 91       	pop	r28
    2714:	08 95       	ret

00002716 <write_var>:

// UART write signed Integer 16bit	//-> 16 bits will leave us with numbers up to 65536 !! and what happens with higher numbers?
extern void write_var(int32_t num)
{
    2716:	cf 93       	push	r28
    2718:	df 93       	push	r29
    271a:	cd b7       	in	r28, 0x3d	; 61
    271c:	de b7       	in	r29, 0x3e	; 62
    271e:	6f 97       	sbiw	r28, 0x1f	; 31
    2720:	0f b6       	in	r0, 0x3f	; 63
    2722:	f8 94       	cli
    2724:	de bf       	out	0x3e, r29	; 62
    2726:	0f be       	out	0x3f, r0	; 63
    2728:	cd bf       	out	0x3d, r28	; 61
		char k[31];			// define four bytes
		ltoa(num, k, 10);	// convert long to asci -> decimal system
    272a:	2a e0       	ldi	r18, 0x0A	; 10
    272c:	30 e0       	ldi	r19, 0x00	; 0
    272e:	ae 01       	movw	r20, r28
    2730:	4f 5f       	subi	r20, 0xFF	; 255
    2732:	5f 4f       	sbci	r21, 0xFF	; 255
    2734:	0e 94 13 17 	call	0x2e26	; 0x2e26 <ltoa>
		write_string(k);	// send the byte
    2738:	ce 01       	movw	r24, r28
    273a:	01 96       	adiw	r24, 0x01	; 1
    273c:	0e 94 67 13 	call	0x26ce	; 0x26ce <write_string>
}
    2740:	6f 96       	adiw	r28, 0x1f	; 31
    2742:	0f b6       	in	r0, 0x3f	; 63
    2744:	f8 94       	cli
    2746:	de bf       	out	0x3e, r29	; 62
    2748:	0f be       	out	0x3f, r0	; 63
    274a:	cd bf       	out	0x3d, r28	; 61
    274c:	df 91       	pop	r29
    274e:	cf 91       	pop	r28
    2750:	08 95       	ret

00002752 <write_var_ln>:

extern void write_var_ln(int32_t num)
{
    2752:	cf 93       	push	r28
    2754:	df 93       	push	r29
    2756:	cd b7       	in	r28, 0x3d	; 61
    2758:	de b7       	in	r29, 0x3e	; 62
    275a:	6f 97       	sbiw	r28, 0x1f	; 31
    275c:	0f b6       	in	r0, 0x3f	; 63
    275e:	f8 94       	cli
    2760:	de bf       	out	0x3e, r29	; 62
    2762:	0f be       	out	0x3f, r0	; 63
    2764:	cd bf       	out	0x3d, r28	; 61
		char k[31];			// define four bytes
		ltoa(num, k, 10);	// convert long to asci -> decimal system
    2766:	2a e0       	ldi	r18, 0x0A	; 10
    2768:	30 e0       	ldi	r19, 0x00	; 0
    276a:	ae 01       	movw	r20, r28
    276c:	4f 5f       	subi	r20, 0xFF	; 255
    276e:	5f 4f       	sbci	r21, 0xFF	; 255
    2770:	0e 94 13 17 	call	0x2e26	; 0x2e26 <ltoa>
		write_string(k);	// send the byte
    2774:	ce 01       	movw	r24, r28
    2776:	01 96       	adiw	r24, 0x01	; 1
    2778:	0e 94 67 13 	call	0x26ce	; 0x26ce <write_string>
		write_string("\r\n");
    277c:	88 e9       	ldi	r24, 0x98	; 152
    277e:	91 e0       	ldi	r25, 0x01	; 1
    2780:	0e 94 67 13 	call	0x26ce	; 0x26ce <write_string>
}
    2784:	6f 96       	adiw	r28, 0x1f	; 31
    2786:	0f b6       	in	r0, 0x3f	; 63
    2788:	f8 94       	cli
    278a:	de bf       	out	0x3e, r29	; 62
    278c:	0f be       	out	0x3f, r0	; 63
    278e:	cd bf       	out	0x3d, r28	; 61
    2790:	df 91       	pop	r29
    2792:	cf 91       	pop	r28
    2794:	08 95       	ret

00002796 <send_sbyte>:
		write_string(k);	// send the byte
}

extern void send_sbyte(int8_t num)
{
		    while (!(UCSRA & (1<<UDRE)))  /* wait to send */
    2796:	5d 9b       	sbis	0x0b, 5	; 11
    2798:	fe cf       	rjmp	.-4      	; 0x2796 <send_sbyte>
		    {
		    }
		    
		    UDR = num;                      /* Send char */
    279a:	8c b9       	out	0x0c, r24	; 12
    279c:	08 95       	ret

0000279e <send_ubyte>:
}

extern void send_ubyte(uint8_t num)
{
	while (!(UCSRA & (1<<UDRE)))  /* wait to send */
    279e:	5d 9b       	sbis	0x0b, 5	; 11
    27a0:	fe cf       	rjmp	.-4      	; 0x279e <send_ubyte>
	{
	}
			    
	UDR = num;                      /* Send byte */
    27a2:	8c b9       	out	0x0c, r24	; 12
    27a4:	08 95       	ret

000027a6 <send_sshort_tel>:
		MSB = num>>24;
		send_ubyte(LSB);send_ubyte(CSB1);send_ubyte(CSB2);send_ubyte(MSB);
}

extern void send_sshort_tel(int16_t num)
{
    27a6:	cf 93       	push	r28
    27a8:	c9 2f       	mov	r28, r25
	int8_t MSB;
	uint8_t LSB;
	LSB = num & (0xFF);
	MSB = num>>8;
	send_ubyte(LSB);send_sbyte(MSB);
    27aa:	0e 94 cf 13 	call	0x279e	; 0x279e <send_ubyte>
    27ae:	8c 2f       	mov	r24, r28
    27b0:	0e 94 cb 13 	call	0x2796	; 0x2796 <send_sbyte>
}
    27b4:	cf 91       	pop	r28
    27b6:	08 95       	ret

000027b8 <send_ushort_tel>:

extern void send_ushort_tel(uint16_t num)
{
    27b8:	cf 93       	push	r28
    27ba:	c9 2f       	mov	r28, r25
	uint8_t MSB,LSB;
	LSB = num & (0xFF);
	MSB = num>>8;
	send_ubyte(LSB);send_ubyte(MSB);
    27bc:	0e 94 cf 13 	call	0x279e	; 0x279e <send_ubyte>
    27c0:	8c 2f       	mov	r24, r28
    27c2:	0e 94 cf 13 	call	0x279e	; 0x279e <send_ubyte>
}
    27c6:	cf 91       	pop	r28
    27c8:	08 95       	ret

000027ca <__subsf3>:
    27ca:	50 58       	subi	r21, 0x80	; 128

000027cc <__addsf3>:
    27cc:	bb 27       	eor	r27, r27
    27ce:	aa 27       	eor	r26, r26
    27d0:	0e d0       	rcall	.+28     	; 0x27ee <__addsf3x>
    27d2:	fc c1       	rjmp	.+1016   	; 0x2bcc <__fp_round>
    27d4:	ed d1       	rcall	.+986    	; 0x2bb0 <__fp_pscA>
    27d6:	30 f0       	brcs	.+12     	; 0x27e4 <__addsf3+0x18>
    27d8:	f2 d1       	rcall	.+996    	; 0x2bbe <__fp_pscB>
    27da:	20 f0       	brcs	.+8      	; 0x27e4 <__addsf3+0x18>
    27dc:	31 f4       	brne	.+12     	; 0x27ea <__addsf3+0x1e>
    27de:	9f 3f       	cpi	r25, 0xFF	; 255
    27e0:	11 f4       	brne	.+4      	; 0x27e6 <__addsf3+0x1a>
    27e2:	1e f4       	brtc	.+6      	; 0x27ea <__addsf3+0x1e>
    27e4:	bd c1       	rjmp	.+890    	; 0x2b60 <__fp_nan>
    27e6:	0e f4       	brtc	.+2      	; 0x27ea <__addsf3+0x1e>
    27e8:	e0 95       	com	r30
    27ea:	e7 fb       	bst	r30, 7
    27ec:	b3 c1       	rjmp	.+870    	; 0x2b54 <__fp_inf>

000027ee <__addsf3x>:
    27ee:	e9 2f       	mov	r30, r25
    27f0:	fe d1       	rcall	.+1020   	; 0x2bee <__fp_split3>
    27f2:	80 f3       	brcs	.-32     	; 0x27d4 <__addsf3+0x8>
    27f4:	ba 17       	cp	r27, r26
    27f6:	62 07       	cpc	r22, r18
    27f8:	73 07       	cpc	r23, r19
    27fa:	84 07       	cpc	r24, r20
    27fc:	95 07       	cpc	r25, r21
    27fe:	18 f0       	brcs	.+6      	; 0x2806 <__addsf3x+0x18>
    2800:	71 f4       	brne	.+28     	; 0x281e <__addsf3x+0x30>
    2802:	9e f5       	brtc	.+102    	; 0x286a <__addsf3x+0x7c>
    2804:	16 c2       	rjmp	.+1068   	; 0x2c32 <__fp_zero>
    2806:	0e f4       	brtc	.+2      	; 0x280a <__addsf3x+0x1c>
    2808:	e0 95       	com	r30
    280a:	0b 2e       	mov	r0, r27
    280c:	ba 2f       	mov	r27, r26
    280e:	a0 2d       	mov	r26, r0
    2810:	0b 01       	movw	r0, r22
    2812:	b9 01       	movw	r22, r18
    2814:	90 01       	movw	r18, r0
    2816:	0c 01       	movw	r0, r24
    2818:	ca 01       	movw	r24, r20
    281a:	a0 01       	movw	r20, r0
    281c:	11 24       	eor	r1, r1
    281e:	ff 27       	eor	r31, r31
    2820:	59 1b       	sub	r21, r25
    2822:	99 f0       	breq	.+38     	; 0x284a <__addsf3x+0x5c>
    2824:	59 3f       	cpi	r21, 0xF9	; 249
    2826:	50 f4       	brcc	.+20     	; 0x283c <__addsf3x+0x4e>
    2828:	50 3e       	cpi	r21, 0xE0	; 224
    282a:	68 f1       	brcs	.+90     	; 0x2886 <__addsf3x+0x98>
    282c:	1a 16       	cp	r1, r26
    282e:	f0 40       	sbci	r31, 0x00	; 0
    2830:	a2 2f       	mov	r26, r18
    2832:	23 2f       	mov	r18, r19
    2834:	34 2f       	mov	r19, r20
    2836:	44 27       	eor	r20, r20
    2838:	58 5f       	subi	r21, 0xF8	; 248
    283a:	f3 cf       	rjmp	.-26     	; 0x2822 <__addsf3x+0x34>
    283c:	46 95       	lsr	r20
    283e:	37 95       	ror	r19
    2840:	27 95       	ror	r18
    2842:	a7 95       	ror	r26
    2844:	f0 40       	sbci	r31, 0x00	; 0
    2846:	53 95       	inc	r21
    2848:	c9 f7       	brne	.-14     	; 0x283c <__addsf3x+0x4e>
    284a:	7e f4       	brtc	.+30     	; 0x286a <__addsf3x+0x7c>
    284c:	1f 16       	cp	r1, r31
    284e:	ba 0b       	sbc	r27, r26
    2850:	62 0b       	sbc	r22, r18
    2852:	73 0b       	sbc	r23, r19
    2854:	84 0b       	sbc	r24, r20
    2856:	ba f0       	brmi	.+46     	; 0x2886 <__addsf3x+0x98>
    2858:	91 50       	subi	r25, 0x01	; 1
    285a:	a1 f0       	breq	.+40     	; 0x2884 <__addsf3x+0x96>
    285c:	ff 0f       	add	r31, r31
    285e:	bb 1f       	adc	r27, r27
    2860:	66 1f       	adc	r22, r22
    2862:	77 1f       	adc	r23, r23
    2864:	88 1f       	adc	r24, r24
    2866:	c2 f7       	brpl	.-16     	; 0x2858 <__addsf3x+0x6a>
    2868:	0e c0       	rjmp	.+28     	; 0x2886 <__addsf3x+0x98>
    286a:	ba 0f       	add	r27, r26
    286c:	62 1f       	adc	r22, r18
    286e:	73 1f       	adc	r23, r19
    2870:	84 1f       	adc	r24, r20
    2872:	48 f4       	brcc	.+18     	; 0x2886 <__addsf3x+0x98>
    2874:	87 95       	ror	r24
    2876:	77 95       	ror	r23
    2878:	67 95       	ror	r22
    287a:	b7 95       	ror	r27
    287c:	f7 95       	ror	r31
    287e:	9e 3f       	cpi	r25, 0xFE	; 254
    2880:	08 f0       	brcs	.+2      	; 0x2884 <__addsf3x+0x96>
    2882:	b3 cf       	rjmp	.-154    	; 0x27ea <__addsf3+0x1e>
    2884:	93 95       	inc	r25
    2886:	88 0f       	add	r24, r24
    2888:	08 f0       	brcs	.+2      	; 0x288c <__addsf3x+0x9e>
    288a:	99 27       	eor	r25, r25
    288c:	ee 0f       	add	r30, r30
    288e:	97 95       	ror	r25
    2890:	87 95       	ror	r24
    2892:	08 95       	ret
    2894:	8d d1       	rcall	.+794    	; 0x2bb0 <__fp_pscA>
    2896:	58 f0       	brcs	.+22     	; 0x28ae <__addsf3x+0xc0>
    2898:	80 e8       	ldi	r24, 0x80	; 128
    289a:	91 e0       	ldi	r25, 0x01	; 1
    289c:	09 f4       	brne	.+2      	; 0x28a0 <__addsf3x+0xb2>
    289e:	9e ef       	ldi	r25, 0xFE	; 254
    28a0:	8e d1       	rcall	.+796    	; 0x2bbe <__fp_pscB>
    28a2:	28 f0       	brcs	.+10     	; 0x28ae <__addsf3x+0xc0>
    28a4:	40 e8       	ldi	r20, 0x80	; 128
    28a6:	51 e0       	ldi	r21, 0x01	; 1
    28a8:	59 f4       	brne	.+22     	; 0x28c0 <atan2+0xe>
    28aa:	5e ef       	ldi	r21, 0xFE	; 254
    28ac:	09 c0       	rjmp	.+18     	; 0x28c0 <atan2+0xe>
    28ae:	58 c1       	rjmp	.+688    	; 0x2b60 <__fp_nan>
    28b0:	c0 c1       	rjmp	.+896    	; 0x2c32 <__fp_zero>

000028b2 <atan2>:
    28b2:	e9 2f       	mov	r30, r25
    28b4:	e0 78       	andi	r30, 0x80	; 128
    28b6:	9b d1       	rcall	.+822    	; 0x2bee <__fp_split3>
    28b8:	68 f3       	brcs	.-38     	; 0x2894 <__addsf3x+0xa6>
    28ba:	09 2e       	mov	r0, r25
    28bc:	05 2a       	or	r0, r21
    28be:	c1 f3       	breq	.-16     	; 0x28b0 <__addsf3x+0xc2>
    28c0:	26 17       	cp	r18, r22
    28c2:	37 07       	cpc	r19, r23
    28c4:	48 07       	cpc	r20, r24
    28c6:	59 07       	cpc	r21, r25
    28c8:	38 f0       	brcs	.+14     	; 0x28d8 <atan2+0x26>
    28ca:	0e 2e       	mov	r0, r30
    28cc:	07 f8       	bld	r0, 7
    28ce:	e0 25       	eor	r30, r0
    28d0:	69 f0       	breq	.+26     	; 0x28ec <atan2+0x3a>
    28d2:	e0 25       	eor	r30, r0
    28d4:	e0 64       	ori	r30, 0x40	; 64
    28d6:	0a c0       	rjmp	.+20     	; 0x28ec <atan2+0x3a>
    28d8:	ef 63       	ori	r30, 0x3F	; 63
    28da:	07 f8       	bld	r0, 7
    28dc:	00 94       	com	r0
    28de:	07 fa       	bst	r0, 7
    28e0:	db 01       	movw	r26, r22
    28e2:	b9 01       	movw	r22, r18
    28e4:	9d 01       	movw	r18, r26
    28e6:	dc 01       	movw	r26, r24
    28e8:	ca 01       	movw	r24, r20
    28ea:	ad 01       	movw	r20, r26
    28ec:	ef 93       	push	r30
    28ee:	47 d0       	rcall	.+142    	; 0x297e <__divsf3_pse>
    28f0:	6d d1       	rcall	.+730    	; 0x2bcc <__fp_round>
    28f2:	0a d0       	rcall	.+20     	; 0x2908 <atan>
    28f4:	5f 91       	pop	r21
    28f6:	55 23       	and	r21, r21
    28f8:	31 f0       	breq	.+12     	; 0x2906 <atan2+0x54>
    28fa:	2b ed       	ldi	r18, 0xDB	; 219
    28fc:	3f e0       	ldi	r19, 0x0F	; 15
    28fe:	49 e4       	ldi	r20, 0x49	; 73
    2900:	50 fd       	sbrc	r21, 0
    2902:	49 ec       	ldi	r20, 0xC9	; 201
    2904:	63 cf       	rjmp	.-314    	; 0x27cc <__addsf3>
    2906:	08 95       	ret

00002908 <atan>:
    2908:	df 93       	push	r29
    290a:	dd 27       	eor	r29, r29
    290c:	b9 2f       	mov	r27, r25
    290e:	bf 77       	andi	r27, 0x7F	; 127
    2910:	40 e8       	ldi	r20, 0x80	; 128
    2912:	5f e3       	ldi	r21, 0x3F	; 63
    2914:	16 16       	cp	r1, r22
    2916:	17 06       	cpc	r1, r23
    2918:	48 07       	cpc	r20, r24
    291a:	5b 07       	cpc	r21, r27
    291c:	10 f4       	brcc	.+4      	; 0x2922 <atan+0x1a>
    291e:	d9 2f       	mov	r29, r25
    2920:	93 d1       	rcall	.+806    	; 0x2c48 <inverse>
    2922:	9f 93       	push	r25
    2924:	8f 93       	push	r24
    2926:	7f 93       	push	r23
    2928:	6f 93       	push	r22
    292a:	3a d2       	rcall	.+1140   	; 0x2da0 <square>
    292c:	e4 e5       	ldi	r30, 0x54	; 84
    292e:	f0 e0       	ldi	r31, 0x00	; 0
    2930:	1a d1       	rcall	.+564    	; 0x2b66 <__fp_powser>
    2932:	4c d1       	rcall	.+664    	; 0x2bcc <__fp_round>
    2934:	2f 91       	pop	r18
    2936:	3f 91       	pop	r19
    2938:	4f 91       	pop	r20
    293a:	5f 91       	pop	r21
    293c:	98 d1       	rcall	.+816    	; 0x2c6e <__mulsf3x>
    293e:	dd 23       	and	r29, r29
    2940:	49 f0       	breq	.+18     	; 0x2954 <atan+0x4c>
    2942:	90 58       	subi	r25, 0x80	; 128
    2944:	a2 ea       	ldi	r26, 0xA2	; 162
    2946:	2a ed       	ldi	r18, 0xDA	; 218
    2948:	3f e0       	ldi	r19, 0x0F	; 15
    294a:	49 ec       	ldi	r20, 0xC9	; 201
    294c:	5f e3       	ldi	r21, 0x3F	; 63
    294e:	d0 78       	andi	r29, 0x80	; 128
    2950:	5d 27       	eor	r21, r29
    2952:	4d df       	rcall	.-358    	; 0x27ee <__addsf3x>
    2954:	df 91       	pop	r29
    2956:	3a c1       	rjmp	.+628    	; 0x2bcc <__fp_round>

00002958 <__cmpsf2>:
    2958:	d9 d0       	rcall	.+434    	; 0x2b0c <__fp_cmp>
    295a:	08 f4       	brcc	.+2      	; 0x295e <__cmpsf2+0x6>
    295c:	81 e0       	ldi	r24, 0x01	; 1
    295e:	08 95       	ret

00002960 <__divsf3>:
    2960:	0c d0       	rcall	.+24     	; 0x297a <__divsf3x>
    2962:	34 c1       	rjmp	.+616    	; 0x2bcc <__fp_round>
    2964:	2c d1       	rcall	.+600    	; 0x2bbe <__fp_pscB>
    2966:	40 f0       	brcs	.+16     	; 0x2978 <__divsf3+0x18>
    2968:	23 d1       	rcall	.+582    	; 0x2bb0 <__fp_pscA>
    296a:	30 f0       	brcs	.+12     	; 0x2978 <__divsf3+0x18>
    296c:	21 f4       	brne	.+8      	; 0x2976 <__divsf3+0x16>
    296e:	5f 3f       	cpi	r21, 0xFF	; 255
    2970:	19 f0       	breq	.+6      	; 0x2978 <__divsf3+0x18>
    2972:	f0 c0       	rjmp	.+480    	; 0x2b54 <__fp_inf>
    2974:	51 11       	cpse	r21, r1
    2976:	5e c1       	rjmp	.+700    	; 0x2c34 <__fp_szero>
    2978:	f3 c0       	rjmp	.+486    	; 0x2b60 <__fp_nan>

0000297a <__divsf3x>:
    297a:	39 d1       	rcall	.+626    	; 0x2bee <__fp_split3>
    297c:	98 f3       	brcs	.-26     	; 0x2964 <__divsf3+0x4>

0000297e <__divsf3_pse>:
    297e:	99 23       	and	r25, r25
    2980:	c9 f3       	breq	.-14     	; 0x2974 <__divsf3+0x14>
    2982:	55 23       	and	r21, r21
    2984:	b1 f3       	breq	.-20     	; 0x2972 <__divsf3+0x12>
    2986:	95 1b       	sub	r25, r21
    2988:	55 0b       	sbc	r21, r21
    298a:	bb 27       	eor	r27, r27
    298c:	aa 27       	eor	r26, r26
    298e:	62 17       	cp	r22, r18
    2990:	73 07       	cpc	r23, r19
    2992:	84 07       	cpc	r24, r20
    2994:	38 f0       	brcs	.+14     	; 0x29a4 <__divsf3_pse+0x26>
    2996:	9f 5f       	subi	r25, 0xFF	; 255
    2998:	5f 4f       	sbci	r21, 0xFF	; 255
    299a:	22 0f       	add	r18, r18
    299c:	33 1f       	adc	r19, r19
    299e:	44 1f       	adc	r20, r20
    29a0:	aa 1f       	adc	r26, r26
    29a2:	a9 f3       	breq	.-22     	; 0x298e <__divsf3_pse+0x10>
    29a4:	33 d0       	rcall	.+102    	; 0x2a0c <__divsf3_pse+0x8e>
    29a6:	0e 2e       	mov	r0, r30
    29a8:	3a f0       	brmi	.+14     	; 0x29b8 <__divsf3_pse+0x3a>
    29aa:	e0 e8       	ldi	r30, 0x80	; 128
    29ac:	30 d0       	rcall	.+96     	; 0x2a0e <__divsf3_pse+0x90>
    29ae:	91 50       	subi	r25, 0x01	; 1
    29b0:	50 40       	sbci	r21, 0x00	; 0
    29b2:	e6 95       	lsr	r30
    29b4:	00 1c       	adc	r0, r0
    29b6:	ca f7       	brpl	.-14     	; 0x29aa <__divsf3_pse+0x2c>
    29b8:	29 d0       	rcall	.+82     	; 0x2a0c <__divsf3_pse+0x8e>
    29ba:	fe 2f       	mov	r31, r30
    29bc:	27 d0       	rcall	.+78     	; 0x2a0c <__divsf3_pse+0x8e>
    29be:	66 0f       	add	r22, r22
    29c0:	77 1f       	adc	r23, r23
    29c2:	88 1f       	adc	r24, r24
    29c4:	bb 1f       	adc	r27, r27
    29c6:	26 17       	cp	r18, r22
    29c8:	37 07       	cpc	r19, r23
    29ca:	48 07       	cpc	r20, r24
    29cc:	ab 07       	cpc	r26, r27
    29ce:	b0 e8       	ldi	r27, 0x80	; 128
    29d0:	09 f0       	breq	.+2      	; 0x29d4 <__divsf3_pse+0x56>
    29d2:	bb 0b       	sbc	r27, r27
    29d4:	80 2d       	mov	r24, r0
    29d6:	bf 01       	movw	r22, r30
    29d8:	ff 27       	eor	r31, r31
    29da:	93 58       	subi	r25, 0x83	; 131
    29dc:	5f 4f       	sbci	r21, 0xFF	; 255
    29de:	2a f0       	brmi	.+10     	; 0x29ea <__divsf3_pse+0x6c>
    29e0:	9e 3f       	cpi	r25, 0xFE	; 254
    29e2:	51 05       	cpc	r21, r1
    29e4:	68 f0       	brcs	.+26     	; 0x2a00 <__divsf3_pse+0x82>
    29e6:	b6 c0       	rjmp	.+364    	; 0x2b54 <__fp_inf>
    29e8:	25 c1       	rjmp	.+586    	; 0x2c34 <__fp_szero>
    29ea:	5f 3f       	cpi	r21, 0xFF	; 255
    29ec:	ec f3       	brlt	.-6      	; 0x29e8 <__divsf3_pse+0x6a>
    29ee:	98 3e       	cpi	r25, 0xE8	; 232
    29f0:	dc f3       	brlt	.-10     	; 0x29e8 <__divsf3_pse+0x6a>
    29f2:	86 95       	lsr	r24
    29f4:	77 95       	ror	r23
    29f6:	67 95       	ror	r22
    29f8:	b7 95       	ror	r27
    29fa:	f7 95       	ror	r31
    29fc:	9f 5f       	subi	r25, 0xFF	; 255
    29fe:	c9 f7       	brne	.-14     	; 0x29f2 <__divsf3_pse+0x74>
    2a00:	88 0f       	add	r24, r24
    2a02:	91 1d       	adc	r25, r1
    2a04:	96 95       	lsr	r25
    2a06:	87 95       	ror	r24
    2a08:	97 f9       	bld	r25, 7
    2a0a:	08 95       	ret
    2a0c:	e1 e0       	ldi	r30, 0x01	; 1
    2a0e:	66 0f       	add	r22, r22
    2a10:	77 1f       	adc	r23, r23
    2a12:	88 1f       	adc	r24, r24
    2a14:	bb 1f       	adc	r27, r27
    2a16:	62 17       	cp	r22, r18
    2a18:	73 07       	cpc	r23, r19
    2a1a:	84 07       	cpc	r24, r20
    2a1c:	ba 07       	cpc	r27, r26
    2a1e:	20 f0       	brcs	.+8      	; 0x2a28 <__divsf3_pse+0xaa>
    2a20:	62 1b       	sub	r22, r18
    2a22:	73 0b       	sbc	r23, r19
    2a24:	84 0b       	sbc	r24, r20
    2a26:	ba 0b       	sbc	r27, r26
    2a28:	ee 1f       	adc	r30, r30
    2a2a:	88 f7       	brcc	.-30     	; 0x2a0e <__divsf3_pse+0x90>
    2a2c:	e0 95       	com	r30
    2a2e:	08 95       	ret

00002a30 <__fixsfsi>:
    2a30:	04 d0       	rcall	.+8      	; 0x2a3a <__fixunssfsi>
    2a32:	68 94       	set
    2a34:	b1 11       	cpse	r27, r1
    2a36:	fe c0       	rjmp	.+508    	; 0x2c34 <__fp_szero>
    2a38:	08 95       	ret

00002a3a <__fixunssfsi>:
    2a3a:	e1 d0       	rcall	.+450    	; 0x2bfe <__fp_splitA>
    2a3c:	88 f0       	brcs	.+34     	; 0x2a60 <__fixunssfsi+0x26>
    2a3e:	9f 57       	subi	r25, 0x7F	; 127
    2a40:	90 f0       	brcs	.+36     	; 0x2a66 <__fixunssfsi+0x2c>
    2a42:	b9 2f       	mov	r27, r25
    2a44:	99 27       	eor	r25, r25
    2a46:	b7 51       	subi	r27, 0x17	; 23
    2a48:	a0 f0       	brcs	.+40     	; 0x2a72 <__fixunssfsi+0x38>
    2a4a:	d1 f0       	breq	.+52     	; 0x2a80 <__fixunssfsi+0x46>
    2a4c:	66 0f       	add	r22, r22
    2a4e:	77 1f       	adc	r23, r23
    2a50:	88 1f       	adc	r24, r24
    2a52:	99 1f       	adc	r25, r25
    2a54:	1a f0       	brmi	.+6      	; 0x2a5c <__fixunssfsi+0x22>
    2a56:	ba 95       	dec	r27
    2a58:	c9 f7       	brne	.-14     	; 0x2a4c <__fixunssfsi+0x12>
    2a5a:	12 c0       	rjmp	.+36     	; 0x2a80 <__fixunssfsi+0x46>
    2a5c:	b1 30       	cpi	r27, 0x01	; 1
    2a5e:	81 f0       	breq	.+32     	; 0x2a80 <__fixunssfsi+0x46>
    2a60:	e8 d0       	rcall	.+464    	; 0x2c32 <__fp_zero>
    2a62:	b1 e0       	ldi	r27, 0x01	; 1
    2a64:	08 95       	ret
    2a66:	e5 c0       	rjmp	.+458    	; 0x2c32 <__fp_zero>
    2a68:	67 2f       	mov	r22, r23
    2a6a:	78 2f       	mov	r23, r24
    2a6c:	88 27       	eor	r24, r24
    2a6e:	b8 5f       	subi	r27, 0xF8	; 248
    2a70:	39 f0       	breq	.+14     	; 0x2a80 <__fixunssfsi+0x46>
    2a72:	b9 3f       	cpi	r27, 0xF9	; 249
    2a74:	cc f3       	brlt	.-14     	; 0x2a68 <__fixunssfsi+0x2e>
    2a76:	86 95       	lsr	r24
    2a78:	77 95       	ror	r23
    2a7a:	67 95       	ror	r22
    2a7c:	b3 95       	inc	r27
    2a7e:	d9 f7       	brne	.-10     	; 0x2a76 <__fixunssfsi+0x3c>
    2a80:	3e f4       	brtc	.+14     	; 0x2a90 <__fixunssfsi+0x56>
    2a82:	90 95       	com	r25
    2a84:	80 95       	com	r24
    2a86:	70 95       	com	r23
    2a88:	61 95       	neg	r22
    2a8a:	7f 4f       	sbci	r23, 0xFF	; 255
    2a8c:	8f 4f       	sbci	r24, 0xFF	; 255
    2a8e:	9f 4f       	sbci	r25, 0xFF	; 255
    2a90:	08 95       	ret

00002a92 <__floatunsisf>:
    2a92:	e8 94       	clt
    2a94:	09 c0       	rjmp	.+18     	; 0x2aa8 <__floatsisf+0x12>

00002a96 <__floatsisf>:
    2a96:	97 fb       	bst	r25, 7
    2a98:	3e f4       	brtc	.+14     	; 0x2aa8 <__floatsisf+0x12>
    2a9a:	90 95       	com	r25
    2a9c:	80 95       	com	r24
    2a9e:	70 95       	com	r23
    2aa0:	61 95       	neg	r22
    2aa2:	7f 4f       	sbci	r23, 0xFF	; 255
    2aa4:	8f 4f       	sbci	r24, 0xFF	; 255
    2aa6:	9f 4f       	sbci	r25, 0xFF	; 255
    2aa8:	99 23       	and	r25, r25
    2aaa:	a9 f0       	breq	.+42     	; 0x2ad6 <__floatsisf+0x40>
    2aac:	f9 2f       	mov	r31, r25
    2aae:	96 e9       	ldi	r25, 0x96	; 150
    2ab0:	bb 27       	eor	r27, r27
    2ab2:	93 95       	inc	r25
    2ab4:	f6 95       	lsr	r31
    2ab6:	87 95       	ror	r24
    2ab8:	77 95       	ror	r23
    2aba:	67 95       	ror	r22
    2abc:	b7 95       	ror	r27
    2abe:	f1 11       	cpse	r31, r1
    2ac0:	f8 cf       	rjmp	.-16     	; 0x2ab2 <__floatsisf+0x1c>
    2ac2:	fa f4       	brpl	.+62     	; 0x2b02 <__floatsisf+0x6c>
    2ac4:	bb 0f       	add	r27, r27
    2ac6:	11 f4       	brne	.+4      	; 0x2acc <__floatsisf+0x36>
    2ac8:	60 ff       	sbrs	r22, 0
    2aca:	1b c0       	rjmp	.+54     	; 0x2b02 <__floatsisf+0x6c>
    2acc:	6f 5f       	subi	r22, 0xFF	; 255
    2ace:	7f 4f       	sbci	r23, 0xFF	; 255
    2ad0:	8f 4f       	sbci	r24, 0xFF	; 255
    2ad2:	9f 4f       	sbci	r25, 0xFF	; 255
    2ad4:	16 c0       	rjmp	.+44     	; 0x2b02 <__floatsisf+0x6c>
    2ad6:	88 23       	and	r24, r24
    2ad8:	11 f0       	breq	.+4      	; 0x2ade <__floatsisf+0x48>
    2ada:	96 e9       	ldi	r25, 0x96	; 150
    2adc:	11 c0       	rjmp	.+34     	; 0x2b00 <__floatsisf+0x6a>
    2ade:	77 23       	and	r23, r23
    2ae0:	21 f0       	breq	.+8      	; 0x2aea <__floatsisf+0x54>
    2ae2:	9e e8       	ldi	r25, 0x8E	; 142
    2ae4:	87 2f       	mov	r24, r23
    2ae6:	76 2f       	mov	r23, r22
    2ae8:	05 c0       	rjmp	.+10     	; 0x2af4 <__floatsisf+0x5e>
    2aea:	66 23       	and	r22, r22
    2aec:	71 f0       	breq	.+28     	; 0x2b0a <__floatsisf+0x74>
    2aee:	96 e8       	ldi	r25, 0x86	; 134
    2af0:	86 2f       	mov	r24, r22
    2af2:	70 e0       	ldi	r23, 0x00	; 0
    2af4:	60 e0       	ldi	r22, 0x00	; 0
    2af6:	2a f0       	brmi	.+10     	; 0x2b02 <__floatsisf+0x6c>
    2af8:	9a 95       	dec	r25
    2afa:	66 0f       	add	r22, r22
    2afc:	77 1f       	adc	r23, r23
    2afe:	88 1f       	adc	r24, r24
    2b00:	da f7       	brpl	.-10     	; 0x2af8 <__floatsisf+0x62>
    2b02:	88 0f       	add	r24, r24
    2b04:	96 95       	lsr	r25
    2b06:	87 95       	ror	r24
    2b08:	97 f9       	bld	r25, 7
    2b0a:	08 95       	ret

00002b0c <__fp_cmp>:
    2b0c:	99 0f       	add	r25, r25
    2b0e:	00 08       	sbc	r0, r0
    2b10:	55 0f       	add	r21, r21
    2b12:	aa 0b       	sbc	r26, r26
    2b14:	e0 e8       	ldi	r30, 0x80	; 128
    2b16:	fe ef       	ldi	r31, 0xFE	; 254
    2b18:	16 16       	cp	r1, r22
    2b1a:	17 06       	cpc	r1, r23
    2b1c:	e8 07       	cpc	r30, r24
    2b1e:	f9 07       	cpc	r31, r25
    2b20:	c0 f0       	brcs	.+48     	; 0x2b52 <__fp_cmp+0x46>
    2b22:	12 16       	cp	r1, r18
    2b24:	13 06       	cpc	r1, r19
    2b26:	e4 07       	cpc	r30, r20
    2b28:	f5 07       	cpc	r31, r21
    2b2a:	98 f0       	brcs	.+38     	; 0x2b52 <__fp_cmp+0x46>
    2b2c:	62 1b       	sub	r22, r18
    2b2e:	73 0b       	sbc	r23, r19
    2b30:	84 0b       	sbc	r24, r20
    2b32:	95 0b       	sbc	r25, r21
    2b34:	39 f4       	brne	.+14     	; 0x2b44 <__fp_cmp+0x38>
    2b36:	0a 26       	eor	r0, r26
    2b38:	61 f0       	breq	.+24     	; 0x2b52 <__fp_cmp+0x46>
    2b3a:	23 2b       	or	r18, r19
    2b3c:	24 2b       	or	r18, r20
    2b3e:	25 2b       	or	r18, r21
    2b40:	21 f4       	brne	.+8      	; 0x2b4a <__fp_cmp+0x3e>
    2b42:	08 95       	ret
    2b44:	0a 26       	eor	r0, r26
    2b46:	09 f4       	brne	.+2      	; 0x2b4a <__fp_cmp+0x3e>
    2b48:	a1 40       	sbci	r26, 0x01	; 1
    2b4a:	a6 95       	lsr	r26
    2b4c:	8f ef       	ldi	r24, 0xFF	; 255
    2b4e:	81 1d       	adc	r24, r1
    2b50:	81 1d       	adc	r24, r1
    2b52:	08 95       	ret

00002b54 <__fp_inf>:
    2b54:	97 f9       	bld	r25, 7
    2b56:	9f 67       	ori	r25, 0x7F	; 127
    2b58:	80 e8       	ldi	r24, 0x80	; 128
    2b5a:	70 e0       	ldi	r23, 0x00	; 0
    2b5c:	60 e0       	ldi	r22, 0x00	; 0
    2b5e:	08 95       	ret

00002b60 <__fp_nan>:
    2b60:	9f ef       	ldi	r25, 0xFF	; 255
    2b62:	80 ec       	ldi	r24, 0xC0	; 192
    2b64:	08 95       	ret

00002b66 <__fp_powser>:
    2b66:	df 93       	push	r29
    2b68:	cf 93       	push	r28
    2b6a:	1f 93       	push	r17
    2b6c:	0f 93       	push	r16
    2b6e:	ff 92       	push	r15
    2b70:	ef 92       	push	r14
    2b72:	df 92       	push	r13
    2b74:	7b 01       	movw	r14, r22
    2b76:	8c 01       	movw	r16, r24
    2b78:	68 94       	set
    2b7a:	05 c0       	rjmp	.+10     	; 0x2b86 <__fp_powser+0x20>
    2b7c:	da 2e       	mov	r13, r26
    2b7e:	ef 01       	movw	r28, r30
    2b80:	76 d0       	rcall	.+236    	; 0x2c6e <__mulsf3x>
    2b82:	fe 01       	movw	r30, r28
    2b84:	e8 94       	clt
    2b86:	a5 91       	lpm	r26, Z+
    2b88:	25 91       	lpm	r18, Z+
    2b8a:	35 91       	lpm	r19, Z+
    2b8c:	45 91       	lpm	r20, Z+
    2b8e:	55 91       	lpm	r21, Z+
    2b90:	ae f3       	brts	.-22     	; 0x2b7c <__fp_powser+0x16>
    2b92:	ef 01       	movw	r28, r30
    2b94:	2c de       	rcall	.-936    	; 0x27ee <__addsf3x>
    2b96:	fe 01       	movw	r30, r28
    2b98:	97 01       	movw	r18, r14
    2b9a:	a8 01       	movw	r20, r16
    2b9c:	da 94       	dec	r13
    2b9e:	79 f7       	brne	.-34     	; 0x2b7e <__fp_powser+0x18>
    2ba0:	df 90       	pop	r13
    2ba2:	ef 90       	pop	r14
    2ba4:	ff 90       	pop	r15
    2ba6:	0f 91       	pop	r16
    2ba8:	1f 91       	pop	r17
    2baa:	cf 91       	pop	r28
    2bac:	df 91       	pop	r29
    2bae:	08 95       	ret

00002bb0 <__fp_pscA>:
    2bb0:	00 24       	eor	r0, r0
    2bb2:	0a 94       	dec	r0
    2bb4:	16 16       	cp	r1, r22
    2bb6:	17 06       	cpc	r1, r23
    2bb8:	18 06       	cpc	r1, r24
    2bba:	09 06       	cpc	r0, r25
    2bbc:	08 95       	ret

00002bbe <__fp_pscB>:
    2bbe:	00 24       	eor	r0, r0
    2bc0:	0a 94       	dec	r0
    2bc2:	12 16       	cp	r1, r18
    2bc4:	13 06       	cpc	r1, r19
    2bc6:	14 06       	cpc	r1, r20
    2bc8:	05 06       	cpc	r0, r21
    2bca:	08 95       	ret

00002bcc <__fp_round>:
    2bcc:	09 2e       	mov	r0, r25
    2bce:	03 94       	inc	r0
    2bd0:	00 0c       	add	r0, r0
    2bd2:	11 f4       	brne	.+4      	; 0x2bd8 <__fp_round+0xc>
    2bd4:	88 23       	and	r24, r24
    2bd6:	52 f0       	brmi	.+20     	; 0x2bec <__fp_round+0x20>
    2bd8:	bb 0f       	add	r27, r27
    2bda:	40 f4       	brcc	.+16     	; 0x2bec <__fp_round+0x20>
    2bdc:	bf 2b       	or	r27, r31
    2bde:	11 f4       	brne	.+4      	; 0x2be4 <__fp_round+0x18>
    2be0:	60 ff       	sbrs	r22, 0
    2be2:	04 c0       	rjmp	.+8      	; 0x2bec <__fp_round+0x20>
    2be4:	6f 5f       	subi	r22, 0xFF	; 255
    2be6:	7f 4f       	sbci	r23, 0xFF	; 255
    2be8:	8f 4f       	sbci	r24, 0xFF	; 255
    2bea:	9f 4f       	sbci	r25, 0xFF	; 255
    2bec:	08 95       	ret

00002bee <__fp_split3>:
    2bee:	57 fd       	sbrc	r21, 7
    2bf0:	90 58       	subi	r25, 0x80	; 128
    2bf2:	44 0f       	add	r20, r20
    2bf4:	55 1f       	adc	r21, r21
    2bf6:	59 f0       	breq	.+22     	; 0x2c0e <__fp_splitA+0x10>
    2bf8:	5f 3f       	cpi	r21, 0xFF	; 255
    2bfa:	71 f0       	breq	.+28     	; 0x2c18 <__fp_splitA+0x1a>
    2bfc:	47 95       	ror	r20

00002bfe <__fp_splitA>:
    2bfe:	88 0f       	add	r24, r24
    2c00:	97 fb       	bst	r25, 7
    2c02:	99 1f       	adc	r25, r25
    2c04:	61 f0       	breq	.+24     	; 0x2c1e <__fp_splitA+0x20>
    2c06:	9f 3f       	cpi	r25, 0xFF	; 255
    2c08:	79 f0       	breq	.+30     	; 0x2c28 <__fp_splitA+0x2a>
    2c0a:	87 95       	ror	r24
    2c0c:	08 95       	ret
    2c0e:	12 16       	cp	r1, r18
    2c10:	13 06       	cpc	r1, r19
    2c12:	14 06       	cpc	r1, r20
    2c14:	55 1f       	adc	r21, r21
    2c16:	f2 cf       	rjmp	.-28     	; 0x2bfc <__fp_split3+0xe>
    2c18:	46 95       	lsr	r20
    2c1a:	f1 df       	rcall	.-30     	; 0x2bfe <__fp_splitA>
    2c1c:	08 c0       	rjmp	.+16     	; 0x2c2e <__fp_splitA+0x30>
    2c1e:	16 16       	cp	r1, r22
    2c20:	17 06       	cpc	r1, r23
    2c22:	18 06       	cpc	r1, r24
    2c24:	99 1f       	adc	r25, r25
    2c26:	f1 cf       	rjmp	.-30     	; 0x2c0a <__fp_splitA+0xc>
    2c28:	86 95       	lsr	r24
    2c2a:	71 05       	cpc	r23, r1
    2c2c:	61 05       	cpc	r22, r1
    2c2e:	08 94       	sec
    2c30:	08 95       	ret

00002c32 <__fp_zero>:
    2c32:	e8 94       	clt

00002c34 <__fp_szero>:
    2c34:	bb 27       	eor	r27, r27
    2c36:	66 27       	eor	r22, r22
    2c38:	77 27       	eor	r23, r23
    2c3a:	cb 01       	movw	r24, r22
    2c3c:	97 f9       	bld	r25, 7
    2c3e:	08 95       	ret

00002c40 <__gesf2>:
    2c40:	65 df       	rcall	.-310    	; 0x2b0c <__fp_cmp>
    2c42:	08 f4       	brcc	.+2      	; 0x2c46 <__gesf2+0x6>
    2c44:	8f ef       	ldi	r24, 0xFF	; 255
    2c46:	08 95       	ret

00002c48 <inverse>:
    2c48:	9b 01       	movw	r18, r22
    2c4a:	ac 01       	movw	r20, r24
    2c4c:	60 e0       	ldi	r22, 0x00	; 0
    2c4e:	70 e0       	ldi	r23, 0x00	; 0
    2c50:	80 e8       	ldi	r24, 0x80	; 128
    2c52:	9f e3       	ldi	r25, 0x3F	; 63
    2c54:	85 ce       	rjmp	.-758    	; 0x2960 <__divsf3>

00002c56 <__mulsf3>:
    2c56:	0b d0       	rcall	.+22     	; 0x2c6e <__mulsf3x>
    2c58:	b9 cf       	rjmp	.-142    	; 0x2bcc <__fp_round>
    2c5a:	aa df       	rcall	.-172    	; 0x2bb0 <__fp_pscA>
    2c5c:	28 f0       	brcs	.+10     	; 0x2c68 <__mulsf3+0x12>
    2c5e:	af df       	rcall	.-162    	; 0x2bbe <__fp_pscB>
    2c60:	18 f0       	brcs	.+6      	; 0x2c68 <__mulsf3+0x12>
    2c62:	95 23       	and	r25, r21
    2c64:	09 f0       	breq	.+2      	; 0x2c68 <__mulsf3+0x12>
    2c66:	76 cf       	rjmp	.-276    	; 0x2b54 <__fp_inf>
    2c68:	7b cf       	rjmp	.-266    	; 0x2b60 <__fp_nan>
    2c6a:	11 24       	eor	r1, r1
    2c6c:	e3 cf       	rjmp	.-58     	; 0x2c34 <__fp_szero>

00002c6e <__mulsf3x>:
    2c6e:	bf df       	rcall	.-130    	; 0x2bee <__fp_split3>
    2c70:	a0 f3       	brcs	.-24     	; 0x2c5a <__mulsf3+0x4>

00002c72 <__mulsf3_pse>:
    2c72:	95 9f       	mul	r25, r21
    2c74:	d1 f3       	breq	.-12     	; 0x2c6a <__mulsf3+0x14>
    2c76:	95 0f       	add	r25, r21
    2c78:	50 e0       	ldi	r21, 0x00	; 0
    2c7a:	55 1f       	adc	r21, r21
    2c7c:	62 9f       	mul	r22, r18
    2c7e:	f0 01       	movw	r30, r0
    2c80:	72 9f       	mul	r23, r18
    2c82:	bb 27       	eor	r27, r27
    2c84:	f0 0d       	add	r31, r0
    2c86:	b1 1d       	adc	r27, r1
    2c88:	63 9f       	mul	r22, r19
    2c8a:	aa 27       	eor	r26, r26
    2c8c:	f0 0d       	add	r31, r0
    2c8e:	b1 1d       	adc	r27, r1
    2c90:	aa 1f       	adc	r26, r26
    2c92:	64 9f       	mul	r22, r20
    2c94:	66 27       	eor	r22, r22
    2c96:	b0 0d       	add	r27, r0
    2c98:	a1 1d       	adc	r26, r1
    2c9a:	66 1f       	adc	r22, r22
    2c9c:	82 9f       	mul	r24, r18
    2c9e:	22 27       	eor	r18, r18
    2ca0:	b0 0d       	add	r27, r0
    2ca2:	a1 1d       	adc	r26, r1
    2ca4:	62 1f       	adc	r22, r18
    2ca6:	73 9f       	mul	r23, r19
    2ca8:	b0 0d       	add	r27, r0
    2caa:	a1 1d       	adc	r26, r1
    2cac:	62 1f       	adc	r22, r18
    2cae:	83 9f       	mul	r24, r19
    2cb0:	a0 0d       	add	r26, r0
    2cb2:	61 1d       	adc	r22, r1
    2cb4:	22 1f       	adc	r18, r18
    2cb6:	74 9f       	mul	r23, r20
    2cb8:	33 27       	eor	r19, r19
    2cba:	a0 0d       	add	r26, r0
    2cbc:	61 1d       	adc	r22, r1
    2cbe:	23 1f       	adc	r18, r19
    2cc0:	84 9f       	mul	r24, r20
    2cc2:	60 0d       	add	r22, r0
    2cc4:	21 1d       	adc	r18, r1
    2cc6:	82 2f       	mov	r24, r18
    2cc8:	76 2f       	mov	r23, r22
    2cca:	6a 2f       	mov	r22, r26
    2ccc:	11 24       	eor	r1, r1
    2cce:	9f 57       	subi	r25, 0x7F	; 127
    2cd0:	50 40       	sbci	r21, 0x00	; 0
    2cd2:	8a f0       	brmi	.+34     	; 0x2cf6 <__mulsf3_pse+0x84>
    2cd4:	e1 f0       	breq	.+56     	; 0x2d0e <__mulsf3_pse+0x9c>
    2cd6:	88 23       	and	r24, r24
    2cd8:	4a f0       	brmi	.+18     	; 0x2cec <__mulsf3_pse+0x7a>
    2cda:	ee 0f       	add	r30, r30
    2cdc:	ff 1f       	adc	r31, r31
    2cde:	bb 1f       	adc	r27, r27
    2ce0:	66 1f       	adc	r22, r22
    2ce2:	77 1f       	adc	r23, r23
    2ce4:	88 1f       	adc	r24, r24
    2ce6:	91 50       	subi	r25, 0x01	; 1
    2ce8:	50 40       	sbci	r21, 0x00	; 0
    2cea:	a9 f7       	brne	.-22     	; 0x2cd6 <__mulsf3_pse+0x64>
    2cec:	9e 3f       	cpi	r25, 0xFE	; 254
    2cee:	51 05       	cpc	r21, r1
    2cf0:	70 f0       	brcs	.+28     	; 0x2d0e <__mulsf3_pse+0x9c>
    2cf2:	30 cf       	rjmp	.-416    	; 0x2b54 <__fp_inf>
    2cf4:	9f cf       	rjmp	.-194    	; 0x2c34 <__fp_szero>
    2cf6:	5f 3f       	cpi	r21, 0xFF	; 255
    2cf8:	ec f3       	brlt	.-6      	; 0x2cf4 <__mulsf3_pse+0x82>
    2cfa:	98 3e       	cpi	r25, 0xE8	; 232
    2cfc:	dc f3       	brlt	.-10     	; 0x2cf4 <__mulsf3_pse+0x82>
    2cfe:	86 95       	lsr	r24
    2d00:	77 95       	ror	r23
    2d02:	67 95       	ror	r22
    2d04:	b7 95       	ror	r27
    2d06:	f7 95       	ror	r31
    2d08:	e7 95       	ror	r30
    2d0a:	9f 5f       	subi	r25, 0xFF	; 255
    2d0c:	c1 f7       	brne	.-16     	; 0x2cfe <__mulsf3_pse+0x8c>
    2d0e:	fe 2b       	or	r31, r30
    2d10:	88 0f       	add	r24, r24
    2d12:	91 1d       	adc	r25, r1
    2d14:	96 95       	lsr	r25
    2d16:	87 95       	ror	r24
    2d18:	97 f9       	bld	r25, 7
    2d1a:	08 95       	ret
    2d1c:	11 f4       	brne	.+4      	; 0x2d22 <__mulsf3_pse+0xb0>
    2d1e:	0e f4       	brtc	.+2      	; 0x2d22 <__mulsf3_pse+0xb0>
    2d20:	1f cf       	rjmp	.-450    	; 0x2b60 <__fp_nan>
    2d22:	41 c0       	rjmp	.+130    	; 0x2da6 <__fp_mpack>

00002d24 <sqrt>:
    2d24:	6c df       	rcall	.-296    	; 0x2bfe <__fp_splitA>
    2d26:	d0 f3       	brcs	.-12     	; 0x2d1c <__mulsf3_pse+0xaa>
    2d28:	99 23       	and	r25, r25
    2d2a:	d9 f3       	breq	.-10     	; 0x2d22 <__mulsf3_pse+0xb0>
    2d2c:	ce f3       	brts	.-14     	; 0x2d20 <__mulsf3_pse+0xae>
    2d2e:	9f 57       	subi	r25, 0x7F	; 127
    2d30:	55 0b       	sbc	r21, r21
    2d32:	87 ff       	sbrs	r24, 7
    2d34:	46 d0       	rcall	.+140    	; 0x2dc2 <__fp_norm2>
    2d36:	00 24       	eor	r0, r0
    2d38:	a0 e6       	ldi	r26, 0x60	; 96
    2d3a:	40 ea       	ldi	r20, 0xA0	; 160
    2d3c:	90 01       	movw	r18, r0
    2d3e:	80 58       	subi	r24, 0x80	; 128
    2d40:	56 95       	lsr	r21
    2d42:	97 95       	ror	r25
    2d44:	28 f4       	brcc	.+10     	; 0x2d50 <sqrt+0x2c>
    2d46:	80 5c       	subi	r24, 0xC0	; 192
    2d48:	66 0f       	add	r22, r22
    2d4a:	77 1f       	adc	r23, r23
    2d4c:	88 1f       	adc	r24, r24
    2d4e:	20 f0       	brcs	.+8      	; 0x2d58 <sqrt+0x34>
    2d50:	26 17       	cp	r18, r22
    2d52:	37 07       	cpc	r19, r23
    2d54:	48 07       	cpc	r20, r24
    2d56:	30 f4       	brcc	.+12     	; 0x2d64 <sqrt+0x40>
    2d58:	62 1b       	sub	r22, r18
    2d5a:	73 0b       	sbc	r23, r19
    2d5c:	84 0b       	sbc	r24, r20
    2d5e:	20 29       	or	r18, r0
    2d60:	31 29       	or	r19, r1
    2d62:	4a 2b       	or	r20, r26
    2d64:	a6 95       	lsr	r26
    2d66:	17 94       	ror	r1
    2d68:	07 94       	ror	r0
    2d6a:	20 25       	eor	r18, r0
    2d6c:	31 25       	eor	r19, r1
    2d6e:	4a 27       	eor	r20, r26
    2d70:	58 f7       	brcc	.-42     	; 0x2d48 <sqrt+0x24>
    2d72:	66 0f       	add	r22, r22
    2d74:	77 1f       	adc	r23, r23
    2d76:	88 1f       	adc	r24, r24
    2d78:	20 f0       	brcs	.+8      	; 0x2d82 <sqrt+0x5e>
    2d7a:	26 17       	cp	r18, r22
    2d7c:	37 07       	cpc	r19, r23
    2d7e:	48 07       	cpc	r20, r24
    2d80:	30 f4       	brcc	.+12     	; 0x2d8e <sqrt+0x6a>
    2d82:	62 0b       	sbc	r22, r18
    2d84:	73 0b       	sbc	r23, r19
    2d86:	84 0b       	sbc	r24, r20
    2d88:	20 0d       	add	r18, r0
    2d8a:	31 1d       	adc	r19, r1
    2d8c:	41 1d       	adc	r20, r1
    2d8e:	a0 95       	com	r26
    2d90:	81 f7       	brne	.-32     	; 0x2d72 <sqrt+0x4e>
    2d92:	b9 01       	movw	r22, r18
    2d94:	84 2f       	mov	r24, r20
    2d96:	91 58       	subi	r25, 0x81	; 129
    2d98:	88 0f       	add	r24, r24
    2d9a:	96 95       	lsr	r25
    2d9c:	87 95       	ror	r24
    2d9e:	08 95       	ret

00002da0 <square>:
    2da0:	9b 01       	movw	r18, r22
    2da2:	ac 01       	movw	r20, r24
    2da4:	58 cf       	rjmp	.-336    	; 0x2c56 <__mulsf3>

00002da6 <__fp_mpack>:
    2da6:	9f 3f       	cpi	r25, 0xFF	; 255
    2da8:	31 f0       	breq	.+12     	; 0x2db6 <__fp_mpack_finite+0xc>

00002daa <__fp_mpack_finite>:
    2daa:	91 50       	subi	r25, 0x01	; 1
    2dac:	20 f4       	brcc	.+8      	; 0x2db6 <__fp_mpack_finite+0xc>
    2dae:	87 95       	ror	r24
    2db0:	77 95       	ror	r23
    2db2:	67 95       	ror	r22
    2db4:	b7 95       	ror	r27
    2db6:	88 0f       	add	r24, r24
    2db8:	91 1d       	adc	r25, r1
    2dba:	96 95       	lsr	r25
    2dbc:	87 95       	ror	r24
    2dbe:	97 f9       	bld	r25, 7
    2dc0:	08 95       	ret

00002dc2 <__fp_norm2>:
    2dc2:	91 50       	subi	r25, 0x01	; 1
    2dc4:	50 40       	sbci	r21, 0x00	; 0
    2dc6:	66 0f       	add	r22, r22
    2dc8:	77 1f       	adc	r23, r23
    2dca:	88 1f       	adc	r24, r24
    2dcc:	d2 f7       	brpl	.-12     	; 0x2dc2 <__fp_norm2>
    2dce:	08 95       	ret

00002dd0 <__udivmodsi4>:
    2dd0:	a1 e2       	ldi	r26, 0x21	; 33
    2dd2:	1a 2e       	mov	r1, r26
    2dd4:	aa 1b       	sub	r26, r26
    2dd6:	bb 1b       	sub	r27, r27
    2dd8:	fd 01       	movw	r30, r26
    2dda:	0d c0       	rjmp	.+26     	; 0x2df6 <__udivmodsi4_ep>

00002ddc <__udivmodsi4_loop>:
    2ddc:	aa 1f       	adc	r26, r26
    2dde:	bb 1f       	adc	r27, r27
    2de0:	ee 1f       	adc	r30, r30
    2de2:	ff 1f       	adc	r31, r31
    2de4:	a2 17       	cp	r26, r18
    2de6:	b3 07       	cpc	r27, r19
    2de8:	e4 07       	cpc	r30, r20
    2dea:	f5 07       	cpc	r31, r21
    2dec:	20 f0       	brcs	.+8      	; 0x2df6 <__udivmodsi4_ep>
    2dee:	a2 1b       	sub	r26, r18
    2df0:	b3 0b       	sbc	r27, r19
    2df2:	e4 0b       	sbc	r30, r20
    2df4:	f5 0b       	sbc	r31, r21

00002df6 <__udivmodsi4_ep>:
    2df6:	66 1f       	adc	r22, r22
    2df8:	77 1f       	adc	r23, r23
    2dfa:	88 1f       	adc	r24, r24
    2dfc:	99 1f       	adc	r25, r25
    2dfe:	1a 94       	dec	r1
    2e00:	69 f7       	brne	.-38     	; 0x2ddc <__udivmodsi4_loop>
    2e02:	60 95       	com	r22
    2e04:	70 95       	com	r23
    2e06:	80 95       	com	r24
    2e08:	90 95       	com	r25
    2e0a:	9b 01       	movw	r18, r22
    2e0c:	ac 01       	movw	r20, r24
    2e0e:	bd 01       	movw	r22, r26
    2e10:	cf 01       	movw	r24, r30
    2e12:	08 95       	ret

00002e14 <strcmp>:
    2e14:	fb 01       	movw	r30, r22
    2e16:	dc 01       	movw	r26, r24
    2e18:	8d 91       	ld	r24, X+
    2e1a:	01 90       	ld	r0, Z+
    2e1c:	80 19       	sub	r24, r0
    2e1e:	01 10       	cpse	r0, r1
    2e20:	d9 f3       	breq	.-10     	; 0x2e18 <strcmp+0x4>
    2e22:	99 0b       	sbc	r25, r25
    2e24:	08 95       	ret

00002e26 <ltoa>:
    2e26:	fa 01       	movw	r30, r20
    2e28:	cf 93       	push	r28
    2e2a:	ff 93       	push	r31
    2e2c:	ef 93       	push	r30
    2e2e:	22 30       	cpi	r18, 0x02	; 2
    2e30:	44 f1       	brlt	.+80     	; 0x2e82 <ltoa+0x5c>
    2e32:	25 32       	cpi	r18, 0x25	; 37
    2e34:	34 f5       	brge	.+76     	; 0x2e82 <ltoa+0x5c>
    2e36:	c2 2f       	mov	r28, r18
    2e38:	e8 94       	clt
    2e3a:	ca 30       	cpi	r28, 0x0A	; 10
    2e3c:	49 f4       	brne	.+18     	; 0x2e50 <ltoa+0x2a>
    2e3e:	97 fb       	bst	r25, 7
    2e40:	3e f4       	brtc	.+14     	; 0x2e50 <ltoa+0x2a>
    2e42:	90 95       	com	r25
    2e44:	80 95       	com	r24
    2e46:	70 95       	com	r23
    2e48:	61 95       	neg	r22
    2e4a:	7f 4f       	sbci	r23, 0xFF	; 255
    2e4c:	8f 4f       	sbci	r24, 0xFF	; 255
    2e4e:	9f 4f       	sbci	r25, 0xFF	; 255
    2e50:	2c 2f       	mov	r18, r28
    2e52:	33 27       	eor	r19, r19
    2e54:	44 27       	eor	r20, r20
    2e56:	55 27       	eor	r21, r21
    2e58:	ff 93       	push	r31
    2e5a:	ef 93       	push	r30
    2e5c:	0e 94 e8 16 	call	0x2dd0	; 0x2dd0 <__udivmodsi4>
    2e60:	ef 91       	pop	r30
    2e62:	ff 91       	pop	r31
    2e64:	60 5d       	subi	r22, 0xD0	; 208
    2e66:	6a 33       	cpi	r22, 0x3A	; 58
    2e68:	0c f0       	brlt	.+2      	; 0x2e6c <ltoa+0x46>
    2e6a:	69 5d       	subi	r22, 0xD9	; 217
    2e6c:	61 93       	st	Z+, r22
    2e6e:	b9 01       	movw	r22, r18
    2e70:	ca 01       	movw	r24, r20
    2e72:	60 50       	subi	r22, 0x00	; 0
    2e74:	70 40       	sbci	r23, 0x00	; 0
    2e76:	80 40       	sbci	r24, 0x00	; 0
    2e78:	90 40       	sbci	r25, 0x00	; 0
    2e7a:	51 f7       	brne	.-44     	; 0x2e50 <ltoa+0x2a>
    2e7c:	16 f4       	brtc	.+4      	; 0x2e82 <ltoa+0x5c>
    2e7e:	cd e2       	ldi	r28, 0x2D	; 45
    2e80:	c1 93       	st	Z+, r28
    2e82:	10 82       	st	Z, r1
    2e84:	8f 91       	pop	r24
    2e86:	9f 91       	pop	r25
    2e88:	cf 91       	pop	r28
    2e8a:	0c 94 47 17 	jmp	0x2e8e	; 0x2e8e <strrev>

00002e8e <strrev>:
    2e8e:	dc 01       	movw	r26, r24
    2e90:	fc 01       	movw	r30, r24
    2e92:	67 2f       	mov	r22, r23
    2e94:	71 91       	ld	r23, Z+
    2e96:	77 23       	and	r23, r23
    2e98:	e1 f7       	brne	.-8      	; 0x2e92 <strrev+0x4>
    2e9a:	32 97       	sbiw	r30, 0x02	; 2
    2e9c:	04 c0       	rjmp	.+8      	; 0x2ea6 <strrev+0x18>
    2e9e:	7c 91       	ld	r23, X
    2ea0:	6d 93       	st	X+, r22
    2ea2:	70 83       	st	Z, r23
    2ea4:	62 91       	ld	r22, -Z
    2ea6:	ae 17       	cp	r26, r30
    2ea8:	bf 07       	cpc	r27, r31
    2eaa:	c8 f3       	brcs	.-14     	; 0x2e9e <strrev+0x10>
    2eac:	08 95       	ret

00002eae <_exit>:
    2eae:	f8 94       	cli

00002eb0 <__stop_program>:
    2eb0:	ff cf       	rjmp	.-2      	; 0x2eb0 <__stop_program>
