
SimpleTesting.elf:     file format elf32-avr

Sections:
Idx Name          Size      VMA       LMA       File off  Algn
  0 .text         00003f14  00000000  00000000  00000094  2**1
                  CONTENTS, ALLOC, LOAD, READONLY, CODE
  1 .data         00000172  00800060  00003f14  00003fa8  2**0
                  CONTENTS, ALLOC, LOAD, DATA
  2 .bss          000003d5  008001d2  008001d2  0000411a  2**0
                  ALLOC
  3 .stab         000035dc  00000000  00000000  0000411c  2**2
                  CONTENTS, READONLY, DEBUGGING
  4 .stabstr      00001002  00000000  00000000  000076f8  2**0
                  CONTENTS, READONLY, DEBUGGING
  5 .comment      0000002f  00000000  00000000  000086fa  2**0
                  CONTENTS, READONLY
  6 .debug_aranges 00000430  00000000  00000000  00008729  2**0
                  CONTENTS, READONLY, DEBUGGING
  7 .debug_info   000077eb  00000000  00000000  00008b59  2**0
                  CONTENTS, READONLY, DEBUGGING
  8 .debug_abbrev 00001032  00000000  00000000  00010344  2**0
                  CONTENTS, READONLY, DEBUGGING
  9 .debug_line   000018eb  00000000  00000000  00011376  2**0
                  CONTENTS, READONLY, DEBUGGING
 10 .debug_frame  00000a38  00000000  00000000  00012c64  2**2
                  CONTENTS, READONLY, DEBUGGING
 11 .debug_str    00001381  00000000  00000000  0001369c  2**0
                  CONTENTS, READONLY, DEBUGGING
 12 .debug_loc    00001740  00000000  00000000  00014a1d  2**0
                  CONTENTS, READONLY, DEBUGGING
 13 .debug_ranges 00000390  00000000  00000000  0001615d  2**0
                  CONTENTS, READONLY, DEBUGGING

Disassembly of section .text:

00000000 <__vectors>:
			write_string_ln("baro started");
	
}

int16_t baro_read()
{
       0:	0c 94 41 00 	jmp	0x82	; 0x82 <__ctors_end>
			uint8_t status = 0;
			// first we need to see if data is available!
			i2c_start();
       4:	0c 94 65 09 	jmp	0x12ca	; 0x12ca <__vector_1>
			i2c_send_address_write(MPL3115A2_ADDRESS_WRITE);
       8:	0c 94 5e 00 	jmp	0xbc	; 0xbc <__bad_interrupt>
       c:	0c 94 5e 00 	jmp	0xbc	; 0xbc <__bad_interrupt>
			i2c_send_registry(MPL3115A2_STATUS);
      10:	0c 94 5e 00 	jmp	0xbc	; 0xbc <__bad_interrupt>
      14:	0c 94 94 09 	jmp	0x1328	; 0x1328 <__vector_5>
			i2c_repeated_start();
      18:	0c 94 5e 00 	jmp	0xbc	; 0xbc <__bad_interrupt>
			i2c_send_address_read(MPL3115A2_ADDRESS_READ);
      1c:	0c 94 15 08 	jmp	0x102a	; 0x102a <__vector_7>
      20:	0c 94 5e 00 	jmp	0xbc	; 0xbc <__bad_interrupt>
			status = i2c_read_data_nmak();
      24:	0c 94 5e 00 	jmp	0xbc	; 0xbc <__bad_interrupt>
			i2c_stop();
      28:	0c 94 bf 09 	jmp	0x137e	; 0x137e <__vector_10>
			//write_string("status: ");write_var_ln(status);
			// if bit 2 of the Status Registry is set to 1, then new data is available
			// -> mask for the bit, then check the value of the mask (here -> 2nd bit, gives 2
			while(baro_cal_flag == FALSE)
      2c:	0c 94 5e 00 	jmp	0xbc	; 0xbc <__bad_interrupt>
      30:	0c 94 5e 00 	jmp	0xbc	; 0xbc <__bad_interrupt>
			{
				if(status == 238)
      34:	0c 94 6b 1b 	jmp	0x36d6	; 0x36d6 <__vector_13>
				{
					i2c_start();
      38:	0c 94 5e 00 	jmp	0xbc	; 0xbc <__bad_interrupt>
					i2c_send_address_write(MPL3115A2_ADDRESS_WRITE);
      3c:	0c 94 5e 00 	jmp	0xbc	; 0xbc <__bad_interrupt>
      40:	0c 94 5e 00 	jmp	0xbc	; 0xbc <__bad_interrupt>
					i2c_send_registry(MPL3115A2_OUT_P_MSB);					// the barometer supports auto increment without any further info
      44:	0c 94 5e 00 	jmp	0xbc	; 0xbc <__bad_interrupt>
      48:	0c 94 5e 00 	jmp	0xbc	; 0xbc <__bad_interrupt>
					i2c_repeated_start();
      4c:	0c 94 5e 00 	jmp	0xbc	; 0xbc <__bad_interrupt>
					i2c_send_address_read(MPL3115A2_ADDRESS_READ);
      50:	0c 94 5e 00 	jmp	0xbc	; 0xbc <__bad_interrupt>
      54:	08 4a       	sbci	r16, 0xA8	; 168
					baro_p_h = i2c_read_data_mak();							// the output is called p, anyways as we set the ALT Bit, we will read an Altitude in m
      56:	d7 3b       	cpi	r29, 0xB7	; 183
      58:	3b ce       	rjmp	.-906    	; 0xfffffcd0 <__eeprom_end+0xff7efcd0>
      5a:	01 6e       	ori	r16, 0xE1	; 225
      5c:	84 bc       	out	0x24, r8	; 36
					baro_p_c = i2c_read_data_mak();
      5e:	bf fd       	.word	0xfdbf	; ????
      60:	c1 2f       	mov	r28, r17
      62:	3d 6c       	ori	r19, 0xCD	; 205
      64:	74 31       	cpi	r23, 0x14	; 20
					baro_p_l = i2c_read_data_nmak();
      66:	9a bd       	out	0x2a, r25	; 42
      68:	56 83       	std	Z+6, r21	; 0x06
      6a:	3d da       	rcall	.-2950   	; 0xfffff4e6 <__eeprom_end+0xff7ef4e6>
      6c:	3d 00       	.word	0x003d	; ????
					i2c_stop();
      6e:	c7 7f       	andi	r28, 0xF7	; 247
      70:	11 be       	out	0x31, r1	; 49
					// Determine the Offset
					baro_p = (baro_p_h << 8) |(baro_p_c);
      72:	d9 e4       	ldi	r29, 0x49	; 73
      74:	bb 4c       	sbci	r27, 0xCB	; 203
      76:	3e 91       	ld	r19, -X
      78:	6b aa       	std	Y+51, r6	; 0x33
      7a:	aa be       	out	0x3a, r10	; 58
      7c:	00 00       	nop
      7e:	00 80       	ld	r0, Z
      80:	3f 00       	.word	0x003f	; ????

00000082 <__ctors_end>:
      82:	11 24       	eor	r1, r1
      84:	1f be       	out	0x3f, r1	; 63
      86:	cf e5       	ldi	r28, 0x5F	; 95
      88:	d8 e0       	ldi	r29, 0x08	; 8
      8a:	de bf       	out	0x3e, r29	; 62
      8c:	cd bf       	out	0x3d, r28	; 61

0000008e <__do_copy_data>:
					baro_cal_flag = TRUE;
      8e:	11 e0       	ldi	r17, 0x01	; 1
      90:	a0 e6       	ldi	r26, 0x60	; 96
      92:	b0 e0       	ldi	r27, 0x00	; 0
					return baro_p;
      94:	e4 e1       	ldi	r30, 0x14	; 20
			status = i2c_read_data_nmak();
			i2c_stop();
			//write_string("status: ");write_var_ln(status);
			// if bit 2 of the Status Registry is set to 1, then new data is available
			// -> mask for the bit, then check the value of the mask (here -> 2nd bit, gives 2
			while(baro_cal_flag == FALSE)
      96:	ff e3       	ldi	r31, 0x3F	; 63
      98:	02 c0       	rjmp	.+4      	; 0x9e <__do_copy_data+0x10>
					baro_p = (baro_p_h << 8) |(baro_p_c);
					baro_cal_flag = TRUE;
					return baro_p;
				}
			}
			if(status == 238)
      9a:	05 90       	lpm	r0, Z+
      9c:	0d 92       	st	X+, r0
			{
				//write_string_ln("read ");
				i2c_start();
      9e:	a2 3d       	cpi	r26, 0xD2	; 210
      a0:	b1 07       	cpc	r27, r17
				i2c_send_address_write(MPL3115A2_ADDRESS_WRITE);
      a2:	d9 f7       	brne	.-10     	; 0x9a <__do_copy_data+0xc>

000000a4 <__do_clear_bss>:
      a4:	25 e0       	ldi	r18, 0x05	; 5
      a6:	a2 ed       	ldi	r26, 0xD2	; 210
      a8:	b1 e0       	ldi	r27, 0x01	; 1
				i2c_send_registry(MPL3115A2_OUT_P_MSB);					// the barometer supports auto increment without any further info
      aa:	01 c0       	rjmp	.+2      	; 0xae <.do_clear_bss_start>

000000ac <.do_clear_bss_loop>:
      ac:	1d 92       	st	X+, r1

000000ae <.do_clear_bss_start>:
      ae:	a7 3a       	cpi	r26, 0xA7	; 167
      b0:	b2 07       	cpc	r27, r18
				i2c_repeated_start();
      b2:	e1 f7       	brne	.-8      	; 0xac <.do_clear_bss_loop>
      b4:	0e 94 1f 0a 	call	0x143e	; 0x143e <main>
				i2c_send_address_read(MPL3115A2_ADDRESS_READ);
      b8:	0c 94 88 1f 	jmp	0x3f10	; 0x3f10 <_exit>

000000bc <__bad_interrupt>:
      bc:	0c 94 00 00 	jmp	0	; 0x0 <__vectors>

000000c0 <write_acc_registry>:
				baro_p_h = i2c_read_data_mak();							// the output is called p, anyways as we set the ALT Bit, we will read an Altitude in m
      c0:	cf 93       	push	r28
      c2:	df 93       	push	r29
      c4:	d8 2f       	mov	r29, r24
				baro_p_c = i2c_read_data_mak();
      c6:	c6 2f       	mov	r28, r22
      c8:	0e 94 82 07 	call	0xf04	; 0xf04 <i2c_start>
      cc:	82 e3       	ldi	r24, 0x32	; 50
				baro_p_l = i2c_read_data_nmak();
      ce:	90 e0       	ldi	r25, 0x00	; 0
      d0:	0e 94 9e 07 	call	0xf3c	; 0xf3c <i2c_send_address_write>
      d4:	8d 2f       	mov	r24, r29
				i2c_stop();
      d6:	90 e0       	ldi	r25, 0x00	; 0
      d8:	0e 94 a9 07 	call	0xf52	; 0xf52 <i2c_send_registry>
						
				// the lowest byte is only using the highest 4 bits
				// further these 4 bits are the fractional value
				// as we do not want the fractional part, we do not read the
				// p_l bit.
				baro_p = (baro_p_h << 8) |(baro_p_c);
      dc:	8c 2f       	mov	r24, r28
      de:	90 e0       	ldi	r25, 0x00	; 0
      e0:	0e 94 b4 07 	call	0xf68	; 0xf68 <i2c_send_data>
      e4:	0e 94 cf 07 	call	0xf9e	; 0xf9e <i2c_stop>
      e8:	df 91       	pop	r29
      ea:	cf 91       	pop	r28
      ec:	08 95       	ret

000000ee <acc_start>:
      ee:	67 e4       	ldi	r22, 0x47	; 71
      f0:	80 e2       	ldi	r24, 0x20	; 32
      f2:	0e 94 60 00 	call	0xc0	; 0xc0 <write_acc_registry>
				baro_previous = baro_p-baro_offset;
      f6:	60 e1       	ldi	r22, 0x10	; 16
      f8:	83 e2       	ldi	r24, 0x23	; 35
      fa:	0e 94 60 00 	call	0xc0	; 0xc0 <write_acc_registry>
      fe:	8a e8       	ldi	r24, 0x8A	; 138
     100:	90 e0       	ldi	r25, 0x00	; 0
     102:	0e 94 f1 1b 	call	0x37e2	; 0x37e2 <write_string_ln>
     106:	08 95       	ret

00000108 <acc_reading>:
     108:	0f 93       	push	r16
				//write_var_ln(baro_previous);
				return (baro_previous);
     10a:	1f 93       	push	r17
				// This value can be used as absolute altitude above sea level standard pressure -> acquisition will be done every second, no need for permanent polling
			}
			else return baro_previous; 		
     10c:	cf 93       	push	r28
     10e:	df 93       	push	r29
     110:	ec 01       	movw	r28, r24
     112:	0e 94 82 07 	call	0xf04	; 0xf04 <i2c_start>
			
}
     116:	82 e3       	ldi	r24, 0x32	; 50
     118:	90 e0       	ldi	r25, 0x00	; 0
     11a:	0e 94 9e 07 	call	0xf3c	; 0xf3c <i2c_send_address_write>

struct acc_readings_obj acc_reading(void)
{
	i2c_start();
	i2c_send_address_write(LSM303_ACC_ADDRESS_WRITE);
	i2c_send_registry(LSM303_ACC_OUT_X_L+0b10000000);		// add MSB to activate auto increment
     11e:	88 ea       	ldi	r24, 0xA8	; 168
     120:	90 e0       	ldi	r25, 0x00	; 0
     122:	0e 94 a9 07 	call	0xf52	; 0xf52 <i2c_send_registry>
	i2c_repeated_start();
     126:	0e 94 8c 07 	call	0xf18	; 0xf18 <i2c_repeated_start>
	i2c_send_address_read(LSM303_ACC_ADDRESS_READ);
     12a:	83 e3       	ldi	r24, 0x33	; 51
     12c:	90 e0       	ldi	r25, 0x00	; 0
     12e:	0e 94 92 07 	call	0xf24	; 0xf24 <i2c_send_address_read>
	acc_x_l = i2c_read_data_mak();
     132:	0e 94 c7 07 	call	0xf8e	; 0xf8e <i2c_read_data_mak>
     136:	80 93 e2 01 	sts	0x01E2, r24
	acc_x_h = i2c_read_data_mak();
     13a:	0e 94 c7 07 	call	0xf8e	; 0xf8e <i2c_read_data_mak>
     13e:	80 93 e3 01 	sts	0x01E3, r24
	acc_y_l = i2c_read_data_mak();
     142:	0e 94 c7 07 	call	0xf8e	; 0xf8e <i2c_read_data_mak>
     146:	80 93 dc 01 	sts	0x01DC, r24
	acc_y_h = i2c_read_data_mak();
     14a:	0e 94 c7 07 	call	0xf8e	; 0xf8e <i2c_read_data_mak>
     14e:	80 93 dd 01 	sts	0x01DD, r24
	acc_z_l = i2c_read_data_mak();
     152:	0e 94 c7 07 	call	0xf8e	; 0xf8e <i2c_read_data_mak>
     156:	80 93 d6 01 	sts	0x01D6, r24
	acc_z_h = i2c_read_data_nmak();					// add the end we give no master ack to finish communication
     15a:	0e 94 bf 07 	call	0xf7e	; 0xf7e <i2c_read_data_nmak>
     15e:	80 93 d7 01 	sts	0x01D7, r24
	i2c_stop();
     162:	0e 94 cf 07 	call	0xf9e	; 0xf9e <i2c_stop>
	
	acc_x = ((acc_x_h<<8) | (acc_x_l))>>4;			// to combine high and low bits and to shift over not used bits
     166:	80 91 e3 01 	lds	r24, 0x01E3
     16a:	99 27       	eor	r25, r25
     16c:	87 fd       	sbrc	r24, 7
     16e:	90 95       	com	r25
     170:	98 2f       	mov	r25, r24
     172:	88 27       	eor	r24, r24
     174:	20 91 e2 01 	lds	r18, 0x01E2
     178:	82 2b       	or	r24, r18
     17a:	95 95       	asr	r25
     17c:	87 95       	ror	r24
     17e:	95 95       	asr	r25
     180:	87 95       	ror	r24
     182:	95 95       	asr	r25
     184:	87 95       	ror	r24
     186:	95 95       	asr	r25
     188:	87 95       	ror	r24
     18a:	90 93 e1 01 	sts	0x01E1, r25
     18e:	80 93 e0 01 	sts	0x01E0, r24
	acc_y = ((acc_y_h<<8) | (acc_y_l))>>4;
     192:	00 91 dd 01 	lds	r16, 0x01DD
     196:	11 27       	eor	r17, r17
     198:	07 fd       	sbrc	r16, 7
     19a:	10 95       	com	r17
     19c:	10 2f       	mov	r17, r16
     19e:	00 27       	eor	r16, r16
     1a0:	20 91 dc 01 	lds	r18, 0x01DC
     1a4:	02 2b       	or	r16, r18
     1a6:	15 95       	asr	r17
     1a8:	07 95       	ror	r16
     1aa:	15 95       	asr	r17
     1ac:	07 95       	ror	r16
     1ae:	15 95       	asr	r17
     1b0:	07 95       	ror	r16
     1b2:	15 95       	asr	r17
     1b4:	07 95       	ror	r16
     1b6:	10 93 db 01 	sts	0x01DB, r17
     1ba:	00 93 da 01 	sts	0x01DA, r16
	acc_z = ((acc_z_h<<8) | (acc_z_l))>>4;
     1be:	40 91 d7 01 	lds	r20, 0x01D7
     1c2:	55 27       	eor	r21, r21
     1c4:	47 fd       	sbrc	r20, 7
     1c6:	50 95       	com	r21
     1c8:	54 2f       	mov	r21, r20
     1ca:	44 27       	eor	r20, r20
     1cc:	20 91 d6 01 	lds	r18, 0x01D6
     1d0:	42 2b       	or	r20, r18
     1d2:	55 95       	asr	r21
     1d4:	47 95       	ror	r20
     1d6:	55 95       	asr	r21
     1d8:	47 95       	ror	r20
     1da:	55 95       	asr	r21
     1dc:	47 95       	ror	r20
     1de:	55 95       	asr	r21
     1e0:	47 95       	ror	r20
     1e2:	50 93 d5 01 	sts	0x01D5, r21
     1e6:	40 93 d4 01 	sts	0x01D4, r20
	
	acc_x_g = acc_x * 2; // in milli g => 1/1000 g		// As our FS is set to 01 (+-4G), the resolution is 2mg/digit,  LSM303 Datasheet Page 9
     1ea:	88 0f       	add	r24, r24
     1ec:	99 1f       	adc	r25, r25
     1ee:	90 93 df 01 	sts	0x01DF, r25
     1f2:	80 93 de 01 	sts	0x01DE, r24
	acc_y_g = acc_y * 2;
     1f6:	00 0f       	add	r16, r16
     1f8:	11 1f       	adc	r17, r17
     1fa:	10 93 d9 01 	sts	0x01D9, r17
     1fe:	00 93 d8 01 	sts	0x01D8, r16
	acc_z_g = acc_z * 2;
     202:	44 0f       	add	r20, r20
     204:	55 1f       	adc	r21, r21
     206:	50 93 d3 01 	sts	0x01D3, r21
     20a:	40 93 d2 01 	sts	0x01D2, r20
	
	struct acc_readings_obj acc_values;
	acc_values.a_x = acc_x_g;
     20e:	aa 27       	eor	r26, r26
     210:	97 fd       	sbrc	r25, 7
     212:	a0 95       	com	r26
     214:	ba 2f       	mov	r27, r26
     216:	88 83       	st	Y, r24
     218:	99 83       	std	Y+1, r25	; 0x01
     21a:	aa 83       	std	Y+2, r26	; 0x02
     21c:	bb 83       	std	Y+3, r27	; 0x03
	acc_values.a_y = acc_y_g;
     21e:	22 27       	eor	r18, r18
     220:	17 fd       	sbrc	r17, 7
     222:	20 95       	com	r18
     224:	32 2f       	mov	r19, r18
     226:	0c 83       	std	Y+4, r16	; 0x04
     228:	1d 83       	std	Y+5, r17	; 0x05
     22a:	2e 83       	std	Y+6, r18	; 0x06
     22c:	3f 83       	std	Y+7, r19	; 0x07
	acc_values.a_z = acc_z_g;
     22e:	66 27       	eor	r22, r22
     230:	57 fd       	sbrc	r21, 7
     232:	60 95       	com	r22
     234:	76 2f       	mov	r23, r22
     236:	48 87       	std	Y+8, r20	; 0x08
     238:	59 87       	std	Y+9, r21	; 0x09
     23a:	6a 87       	std	Y+10, r22	; 0x0a
     23c:	7b 87       	std	Y+11, r23	; 0x0b
	
	return(acc_values);
     23e:	ce 01       	movw	r24, r28
     240:	df 91       	pop	r29
     242:	cf 91       	pop	r28
     244:	1f 91       	pop	r17
     246:	0f 91       	pop	r16
     248:	08 95       	ret

0000024a <write_gyro_registry>:
	write_var_ln(data);
}

// writing registry general function
void write_gyro_registry(char registry, char data)
{
     24a:	cf 93       	push	r28
     24c:	df 93       	push	r29
     24e:	d8 2f       	mov	r29, r24
     250:	c6 2f       	mov	r28, r22
	i2c_start();
     252:	0e 94 82 07 	call	0xf04	; 0xf04 <i2c_start>
	i2c_send_address_write(L3GD20_ADDRESS_WRITE);
     256:	86 ed       	ldi	r24, 0xD6	; 214
     258:	90 e0       	ldi	r25, 0x00	; 0
     25a:	0e 94 9e 07 	call	0xf3c	; 0xf3c <i2c_send_address_write>
	i2c_send_registry(registry);
     25e:	8d 2f       	mov	r24, r29
     260:	90 e0       	ldi	r25, 0x00	; 0
     262:	0e 94 a9 07 	call	0xf52	; 0xf52 <i2c_send_registry>
	i2c_send_data(data);
     266:	8c 2f       	mov	r24, r28
     268:	90 e0       	ldi	r25, 0x00	; 0
     26a:	0e 94 b4 07 	call	0xf68	; 0xf68 <i2c_send_data>
	i2c_stop();
     26e:	0e 94 cf 07 	call	0xf9e	; 0xf9e <i2c_stop>
	//write_string_ln("data wrote");
}
     272:	df 91       	pop	r29
     274:	cf 91       	pop	r28
     276:	08 95       	ret

00000278 <gyro_start>:

// Gyro intialization (start) routine
void gyro_start(void)
{
	// CTRL REG 1
	write_gyro_registry(L3GD20_CTRL_REG1, 0x0F);		// Enabling all axes read out and Power On
     278:	6f e0       	ldi	r22, 0x0F	; 15
     27a:	80 e2       	ldi	r24, 0x20	; 32
     27c:	0e 94 25 01 	call	0x24a	; 0x24a <write_gyro_registry>
	// CTRL REG 2
	write_gyro_registry(L3GD20_CTRL_REG2, 0x20);		// Normal Mode of High Pass Filter (High Bits), Filter Rate (Low Bits 0-9), Output Data Rate to 100 Hz (default)
     280:	60 e2       	ldi	r22, 0x20	; 32
     282:	81 e2       	ldi	r24, 0x21	; 33
     284:	0e 94 25 01 	call	0x24a	; 0x24a <write_gyro_registry>
	// CTRL REG 5
	write_gyro_registry(L3GD20_CTRL_REG5, 0x10);		// High Pass Filter Enable (High Bit 1)
     288:	60 e1       	ldi	r22, 0x10	; 16
     28a:	84 e2       	ldi	r24, 0x24	; 36
     28c:	0e 94 25 01 	call	0x24a	; 0x24a <write_gyro_registry>
	write_string_ln("gyro started");
     290:	86 e9       	ldi	r24, 0x96	; 150
     292:	90 e0       	ldi	r25, 0x00	; 0
     294:	0e 94 f1 1b 	call	0x37e2	; 0x37e2 <write_string_ln>
     298:	08 95       	ret

0000029a <gyro_read>:
	write_var_ln(temperature);
}

// Gyro turn rate reading
struct three_elements_obj gyro_read(void)
{
     29a:	8f 92       	push	r8
     29c:	9f 92       	push	r9
     29e:	af 92       	push	r10
     2a0:	bf 92       	push	r11
     2a2:	cf 92       	push	r12
     2a4:	df 92       	push	r13
     2a6:	ef 92       	push	r14
     2a8:	ff 92       	push	r15
     2aa:	0f 93       	push	r16
     2ac:	1f 93       	push	r17
     2ae:	cf 93       	push	r28
     2b0:	df 93       	push	r29
     2b2:	ec 01       	movw	r28, r24
	i2c_start();
     2b4:	0e 94 82 07 	call	0xf04	; 0xf04 <i2c_start>
	i2c_send_address_write(L3GD20_ADDRESS_WRITE);
     2b8:	86 ed       	ldi	r24, 0xD6	; 214
     2ba:	90 e0       	ldi	r25, 0x00	; 0
     2bc:	0e 94 9e 07 	call	0xf3c	; 0xf3c <i2c_send_address_write>
	i2c_send_registry(L3GD20_OUT_X_L + 0b10000000);		// add MSB to activate auto increment
     2c0:	88 ea       	ldi	r24, 0xA8	; 168
     2c2:	90 e0       	ldi	r25, 0x00	; 0
     2c4:	0e 94 a9 07 	call	0xf52	; 0xf52 <i2c_send_registry>
	i2c_repeated_start();
     2c8:	0e 94 8c 07 	call	0xf18	; 0xf18 <i2c_repeated_start>
	i2c_send_address_read(L3GD20_ADDRESS_READ);
     2cc:	87 ed       	ldi	r24, 0xD7	; 215
     2ce:	90 e0       	ldi	r25, 0x00	; 0
     2d0:	0e 94 92 07 	call	0xf24	; 0xf24 <i2c_send_address_read>
	gyro_x_l = i2c_read_data_mak();
     2d4:	0e 94 c7 07 	call	0xf8e	; 0xf8e <i2c_read_data_mak>
     2d8:	80 93 f6 01 	sts	0x01F6, r24
	gyro_x_h = i2c_read_data_mak();
     2dc:	0e 94 c7 07 	call	0xf8e	; 0xf8e <i2c_read_data_mak>
     2e0:	80 93 f7 01 	sts	0x01F7, r24
	gyro_y_l = i2c_read_data_mak();
     2e4:	0e 94 c7 07 	call	0xf8e	; 0xf8e <i2c_read_data_mak>
     2e8:	80 93 f2 01 	sts	0x01F2, r24
	gyro_y_h = i2c_read_data_mak();
     2ec:	0e 94 c7 07 	call	0xf8e	; 0xf8e <i2c_read_data_mak>
     2f0:	80 93 f3 01 	sts	0x01F3, r24
	gyro_z_l = i2c_read_data_mak();
     2f4:	0e 94 c7 07 	call	0xf8e	; 0xf8e <i2c_read_data_mak>
     2f8:	80 93 ee 01 	sts	0x01EE, r24
	gyro_z_h = i2c_read_data_nmak();					// add the end we give no master ack to finish communication
     2fc:	0e 94 bf 07 	call	0xf7e	; 0xf7e <i2c_read_data_nmak>
     300:	80 93 ef 01 	sts	0x01EF, r24
	i2c_stop();
     304:	0e 94 cf 07 	call	0xf9e	; 0xf9e <i2c_stop>
	
	gyro_x = (gyro_x_h<<8) | (gyro_x_l);
     308:	60 91 f7 01 	lds	r22, 0x01F7
     30c:	77 27       	eor	r23, r23
     30e:	67 fd       	sbrc	r22, 7
     310:	70 95       	com	r23
     312:	76 2f       	mov	r23, r22
     314:	66 27       	eor	r22, r22
     316:	80 91 f6 01 	lds	r24, 0x01F6
     31a:	68 2b       	or	r22, r24
     31c:	70 93 f5 01 	sts	0x01F5, r23
     320:	60 93 f4 01 	sts	0x01F4, r22
	gyro_y = (gyro_y_h<<8) | (gyro_y_l);
     324:	e0 90 f3 01 	lds	r14, 0x01F3
     328:	ff 24       	eor	r15, r15
     32a:	e7 fc       	sbrc	r14, 7
     32c:	f0 94       	com	r15
     32e:	fe 2c       	mov	r15, r14
     330:	ee 24       	eor	r14, r14
     332:	80 91 f2 01 	lds	r24, 0x01F2
     336:	e8 2a       	or	r14, r24
     338:	f0 92 f1 01 	sts	0x01F1, r15
     33c:	e0 92 f0 01 	sts	0x01F0, r14
	gyro_z = (gyro_z_h<<8) | (gyro_z_l);
     340:	00 91 ef 01 	lds	r16, 0x01EF
     344:	11 27       	eor	r17, r17
     346:	07 fd       	sbrc	r16, 7
     348:	10 95       	com	r17
     34a:	10 2f       	mov	r17, r16
     34c:	00 27       	eor	r16, r16
     34e:	80 91 ee 01 	lds	r24, 0x01EE
     352:	08 2b       	or	r16, r24
     354:	10 93 ed 01 	sts	0x01ED, r17
     358:	00 93 ec 01 	sts	0x01EC, r16
	
	struct three_elements_obj turn_rates;
	turn_rates.p = gyro_x * 0.00875;						// the conversion comes from the default sensitivity value: FS = 250dps	-> 8.75mdps/digit
     35c:	88 27       	eor	r24, r24
     35e:	77 fd       	sbrc	r23, 7
     360:	80 95       	com	r24
     362:	98 2f       	mov	r25, r24
     364:	0e 94 ab 1d 	call	0x3b56	; 0x3b56 <__floatsisf>
     368:	29 e2       	ldi	r18, 0x29	; 41
     36a:	3c e5       	ldi	r19, 0x5C	; 92
     36c:	4f e0       	ldi	r20, 0x0F	; 15
     36e:	5c e3       	ldi	r21, 0x3C	; 60
     370:	0e 94 8b 1e 	call	0x3d16	; 0x3d16 <__mulsf3>
     374:	0e 94 78 1d 	call	0x3af0	; 0x3af0 <__fixsfsi>
     378:	4b 01       	movw	r8, r22
     37a:	5c 01       	movw	r10, r24
	turn_rates.q = gyro_y * 0.00875;
     37c:	b7 01       	movw	r22, r14
     37e:	88 27       	eor	r24, r24
     380:	77 fd       	sbrc	r23, 7
     382:	80 95       	com	r24
     384:	98 2f       	mov	r25, r24
     386:	0e 94 ab 1d 	call	0x3b56	; 0x3b56 <__floatsisf>
     38a:	29 e2       	ldi	r18, 0x29	; 41
     38c:	3c e5       	ldi	r19, 0x5C	; 92
     38e:	4f e0       	ldi	r20, 0x0F	; 15
     390:	5c e3       	ldi	r21, 0x3C	; 60
     392:	0e 94 8b 1e 	call	0x3d16	; 0x3d16 <__mulsf3>
     396:	0e 94 78 1d 	call	0x3af0	; 0x3af0 <__fixsfsi>
     39a:	6b 01       	movw	r12, r22
     39c:	7c 01       	movw	r14, r24
	turn_rates.r = gyro_z * 0.00875;						// see gyro datasheet page 10
     39e:	b8 01       	movw	r22, r16
     3a0:	88 27       	eor	r24, r24
     3a2:	77 fd       	sbrc	r23, 7
     3a4:	80 95       	com	r24
     3a6:	98 2f       	mov	r25, r24
     3a8:	0e 94 ab 1d 	call	0x3b56	; 0x3b56 <__floatsisf>
     3ac:	29 e2       	ldi	r18, 0x29	; 41
     3ae:	3c e5       	ldi	r19, 0x5C	; 92
     3b0:	4f e0       	ldi	r20, 0x0F	; 15
     3b2:	5c e3       	ldi	r21, 0x3C	; 60
     3b4:	0e 94 8b 1e 	call	0x3d16	; 0x3d16 <__mulsf3>
     3b8:	0e 94 78 1d 	call	0x3af0	; 0x3af0 <__fixsfsi>
	
	if(cal_complete == TRUE) 
     3bc:	20 91 e4 01 	lds	r18, 0x01E4
     3c0:	30 91 e5 01 	lds	r19, 0x01E5
     3c4:	21 30       	cpi	r18, 0x01	; 1
     3c6:	31 05       	cpc	r19, r1
     3c8:	21 f5       	brne	.+72     	; 0x412 <gyro_read+0x178>
	{
		turn_rates.p -= gyro_p_offset;
     3ca:	00 91 ea 01 	lds	r16, 0x01EA
     3ce:	10 91 eb 01 	lds	r17, 0x01EB
     3d2:	22 27       	eor	r18, r18
     3d4:	17 fd       	sbrc	r17, 7
     3d6:	20 95       	com	r18
     3d8:	32 2f       	mov	r19, r18
     3da:	80 1a       	sub	r8, r16
     3dc:	91 0a       	sbc	r9, r17
     3de:	a2 0a       	sbc	r10, r18
     3e0:	b3 0a       	sbc	r11, r19
		turn_rates.q -= gyro_q_offset;
     3e2:	00 91 e8 01 	lds	r16, 0x01E8
     3e6:	10 91 e9 01 	lds	r17, 0x01E9
     3ea:	22 27       	eor	r18, r18
     3ec:	17 fd       	sbrc	r17, 7
     3ee:	20 95       	com	r18
     3f0:	32 2f       	mov	r19, r18
     3f2:	c0 1a       	sub	r12, r16
     3f4:	d1 0a       	sbc	r13, r17
     3f6:	e2 0a       	sbc	r14, r18
     3f8:	f3 0a       	sbc	r15, r19
		turn_rates.r -= gyro_r_offset;
     3fa:	00 91 e6 01 	lds	r16, 0x01E6
     3fe:	10 91 e7 01 	lds	r17, 0x01E7
     402:	22 27       	eor	r18, r18
     404:	17 fd       	sbrc	r17, 7
     406:	20 95       	com	r18
     408:	32 2f       	mov	r19, r18
     40a:	60 1b       	sub	r22, r16
     40c:	71 0b       	sbc	r23, r17
     40e:	82 0b       	sbc	r24, r18
     410:	93 0b       	sbc	r25, r19
	}		
																											
	/*write_string("gyro_x reg:");write_var(gyro_x);write_string("  p: ");*///write_var(gyro_p);write_string(" deg/s \r\n ");
	return(turn_rates);
     412:	88 82       	st	Y, r8
     414:	99 82       	std	Y+1, r9	; 0x01
     416:	aa 82       	std	Y+2, r10	; 0x02
     418:	bb 82       	std	Y+3, r11	; 0x03
     41a:	cc 82       	std	Y+4, r12	; 0x04
     41c:	dd 82       	std	Y+5, r13	; 0x05
     41e:	ee 82       	std	Y+6, r14	; 0x06
     420:	ff 82       	std	Y+7, r15	; 0x07
     422:	68 87       	std	Y+8, r22	; 0x08
     424:	79 87       	std	Y+9, r23	; 0x09
     426:	8a 87       	std	Y+10, r24	; 0x0a
     428:	9b 87       	std	Y+11, r25	; 0x0b
}
     42a:	ce 01       	movw	r24, r28
     42c:	df 91       	pop	r29
     42e:	cf 91       	pop	r28
     430:	1f 91       	pop	r17
     432:	0f 91       	pop	r16
     434:	ff 90       	pop	r15
     436:	ef 90       	pop	r14
     438:	df 90       	pop	r13
     43a:	cf 90       	pop	r12
     43c:	bf 90       	pop	r11
     43e:	af 90       	pop	r10
     440:	9f 90       	pop	r9
     442:	8f 90       	pop	r8
     444:	08 95       	ret

00000446 <gyro_calibration>:

// Gyro calibration routine
void gyro_calibration(void)
{
     446:	1f 93       	push	r17
     448:	cf 93       	push	r28
     44a:	df 93       	push	r29
     44c:	cd b7       	in	r28, 0x3d	; 61
     44e:	de b7       	in	r29, 0x3e	; 62
     450:	2c 97       	sbiw	r28, 0x0c	; 12
     452:	0f b6       	in	r0, 0x3f	; 63
     454:	f8 94       	cli
     456:	de bf       	out	0x3e, r29	; 62
     458:	0f be       	out	0x3f, r0	; 63
     45a:	cd bf       	out	0x3d, r28	; 61
     45c:	12 e3       	ldi	r17, 0x32	; 50
	// defining the temporary stored turn rates
	struct three_elements_obj turn_rates_temp;
	while(cal_count < 50)
	{
		cal_count ++;
		turn_rates_temp = gyro_read();
     45e:	ce 01       	movw	r24, r28
     460:	01 96       	adiw	r24, 0x01	; 1
     462:	0e 94 4d 01 	call	0x29a	; 0x29a <gyro_read>
		gyro_p_offset += turn_rates_temp.p;
     466:	20 91 ea 01 	lds	r18, 0x01EA
     46a:	30 91 eb 01 	lds	r19, 0x01EB
     46e:	89 81       	ldd	r24, Y+1	; 0x01
     470:	9a 81       	ldd	r25, Y+2	; 0x02
     472:	82 0f       	add	r24, r18
     474:	93 1f       	adc	r25, r19
     476:	90 93 eb 01 	sts	0x01EB, r25
     47a:	80 93 ea 01 	sts	0x01EA, r24
		gyro_q_offset += turn_rates_temp.q;
     47e:	20 91 e8 01 	lds	r18, 0x01E8
     482:	30 91 e9 01 	lds	r19, 0x01E9
     486:	8d 81       	ldd	r24, Y+5	; 0x05
     488:	9e 81       	ldd	r25, Y+6	; 0x06
     48a:	82 0f       	add	r24, r18
     48c:	93 1f       	adc	r25, r19
     48e:	90 93 e9 01 	sts	0x01E9, r25
     492:	80 93 e8 01 	sts	0x01E8, r24
		gyro_r_offset += turn_rates_temp.r;
     496:	20 91 e6 01 	lds	r18, 0x01E6
     49a:	30 91 e7 01 	lds	r19, 0x01E7
     49e:	89 85       	ldd	r24, Y+9	; 0x09
     4a0:	9a 85       	ldd	r25, Y+10	; 0x0a
     4a2:	82 0f       	add	r24, r18
     4a4:	93 1f       	adc	r25, r19
     4a6:	90 93 e7 01 	sts	0x01E7, r25
     4aa:	80 93 e6 01 	sts	0x01E6, r24
     4ae:	11 50       	subi	r17, 0x01	; 1
void gyro_calibration(void)
{
	uint8_t cal_count = 0;
	// defining the temporary stored turn rates
	struct three_elements_obj turn_rates_temp;
	while(cal_count < 50)
     4b0:	b1 f6       	brne	.-84     	; 0x45e <gyro_calibration+0x18>
		turn_rates_temp = gyro_read();
		gyro_p_offset += turn_rates_temp.p;
		gyro_q_offset += turn_rates_temp.q;
		gyro_r_offset += turn_rates_temp.r;
	}
	gyro_p_offset /= cal_count;
     4b2:	80 91 ea 01 	lds	r24, 0x01EA
     4b6:	90 91 eb 01 	lds	r25, 0x01EB
     4ba:	22 e3       	ldi	r18, 0x32	; 50
     4bc:	30 e0       	ldi	r19, 0x00	; 0
     4be:	b9 01       	movw	r22, r18
     4c0:	0e 94 f1 1e 	call	0x3de2	; 0x3de2 <__divmodhi4>
     4c4:	70 93 eb 01 	sts	0x01EB, r23
     4c8:	60 93 ea 01 	sts	0x01EA, r22
	gyro_q_offset /= cal_count;
     4cc:	80 91 e8 01 	lds	r24, 0x01E8
     4d0:	90 91 e9 01 	lds	r25, 0x01E9
     4d4:	b9 01       	movw	r22, r18
     4d6:	0e 94 f1 1e 	call	0x3de2	; 0x3de2 <__divmodhi4>
     4da:	70 93 e9 01 	sts	0x01E9, r23
     4de:	60 93 e8 01 	sts	0x01E8, r22
	gyro_r_offset /= cal_count;
     4e2:	80 91 e6 01 	lds	r24, 0x01E6
     4e6:	90 91 e7 01 	lds	r25, 0x01E7
     4ea:	b9 01       	movw	r22, r18
     4ec:	0e 94 f1 1e 	call	0x3de2	; 0x3de2 <__divmodhi4>
     4f0:	70 93 e7 01 	sts	0x01E7, r23
     4f4:	60 93 e6 01 	sts	0x01E6, r22
	write_string_ln("Gyro Offset: ");
     4f8:	83 ea       	ldi	r24, 0xA3	; 163
     4fa:	90 e0       	ldi	r25, 0x00	; 0
     4fc:	0e 94 f1 1b 	call	0x37e2	; 0x37e2 <write_string_ln>
	write_string("p: ");write_var_ln(gyro_p_offset);
     500:	81 eb       	ldi	r24, 0xB1	; 177
     502:	90 e0       	ldi	r25, 0x00	; 0
     504:	0e 94 e1 1b 	call	0x37c2	; 0x37c2 <write_string>
     508:	60 91 ea 01 	lds	r22, 0x01EA
     50c:	70 91 eb 01 	lds	r23, 0x01EB
     510:	88 27       	eor	r24, r24
     512:	77 fd       	sbrc	r23, 7
     514:	80 95       	com	r24
     516:	98 2f       	mov	r25, r24
     518:	0e 94 23 1c 	call	0x3846	; 0x3846 <write_var_ln>
	write_string("q: ");write_var_ln(gyro_q_offset);
     51c:	85 eb       	ldi	r24, 0xB5	; 181
     51e:	90 e0       	ldi	r25, 0x00	; 0
     520:	0e 94 e1 1b 	call	0x37c2	; 0x37c2 <write_string>
     524:	60 91 e8 01 	lds	r22, 0x01E8
     528:	70 91 e9 01 	lds	r23, 0x01E9
     52c:	88 27       	eor	r24, r24
     52e:	77 fd       	sbrc	r23, 7
     530:	80 95       	com	r24
     532:	98 2f       	mov	r25, r24
     534:	0e 94 23 1c 	call	0x3846	; 0x3846 <write_var_ln>
	write_string("r: ");write_var_ln(gyro_r_offset);
     538:	89 eb       	ldi	r24, 0xB9	; 185
     53a:	90 e0       	ldi	r25, 0x00	; 0
     53c:	0e 94 e1 1b 	call	0x37c2	; 0x37c2 <write_string>
     540:	60 91 e6 01 	lds	r22, 0x01E6
     544:	70 91 e7 01 	lds	r23, 0x01E7
     548:	88 27       	eor	r24, r24
     54a:	77 fd       	sbrc	r23, 7
     54c:	80 95       	com	r24
     54e:	98 2f       	mov	r25, r24
     550:	0e 94 23 1c 	call	0x3846	; 0x3846 <write_var_ln>
	#else
		//round up by default
		__ticks_dc = (uint32_t)(ceil(fabs(__tmp)));
	#endif

	__builtin_avr_delay_cycles(__ticks_dc);
     554:	2f e9       	ldi	r18, 0x9F	; 159
     556:	86 e8       	ldi	r24, 0x86	; 134
     558:	91 e0       	ldi	r25, 0x01	; 1
     55a:	21 50       	subi	r18, 0x01	; 1
     55c:	80 40       	sbci	r24, 0x00	; 0
     55e:	90 40       	sbci	r25, 0x00	; 0
     560:	e1 f7       	brne	.-8      	; 0x55a <gyro_calibration+0x114>
     562:	00 c0       	rjmp	.+0      	; 0x564 <gyro_calibration+0x11e>
     564:	00 00       	nop
	_delay_ms(500);
	cal_complete = TRUE;
     566:	81 e0       	ldi	r24, 0x01	; 1
     568:	90 e0       	ldi	r25, 0x00	; 0
     56a:	90 93 e5 01 	sts	0x01E5, r25
     56e:	80 93 e4 01 	sts	0x01E4, r24
	write_string_ln("Gyro Cal Complete");
     572:	8d eb       	ldi	r24, 0xBD	; 189
     574:	90 e0       	ldi	r25, 0x00	; 0
     576:	0e 94 f1 1b 	call	0x37e2	; 0x37e2 <write_string_ln>
     57a:	2c 96       	adiw	r28, 0x0c	; 12
     57c:	0f b6       	in	r0, 0x3f	; 63
     57e:	f8 94       	cli
     580:	de bf       	out	0x3e, r29	; 62
     582:	0f be       	out	0x3f, r0	; 63
     584:	cd bf       	out	0x3d, r28	; 61
     586:	df 91       	pop	r29
     588:	cf 91       	pop	r28
     58a:	1f 91       	pop	r17
     58c:	08 95       	ret

0000058e <OLED_send_cmd>:
	{ 0x44,0x64,0x54,0x4C,0x44}, //   ( 90)  z - 0x007A Latin Small Letter Z
};

// writing a byte to the LCD
void OLED_send_cmd(char val)
{
     58e:	cf 93       	push	r28
     590:	c8 2f       	mov	r28, r24
	i2c_repeated_start_OLED();
     592:	0e 94 f1 07 	call	0xfe2	; 0xfe2 <i2c_repeated_start_OLED>
	i2c_write_val_to_reg_OLED(OLED_write_address,OLED_cmd_registry,val);
     596:	4c 2f       	mov	r20, r28
     598:	60 e8       	ldi	r22, 0x80	; 128
     59a:	88 e7       	ldi	r24, 0x78	; 120
     59c:	0e 94 db 07 	call	0xfb6	; 0xfb6 <i2c_write_val_to_reg_OLED>
	i2c_stop();
     5a0:	0e 94 cf 07 	call	0xf9e	; 0xf9e <i2c_stop>
}
     5a4:	cf 91       	pop	r28
     5a6:	08 95       	ret

000005a8 <OLED_send_byte>:

void OLED_send_byte(char val)
{
     5a8:	cf 93       	push	r28
     5aa:	c8 2f       	mov	r28, r24
	i2c_repeated_start_OLED();
     5ac:	0e 94 f1 07 	call	0xfe2	; 0xfe2 <i2c_repeated_start_OLED>
	i2c_write_val_to_reg_OLED(OLED_write_address,OLED_val_registry,val);
     5b0:	4c 2f       	mov	r20, r28
     5b2:	60 e4       	ldi	r22, 0x40	; 64
     5b4:	88 e7       	ldi	r24, 0x78	; 120
     5b6:	0e 94 db 07 	call	0xfb6	; 0xfb6 <i2c_write_val_to_reg_OLED>
	i2c_stop();
     5ba:	0e 94 cf 07 	call	0xf9e	; 0xf9e <i2c_stop>
}
     5be:	cf 91       	pop	r28
     5c0:	08 95       	ret

000005c2 <OLED_init>:
volatile void OLED_init()
{
	// as per LCD.cpp file from MiniWii
	// not clear about the start - repeated start options
	
	OLED_send_cmd(0xAE);	// display off
     5c2:	8e ea       	ldi	r24, 0xAE	; 174
     5c4:	0e 94 c7 02 	call	0x58e	; 0x58e <OLED_send_cmd>
	OLED_send_cmd(0xA4);	// all pixels off
     5c8:	84 ea       	ldi	r24, 0xA4	; 164
     5ca:	0e 94 c7 02 	call	0x58e	; 0x58e <OLED_send_cmd>
	OLED_send_cmd(0x20);	// set memory addressing mode (following message sets the value)
     5ce:	80 e2       	ldi	r24, 0x20	; 32
     5d0:	0e 94 c7 02 	call	0x58e	; 0x58e <OLED_send_cmd>
	OLED_send_cmd(0x02);	// set memory addressing mode to page addressing mode
     5d4:	82 e0       	ldi	r24, 0x02	; 2
     5d6:	0e 94 c7 02 	call	0x58e	; 0x58e <OLED_send_cmd>
	OLED_send_cmd(0xA1);	// column address 127 mapped to SEG0 (POR)
     5da:	81 ea       	ldi	r24, 0xA1	; 161
     5dc:	0e 94 c7 02 	call	0x58e	; 0x58e <OLED_send_cmd>
	OLED_send_cmd(0xC8);	// Scan from left to right
     5e0:	88 ec       	ldi	r24, 0xC8	; 200
     5e2:	0e 94 c7 02 	call	0x58e	; 0x58e <OLED_send_cmd>
	OLED_send_cmd(0xA6);	// Set WHITE chars on BLACK background (Normal Display)
     5e6:	86 ea       	ldi	r24, 0xA6	; 166
     5e8:	0e 94 c7 02 	call	0x58e	; 0x58e <OLED_send_cmd>
	OLED_send_cmd(0x81);	// Setup CONTRAST CONTROL, following byte is the contrast Value	(Contrast needs two commands after each other)
     5ec:	81 e8       	ldi	r24, 0x81	; 129
     5ee:	0e 94 c7 02 	call	0x58e	; 0x58e <OLED_send_cmd>
	OLED_send_cmd(0xAF);		// contrast value between 1 ( == dull) to 256 ( == bright)
     5f2:	8f ea       	ldi	r24, 0xAF	; 175
     5f4:	0e 94 c7 02 	call	0x58e	; 0x58e <OLED_send_cmd>
	OLED_send_cmd(0xD6);	// Zoom
     5f8:	86 ed       	ldi	r24, 0xD6	; 214
     5fa:	0e 94 c7 02 	call	0x58e	; 0x58e <OLED_send_cmd>
	OLED_send_cmd(0x01);	// Zoom on
     5fe:	81 e0       	ldi	r24, 0x01	; 1
     600:	0e 94 c7 02 	call	0x58e	; 0x58e <OLED_send_cmd>
     604:	2f e7       	ldi	r18, 0x7F	; 127
     606:	89 ea       	ldi	r24, 0xA9	; 169
     608:	93 e0       	ldi	r25, 0x03	; 3
     60a:	21 50       	subi	r18, 0x01	; 1
     60c:	80 40       	sbci	r24, 0x00	; 0
     60e:	90 40       	sbci	r25, 0x00	; 0
     610:	e1 f7       	brne	.-8      	; 0x60a <OLED_init+0x48>
     612:	00 c0       	rjmp	.+0      	; 0x614 <OLED_init+0x52>
     614:	00 00       	nop
	_delay_ms(100);
	OLED_send_cmd(0xAF);	// display on
     616:	8f ea       	ldi	r24, 0xAF	; 175
     618:	0e 94 c7 02 	call	0x58e	; 0x58e <OLED_send_cmd>
     61c:	08 95       	ret

0000061e <OLED_clear>:
}

volatile void OLED_clear()
{
     61e:	cf 93       	push	r28
     620:	df 93       	push	r29

	OLED_send_cmd(0xA6);	// Set WHITE chars on BLACK background (Normal Display)
     622:	86 ea       	ldi	r24, 0xA6	; 166
     624:	0e 94 c7 02 	call	0x58e	; 0x58e <OLED_send_cmd>
	OLED_send_cmd(0xAE);	// display off
     628:	8e ea       	ldi	r24, 0xAE	; 174
     62a:	0e 94 c7 02 	call	0x58e	; 0x58e <OLED_send_cmd>
	OLED_send_cmd(0x20);	// set memory addressing mode
     62e:	80 e2       	ldi	r24, 0x20	; 32
     630:	0e 94 c7 02 	call	0x58e	; 0x58e <OLED_send_cmd>
	OLED_send_cmd(0x00);	// set memory addressing mode to horizontal addressing mode
     634:	80 e0       	ldi	r24, 0x00	; 0
     636:	0e 94 c7 02 	call	0x58e	; 0x58e <OLED_send_cmd>
	OLED_send_cmd(0xB0);	// set page address to 0
     63a:	80 eb       	ldi	r24, 0xB0	; 176
     63c:	0e 94 c7 02 	call	0x58e	; 0x58e <OLED_send_cmd>
	OLED_send_cmd(0x40);	// Display start line register to 0
     640:	80 e4       	ldi	r24, 0x40	; 64
     642:	0e 94 c7 02 	call	0x58e	; 0x58e <OLED_send_cmd>
	OLED_send_cmd(0x00);		// Set low col address to 0
     646:	80 e0       	ldi	r24, 0x00	; 0
     648:	0e 94 c7 02 	call	0x58e	; 0x58e <OLED_send_cmd>
	OLED_send_cmd(0x10);	// Set high col address to 0
     64c:	80 e1       	ldi	r24, 0x10	; 16
     64e:	0e 94 c7 02 	call	0x58e	; 0x58e <OLED_send_cmd>
     652:	c0 e0       	ldi	r28, 0x00	; 0
     654:	d4 e0       	ldi	r29, 0x04	; 4
	for (uint16_t i=0;i<1024;i++)
	{
		OLED_send_byte(0x00);	// Filling every pixel with blank
     656:	80 e0       	ldi	r24, 0x00	; 0
     658:	0e 94 d4 02 	call	0x5a8	; 0x5a8 <OLED_send_byte>
     65c:	21 97       	sbiw	r28, 0x01	; 1
	OLED_send_cmd(0x00);	// set memory addressing mode to horizontal addressing mode
	OLED_send_cmd(0xB0);	// set page address to 0
	OLED_send_cmd(0x40);	// Display start line register to 0
	OLED_send_cmd(0x00);		// Set low col address to 0
	OLED_send_cmd(0x10);	// Set high col address to 0
	for (uint16_t i=0;i<1024;i++)
     65e:	d9 f7       	brne	.-10     	; 0x656 <OLED_clear+0x38>
	{
		OLED_send_byte(0x00);	// Filling every pixel with blank
	}
	OLED_send_cmd(0x81);	// Setup CONTRAST CONTROL, following byte is the contrast Value
     660:	81 e8       	ldi	r24, 0x81	; 129
     662:	0e 94 c7 02 	call	0x58e	; 0x58e <OLED_send_cmd>
	OLED_send_cmd(0xAF);	// contrast value between 1 ( == dull) to 256 ( == bright) 
     666:	8f ea       	ldi	r24, 0xAF	; 175
     668:	0e 94 c7 02 	call	0x58e	; 0x58e <OLED_send_cmd>
	OLED_send_cmd(0xAF);	// Turn Display On
     66c:	8f ea       	ldi	r24, 0xAF	; 175
     66e:	0e 94 c7 02 	call	0x58e	; 0x58e <OLED_send_cmd>
	OLED_send_cmd(0xB0);	// set page address to 0
     672:	80 eb       	ldi	r24, 0xB0	; 176
     674:	0e 94 c7 02 	call	0x58e	; 0x58e <OLED_send_cmd>
}
     678:	df 91       	pop	r29
     67a:	cf 91       	pop	r28
     67c:	08 95       	ret

0000067e <OLED_set_position>:
	}
	
}

volatile void OLED_set_position(uint8_t x, uint8_t y)
{
     67e:	cf 93       	push	r28
     680:	c8 2f       	mov	r28, r24
	// Lines only from 0 to 7
	//if (*line >= 8) *line = 7;
	//if (*line < 0) *line = 0;
	
	OLED_send_cmd(0xB0+(y));	// page address
     682:	86 2f       	mov	r24, r22
     684:	80 55       	subi	r24, 0x50	; 80
     686:	0e 94 c7 02 	call	0x58e	; 0x58e <OLED_send_cmd>
	OLED_send_cmd(0x00+(8*(x)&0x0F));	     //set low col address	(Taking the y value (times 8 to achieve 1 CHAR shift) and Masking it for the First four bits)
     68a:	8c 2f       	mov	r24, r28
     68c:	88 0f       	add	r24, r24
     68e:	88 0f       	add	r24, r24
     690:	88 0f       	add	r24, r24
     692:	88 70       	andi	r24, 0x08	; 8
     694:	0e 94 c7 02 	call	0x58e	; 0x58e <OLED_send_cmd>
	OLED_send_cmd(0x10+((8*(x)>>4)&0x0F));  //set high col address (Taking the y value (times 8 to achieve 1 CHAR shift), shifting it to position and Masking it for the First four bits)
     698:	8c 2f       	mov	r24, r28
     69a:	90 e0       	ldi	r25, 0x00	; 0
     69c:	96 95       	lsr	r25
     69e:	87 95       	ror	r24
     6a0:	8f 70       	andi	r24, 0x0F	; 15
     6a2:	99 27       	eor	r25, r25
     6a4:	80 5f       	subi	r24, 0xF0	; 240
     6a6:	0e 94 c7 02 	call	0x58e	; 0x58e <OLED_send_cmd>
}
     6aa:	cf 91       	pop	r28
     6ac:	08 95       	ret

000006ae <OLED_set_pos_0>:
}

volatile void OLED_set_pos_0()
{
		// to reset the pointer to the upper left corner
		OLED_send_cmd(0xB0);	// set page address to 0 => Reset the pointer on the screen
     6ae:	80 eb       	ldi	r24, 0xB0	; 176
     6b0:	0e 94 c7 02 	call	0x58e	; 0x58e <OLED_send_cmd>
		OLED_send_cmd(0x00);	// set col address low to 0
     6b4:	80 e0       	ldi	r24, 0x00	; 0
     6b6:	0e 94 c7 02 	call	0x58e	; 0x58e <OLED_send_cmd>
		OLED_send_cmd(0x10);	// set col address high to 0
     6ba:	80 e1       	ldi	r24, 0x10	; 16
     6bc:	0e 94 c7 02 	call	0x58e	; 0x58e <OLED_send_cmd>
     6c0:	08 95       	ret

000006c2 <OLED_send_char_A>:
	}
}

void OLED_send_char_A()
{
	OLED_send_byte(0x7E);
     6c2:	8e e7       	ldi	r24, 0x7E	; 126
     6c4:	0e 94 d4 02 	call	0x5a8	; 0x5a8 <OLED_send_byte>
	OLED_send_byte(0x11);
     6c8:	81 e1       	ldi	r24, 0x11	; 17
     6ca:	0e 94 d4 02 	call	0x5a8	; 0x5a8 <OLED_send_byte>
	OLED_send_byte(0x11);
     6ce:	81 e1       	ldi	r24, 0x11	; 17
     6d0:	0e 94 d4 02 	call	0x5a8	; 0x5a8 <OLED_send_byte>
	OLED_send_byte(0x11);
     6d4:	81 e1       	ldi	r24, 0x11	; 17
     6d6:	0e 94 d4 02 	call	0x5a8	; 0x5a8 <OLED_send_byte>
	OLED_send_byte(0x7E);
     6da:	8e e7       	ldi	r24, 0x7E	; 126
     6dc:	0e 94 d4 02 	call	0x5a8	; 0x5a8 <OLED_send_byte>
	OLED_send_byte(0);
     6e0:	80 e0       	ldi	r24, 0x00	; 0
     6e2:	0e 94 d4 02 	call	0x5a8	; 0x5a8 <OLED_send_byte>
	OLED_send_byte(0);
     6e6:	80 e0       	ldi	r24, 0x00	; 0
     6e8:	0e 94 d4 02 	call	0x5a8	; 0x5a8 <OLED_send_byte>
     6ec:	08 95       	ret

000006ee <OLED_send_char_D>:
		OLED_send_byte(0);
		OLED_send_byte(0);
}
void OLED_send_char_D()
{
	OLED_send_byte(0x7F);
     6ee:	8f e7       	ldi	r24, 0x7F	; 127
     6f0:	0e 94 d4 02 	call	0x5a8	; 0x5a8 <OLED_send_byte>
	OLED_send_byte(0x41);
     6f4:	81 e4       	ldi	r24, 0x41	; 65
     6f6:	0e 94 d4 02 	call	0x5a8	; 0x5a8 <OLED_send_byte>
	OLED_send_byte(0x41);
     6fa:	81 e4       	ldi	r24, 0x41	; 65
     6fc:	0e 94 d4 02 	call	0x5a8	; 0x5a8 <OLED_send_byte>
	OLED_send_byte(0x22);
     700:	82 e2       	ldi	r24, 0x22	; 34
     702:	0e 94 d4 02 	call	0x5a8	; 0x5a8 <OLED_send_byte>
	OLED_send_byte(0x1C); //   ( 36)  D - 0x0044 Latin Capital Letter D
     706:	8c e1       	ldi	r24, 0x1C	; 28
     708:	0e 94 d4 02 	call	0x5a8	; 0x5a8 <OLED_send_byte>
		OLED_send_byte(0);
     70c:	80 e0       	ldi	r24, 0x00	; 0
     70e:	0e 94 d4 02 	call	0x5a8	; 0x5a8 <OLED_send_byte>
		OLED_send_byte(0);
     712:	80 e0       	ldi	r24, 0x00	; 0
     714:	0e 94 d4 02 	call	0x5a8	; 0x5a8 <OLED_send_byte>
     718:	08 95       	ret

0000071a <OLED_send_char_E>:
}
void OLED_send_char_E()
{
	OLED_send_byte(0x7F);
     71a:	8f e7       	ldi	r24, 0x7F	; 127
     71c:	0e 94 d4 02 	call	0x5a8	; 0x5a8 <OLED_send_byte>
	OLED_send_byte(0x49);
     720:	89 e4       	ldi	r24, 0x49	; 73
     722:	0e 94 d4 02 	call	0x5a8	; 0x5a8 <OLED_send_byte>
	OLED_send_byte(0x49);
     726:	89 e4       	ldi	r24, 0x49	; 73
     728:	0e 94 d4 02 	call	0x5a8	; 0x5a8 <OLED_send_byte>
	OLED_send_byte(0x49);
     72c:	89 e4       	ldi	r24, 0x49	; 73
     72e:	0e 94 d4 02 	call	0x5a8	; 0x5a8 <OLED_send_byte>
	OLED_send_byte(0x41); //   ( 37)  E - 0x0045 Latin Capital Letter E
     732:	81 e4       	ldi	r24, 0x41	; 65
     734:	0e 94 d4 02 	call	0x5a8	; 0x5a8 <OLED_send_byte>
		OLED_send_byte(0);
     738:	80 e0       	ldi	r24, 0x00	; 0
     73a:	0e 94 d4 02 	call	0x5a8	; 0x5a8 <OLED_send_byte>
		OLED_send_byte(0);
     73e:	80 e0       	ldi	r24, 0x00	; 0
     740:	0e 94 d4 02 	call	0x5a8	; 0x5a8 <OLED_send_byte>
     744:	08 95       	ret

00000746 <OLED_send_char_F>:
}
void OLED_send_char_F()
{
	OLED_send_byte(0x7F);
     746:	8f e7       	ldi	r24, 0x7F	; 127
     748:	0e 94 d4 02 	call	0x5a8	; 0x5a8 <OLED_send_byte>
	OLED_send_byte(0x09);
     74c:	89 e0       	ldi	r24, 0x09	; 9
     74e:	0e 94 d4 02 	call	0x5a8	; 0x5a8 <OLED_send_byte>
	OLED_send_byte(0x09);
     752:	89 e0       	ldi	r24, 0x09	; 9
     754:	0e 94 d4 02 	call	0x5a8	; 0x5a8 <OLED_send_byte>
	OLED_send_byte(0x09);
     758:	89 e0       	ldi	r24, 0x09	; 9
     75a:	0e 94 d4 02 	call	0x5a8	; 0x5a8 <OLED_send_byte>
	OLED_send_byte(0x01); //   ( 38)  F - 0x0046 Latin Capital Letter F
     75e:	81 e0       	ldi	r24, 0x01	; 1
     760:	0e 94 d4 02 	call	0x5a8	; 0x5a8 <OLED_send_byte>
		OLED_send_byte(0);
     764:	80 e0       	ldi	r24, 0x00	; 0
     766:	0e 94 d4 02 	call	0x5a8	; 0x5a8 <OLED_send_byte>
		OLED_send_byte(0);
     76a:	80 e0       	ldi	r24, 0x00	; 0
     76c:	0e 94 d4 02 	call	0x5a8	; 0x5a8 <OLED_send_byte>
     770:	08 95       	ret

00000772 <OLED_send_char_G>:
}
void OLED_send_char_G()
{
	OLED_send_byte(0x3E);
     772:	8e e3       	ldi	r24, 0x3E	; 62
     774:	0e 94 d4 02 	call	0x5a8	; 0x5a8 <OLED_send_byte>
	OLED_send_byte(0x41);
     778:	81 e4       	ldi	r24, 0x41	; 65
     77a:	0e 94 d4 02 	call	0x5a8	; 0x5a8 <OLED_send_byte>
	OLED_send_byte(0x49);
     77e:	89 e4       	ldi	r24, 0x49	; 73
     780:	0e 94 d4 02 	call	0x5a8	; 0x5a8 <OLED_send_byte>
	OLED_send_byte(0x49);
     784:	89 e4       	ldi	r24, 0x49	; 73
     786:	0e 94 d4 02 	call	0x5a8	; 0x5a8 <OLED_send_byte>
	OLED_send_byte(0x7A); //   ( 39)  G - 0x0047 Latin Capital Letter G
     78a:	8a e7       	ldi	r24, 0x7A	; 122
     78c:	0e 94 d4 02 	call	0x5a8	; 0x5a8 <OLED_send_byte>
		OLED_send_byte(0);
     790:	80 e0       	ldi	r24, 0x00	; 0
     792:	0e 94 d4 02 	call	0x5a8	; 0x5a8 <OLED_send_byte>
		OLED_send_byte(0);
     796:	80 e0       	ldi	r24, 0x00	; 0
     798:	0e 94 d4 02 	call	0x5a8	; 0x5a8 <OLED_send_byte>
     79c:	08 95       	ret

0000079e <OLED_send_char_H>:
}
void OLED_send_char_H()
{
	OLED_send_byte(0x7F);
     79e:	8f e7       	ldi	r24, 0x7F	; 127
     7a0:	0e 94 d4 02 	call	0x5a8	; 0x5a8 <OLED_send_byte>
	OLED_send_byte(0x08);
     7a4:	88 e0       	ldi	r24, 0x08	; 8
     7a6:	0e 94 d4 02 	call	0x5a8	; 0x5a8 <OLED_send_byte>
	OLED_send_byte(0x08);
     7aa:	88 e0       	ldi	r24, 0x08	; 8
     7ac:	0e 94 d4 02 	call	0x5a8	; 0x5a8 <OLED_send_byte>
	OLED_send_byte(0x08);
     7b0:	88 e0       	ldi	r24, 0x08	; 8
     7b2:	0e 94 d4 02 	call	0x5a8	; 0x5a8 <OLED_send_byte>
	OLED_send_byte(0x7F); //   ( 40)  H - 0x0048 Latin Capital Letter H
     7b6:	8f e7       	ldi	r24, 0x7F	; 127
     7b8:	0e 94 d4 02 	call	0x5a8	; 0x5a8 <OLED_send_byte>
		OLED_send_byte(0);
     7bc:	80 e0       	ldi	r24, 0x00	; 0
     7be:	0e 94 d4 02 	call	0x5a8	; 0x5a8 <OLED_send_byte>
		OLED_send_byte(0);
     7c2:	80 e0       	ldi	r24, 0x00	; 0
     7c4:	0e 94 d4 02 	call	0x5a8	; 0x5a8 <OLED_send_byte>
     7c8:	08 95       	ret

000007ca <OLED_send_char_I>:
}
void OLED_send_char_I()
{
	OLED_send_byte(0x00);
     7ca:	80 e0       	ldi	r24, 0x00	; 0
     7cc:	0e 94 d4 02 	call	0x5a8	; 0x5a8 <OLED_send_byte>
	OLED_send_byte(0x41);
     7d0:	81 e4       	ldi	r24, 0x41	; 65
     7d2:	0e 94 d4 02 	call	0x5a8	; 0x5a8 <OLED_send_byte>
	OLED_send_byte(0x7F);
     7d6:	8f e7       	ldi	r24, 0x7F	; 127
     7d8:	0e 94 d4 02 	call	0x5a8	; 0x5a8 <OLED_send_byte>
	OLED_send_byte(0x41);
     7dc:	81 e4       	ldi	r24, 0x41	; 65
     7de:	0e 94 d4 02 	call	0x5a8	; 0x5a8 <OLED_send_byte>
	OLED_send_byte(0x00); //   ( 41)  I - 0x0049 Latin Capital Letter I
     7e2:	80 e0       	ldi	r24, 0x00	; 0
     7e4:	0e 94 d4 02 	call	0x5a8	; 0x5a8 <OLED_send_byte>
		OLED_send_byte(0);
     7e8:	80 e0       	ldi	r24, 0x00	; 0
     7ea:	0e 94 d4 02 	call	0x5a8	; 0x5a8 <OLED_send_byte>
		OLED_send_byte(0);
     7ee:	80 e0       	ldi	r24, 0x00	; 0
     7f0:	0e 94 d4 02 	call	0x5a8	; 0x5a8 <OLED_send_byte>
     7f4:	08 95       	ret

000007f6 <OLED_send_char_L>:
		OLED_send_byte(0);
		OLED_send_byte(0);
}
void OLED_send_char_L()
{
	OLED_send_byte(0x7F);
     7f6:	8f e7       	ldi	r24, 0x7F	; 127
     7f8:	0e 94 d4 02 	call	0x5a8	; 0x5a8 <OLED_send_byte>
	OLED_send_byte(0x40);
     7fc:	80 e4       	ldi	r24, 0x40	; 64
     7fe:	0e 94 d4 02 	call	0x5a8	; 0x5a8 <OLED_send_byte>
	OLED_send_byte(0x40);
     802:	80 e4       	ldi	r24, 0x40	; 64
     804:	0e 94 d4 02 	call	0x5a8	; 0x5a8 <OLED_send_byte>
	OLED_send_byte(0x40);
     808:	80 e4       	ldi	r24, 0x40	; 64
     80a:	0e 94 d4 02 	call	0x5a8	; 0x5a8 <OLED_send_byte>
	OLED_send_byte(0x40); //   ( 44)  L - 0x004C Latin Capital Letter L
     80e:	80 e4       	ldi	r24, 0x40	; 64
     810:	0e 94 d4 02 	call	0x5a8	; 0x5a8 <OLED_send_byte>
		OLED_send_byte(0);
     814:	80 e0       	ldi	r24, 0x00	; 0
     816:	0e 94 d4 02 	call	0x5a8	; 0x5a8 <OLED_send_byte>
		OLED_send_byte(0);
     81a:	80 e0       	ldi	r24, 0x00	; 0
     81c:	0e 94 d4 02 	call	0x5a8	; 0x5a8 <OLED_send_byte>
     820:	08 95       	ret

00000822 <OLED_send_char_M>:
}
void OLED_send_char_M()
{
	OLED_send_byte(0x7F);
     822:	8f e7       	ldi	r24, 0x7F	; 127
     824:	0e 94 d4 02 	call	0x5a8	; 0x5a8 <OLED_send_byte>
	OLED_send_byte(0x02);
     828:	82 e0       	ldi	r24, 0x02	; 2
     82a:	0e 94 d4 02 	call	0x5a8	; 0x5a8 <OLED_send_byte>
	OLED_send_byte(0x0C);
     82e:	8c e0       	ldi	r24, 0x0C	; 12
     830:	0e 94 d4 02 	call	0x5a8	; 0x5a8 <OLED_send_byte>
	OLED_send_byte(0x02);
     834:	82 e0       	ldi	r24, 0x02	; 2
     836:	0e 94 d4 02 	call	0x5a8	; 0x5a8 <OLED_send_byte>
	OLED_send_byte(0x7F); //   ( 45)  M - 0x004D Latin Capital Letter M
     83a:	8f e7       	ldi	r24, 0x7F	; 127
     83c:	0e 94 d4 02 	call	0x5a8	; 0x5a8 <OLED_send_byte>
		OLED_send_byte(0);
     840:	80 e0       	ldi	r24, 0x00	; 0
     842:	0e 94 d4 02 	call	0x5a8	; 0x5a8 <OLED_send_byte>
		OLED_send_byte(0);
     846:	80 e0       	ldi	r24, 0x00	; 0
     848:	0e 94 d4 02 	call	0x5a8	; 0x5a8 <OLED_send_byte>
     84c:	08 95       	ret

0000084e <OLED_send_char_N>:
}
void OLED_send_char_N()
{
	OLED_send_byte(0x7F);
     84e:	8f e7       	ldi	r24, 0x7F	; 127
     850:	0e 94 d4 02 	call	0x5a8	; 0x5a8 <OLED_send_byte>
	OLED_send_byte(0x04);
     854:	84 e0       	ldi	r24, 0x04	; 4
     856:	0e 94 d4 02 	call	0x5a8	; 0x5a8 <OLED_send_byte>
	OLED_send_byte(0x08);
     85a:	88 e0       	ldi	r24, 0x08	; 8
     85c:	0e 94 d4 02 	call	0x5a8	; 0x5a8 <OLED_send_byte>
	OLED_send_byte(0x10);
     860:	80 e1       	ldi	r24, 0x10	; 16
     862:	0e 94 d4 02 	call	0x5a8	; 0x5a8 <OLED_send_byte>
	OLED_send_byte(0x7F); //   ( 46)  N - 0x004E Latin Capital Letter N
     866:	8f e7       	ldi	r24, 0x7F	; 127
     868:	0e 94 d4 02 	call	0x5a8	; 0x5a8 <OLED_send_byte>
		OLED_send_byte(0);
     86c:	80 e0       	ldi	r24, 0x00	; 0
     86e:	0e 94 d4 02 	call	0x5a8	; 0x5a8 <OLED_send_byte>
		OLED_send_byte(0);
     872:	80 e0       	ldi	r24, 0x00	; 0
     874:	0e 94 d4 02 	call	0x5a8	; 0x5a8 <OLED_send_byte>
     878:	08 95       	ret

0000087a <OLED_send_char_O>:
}
void OLED_send_char_O()
{
	OLED_send_byte(0x3E);
     87a:	8e e3       	ldi	r24, 0x3E	; 62
     87c:	0e 94 d4 02 	call	0x5a8	; 0x5a8 <OLED_send_byte>
	OLED_send_byte(0x41);
     880:	81 e4       	ldi	r24, 0x41	; 65
     882:	0e 94 d4 02 	call	0x5a8	; 0x5a8 <OLED_send_byte>
	OLED_send_byte(0x41);
     886:	81 e4       	ldi	r24, 0x41	; 65
     888:	0e 94 d4 02 	call	0x5a8	; 0x5a8 <OLED_send_byte>
	OLED_send_byte(0x41);
     88c:	81 e4       	ldi	r24, 0x41	; 65
     88e:	0e 94 d4 02 	call	0x5a8	; 0x5a8 <OLED_send_byte>
	OLED_send_byte(0x3E); //   ( 47)  O - 0x004F Latin Capital Letter O
     892:	8e e3       	ldi	r24, 0x3E	; 62
     894:	0e 94 d4 02 	call	0x5a8	; 0x5a8 <OLED_send_byte>
		OLED_send_byte(0);
     898:	80 e0       	ldi	r24, 0x00	; 0
     89a:	0e 94 d4 02 	call	0x5a8	; 0x5a8 <OLED_send_byte>
		OLED_send_byte(0);
     89e:	80 e0       	ldi	r24, 0x00	; 0
     8a0:	0e 94 d4 02 	call	0x5a8	; 0x5a8 <OLED_send_byte>
     8a4:	08 95       	ret

000008a6 <OLED_send_char_P>:
}
void OLED_send_char_P()
{
	OLED_send_byte(0x7F);
     8a6:	8f e7       	ldi	r24, 0x7F	; 127
     8a8:	0e 94 d4 02 	call	0x5a8	; 0x5a8 <OLED_send_byte>
	OLED_send_byte(0x09);
     8ac:	89 e0       	ldi	r24, 0x09	; 9
     8ae:	0e 94 d4 02 	call	0x5a8	; 0x5a8 <OLED_send_byte>
	OLED_send_byte(0x09);
     8b2:	89 e0       	ldi	r24, 0x09	; 9
     8b4:	0e 94 d4 02 	call	0x5a8	; 0x5a8 <OLED_send_byte>
	OLED_send_byte(0x09);
     8b8:	89 e0       	ldi	r24, 0x09	; 9
     8ba:	0e 94 d4 02 	call	0x5a8	; 0x5a8 <OLED_send_byte>
	OLED_send_byte(0x06); //   ( 48)  P - OLED_send_byte(0x0050 Latin Capital Letter P
     8be:	86 e0       	ldi	r24, 0x06	; 6
     8c0:	0e 94 d4 02 	call	0x5a8	; 0x5a8 <OLED_send_byte>
		OLED_send_byte(0);
     8c4:	80 e0       	ldi	r24, 0x00	; 0
     8c6:	0e 94 d4 02 	call	0x5a8	; 0x5a8 <OLED_send_byte>
		OLED_send_byte(0);
     8ca:	80 e0       	ldi	r24, 0x00	; 0
     8cc:	0e 94 d4 02 	call	0x5a8	; 0x5a8 <OLED_send_byte>
     8d0:	08 95       	ret

000008d2 <OLED_send_char_R>:
		OLED_send_byte(0);
		OLED_send_byte(0);
}
void OLED_send_char_R()
{
	OLED_send_byte(0x7F);
     8d2:	8f e7       	ldi	r24, 0x7F	; 127
     8d4:	0e 94 d4 02 	call	0x5a8	; 0x5a8 <OLED_send_byte>
	OLED_send_byte(0x09);
     8d8:	89 e0       	ldi	r24, 0x09	; 9
     8da:	0e 94 d4 02 	call	0x5a8	; 0x5a8 <OLED_send_byte>
	OLED_send_byte(0x19);
     8de:	89 e1       	ldi	r24, 0x19	; 25
     8e0:	0e 94 d4 02 	call	0x5a8	; 0x5a8 <OLED_send_byte>
	OLED_send_byte(0x29);
     8e4:	89 e2       	ldi	r24, 0x29	; 41
     8e6:	0e 94 d4 02 	call	0x5a8	; 0x5a8 <OLED_send_byte>
	OLED_send_byte(0x46); //   ( 50)  R - 0x0052 Latin Capital Letter R
     8ea:	86 e4       	ldi	r24, 0x46	; 70
     8ec:	0e 94 d4 02 	call	0x5a8	; 0x5a8 <OLED_send_byte>
		OLED_send_byte(0);
     8f0:	80 e0       	ldi	r24, 0x00	; 0
     8f2:	0e 94 d4 02 	call	0x5a8	; 0x5a8 <OLED_send_byte>
		OLED_send_byte(0);
     8f6:	80 e0       	ldi	r24, 0x00	; 0
     8f8:	0e 94 d4 02 	call	0x5a8	; 0x5a8 <OLED_send_byte>
     8fc:	08 95       	ret

000008fe <OLED_send_char_S>:
}
void OLED_send_char_S()
{
	OLED_send_byte(0x46);
     8fe:	86 e4       	ldi	r24, 0x46	; 70
     900:	0e 94 d4 02 	call	0x5a8	; 0x5a8 <OLED_send_byte>
	OLED_send_byte(0x49);
     904:	89 e4       	ldi	r24, 0x49	; 73
     906:	0e 94 d4 02 	call	0x5a8	; 0x5a8 <OLED_send_byte>
	OLED_send_byte(0x49);
     90a:	89 e4       	ldi	r24, 0x49	; 73
     90c:	0e 94 d4 02 	call	0x5a8	; 0x5a8 <OLED_send_byte>
	OLED_send_byte(0x49);
     910:	89 e4       	ldi	r24, 0x49	; 73
     912:	0e 94 d4 02 	call	0x5a8	; 0x5a8 <OLED_send_byte>
	OLED_send_byte(0x31); //   ( 51)  S - 0x0053 Latin Capital Letter S
     916:	81 e3       	ldi	r24, 0x31	; 49
     918:	0e 94 d4 02 	call	0x5a8	; 0x5a8 <OLED_send_byte>
		OLED_send_byte(0);
     91c:	80 e0       	ldi	r24, 0x00	; 0
     91e:	0e 94 d4 02 	call	0x5a8	; 0x5a8 <OLED_send_byte>
		OLED_send_byte(0);
     922:	80 e0       	ldi	r24, 0x00	; 0
     924:	0e 94 d4 02 	call	0x5a8	; 0x5a8 <OLED_send_byte>
     928:	08 95       	ret

0000092a <OLED_send_char_T>:
}
void OLED_send_char_T()
{
	OLED_send_byte(0x01);
     92a:	81 e0       	ldi	r24, 0x01	; 1
     92c:	0e 94 d4 02 	call	0x5a8	; 0x5a8 <OLED_send_byte>
	OLED_send_byte(0x01);
     930:	81 e0       	ldi	r24, 0x01	; 1
     932:	0e 94 d4 02 	call	0x5a8	; 0x5a8 <OLED_send_byte>
	OLED_send_byte(0x7F);
     936:	8f e7       	ldi	r24, 0x7F	; 127
     938:	0e 94 d4 02 	call	0x5a8	; 0x5a8 <OLED_send_byte>
	OLED_send_byte(0x01);
     93c:	81 e0       	ldi	r24, 0x01	; 1
     93e:	0e 94 d4 02 	call	0x5a8	; 0x5a8 <OLED_send_byte>
	OLED_send_byte(0x01); //   ( 52)  T - 0x0054 Latin Capital Letter T
     942:	81 e0       	ldi	r24, 0x01	; 1
     944:	0e 94 d4 02 	call	0x5a8	; 0x5a8 <OLED_send_byte>
		OLED_send_byte(0);
     948:	80 e0       	ldi	r24, 0x00	; 0
     94a:	0e 94 d4 02 	call	0x5a8	; 0x5a8 <OLED_send_byte>
		OLED_send_byte(0);
     94e:	80 e0       	ldi	r24, 0x00	; 0
     950:	0e 94 d4 02 	call	0x5a8	; 0x5a8 <OLED_send_byte>
     954:	08 95       	ret

00000956 <OLED_page>:
		OLED_send_cmd(0x10);	// set col address high to 0
}

void OLED_page(uint8_t page)
{
	switch(page)
     956:	81 11       	cpse	r24, r1
     958:	30 c0       	rjmp	.+96     	; 0x9ba <OLED_page+0x64>
	{
		case 0:
		// write "GPS" on first line
		//G is 71 as per ASCII Table
		OLED_send_char_L();
     95a:	0e 94 fb 03 	call	0x7f6	; 0x7f6 <OLED_send_char_L>
		OLED_send_char_I();
     95e:	0e 94 e5 03 	call	0x7ca	; 0x7ca <OLED_send_char_I>
		OLED_send_char_G();
     962:	0e 94 b9 03 	call	0x772	; 0x772 <OLED_send_char_G>
		OLED_send_char_H();
     966:	0e 94 cf 03 	call	0x79e	; 0x79e <OLED_send_char_H>
		OLED_send_char_T();
     96a:	0e 94 95 04 	call	0x92a	; 0x92a <OLED_send_char_T>

		// write "HOME" on second line
		OLED_set_position(0,1);
     96e:	61 e0       	ldi	r22, 0x01	; 1
     970:	80 e0       	ldi	r24, 0x00	; 0
     972:	0e 94 3f 03 	call	0x67e	; 0x67e <OLED_set_position>
		OLED_send_char_H();
     976:	0e 94 cf 03 	call	0x79e	; 0x79e <OLED_send_char_H>
		OLED_send_char_O();
     97a:	0e 94 3d 04 	call	0x87a	; 0x87a <OLED_send_char_O>
		OLED_send_char_M();
     97e:	0e 94 11 04 	call	0x822	; 0x822 <OLED_send_char_M>
		OLED_send_char_E();
     982:	0e 94 8d 03 	call	0x71a	; 0x71a <OLED_send_char_E>

		// write "LON" on second line
		OLED_set_position(0,2);
     986:	62 e0       	ldi	r22, 0x02	; 2
     988:	80 e0       	ldi	r24, 0x00	; 0
     98a:	0e 94 3f 03 	call	0x67e	; 0x67e <OLED_set_position>
		OLED_send_char_M();
     98e:	0e 94 11 04 	call	0x822	; 0x822 <OLED_send_char_M>
		OLED_send_char_O();
     992:	0e 94 3d 04 	call	0x87a	; 0x87a <OLED_send_char_O>
		OLED_send_char_D();
     996:	0e 94 77 03 	call	0x6ee	; 0x6ee <OLED_send_char_D>
		OLED_send_char_E();
     99a:	0e 94 8d 03 	call	0x71a	; 0x71a <OLED_send_char_E>
		
		// write "HEAD" on second line
		OLED_set_position(0,3);
     99e:	63 e0       	ldi	r22, 0x03	; 3
     9a0:	80 e0       	ldi	r24, 0x00	; 0
     9a2:	0e 94 3f 03 	call	0x67e	; 0x67e <OLED_set_position>
		OLED_send_char_H();
     9a6:	0e 94 cf 03 	call	0x79e	; 0x79e <OLED_send_char_H>
		OLED_send_char_E();
     9aa:	0e 94 8d 03 	call	0x71a	; 0x71a <OLED_send_char_E>
		OLED_send_char_A();
     9ae:	0e 94 61 03 	call	0x6c2	; 0x6c2 <OLED_send_char_A>
		OLED_send_char_D();
     9b2:	0e 94 77 03 	call	0x6ee	; 0x6ee <OLED_send_char_D>
		
		OLED_set_pos_0();
     9b6:	0e 94 57 03 	call	0x6ae	; 0x6ae <OLED_set_pos_0>
     9ba:	08 95       	ret

000009bc <OLED_send_char_SP>:
		OLED_send_byte(0);
}

void OLED_send_char_SP()
{
	OLED_send_byte(0x00);
     9bc:	80 e0       	ldi	r24, 0x00	; 0
     9be:	0e 94 d4 02 	call	0x5a8	; 0x5a8 <OLED_send_byte>
	OLED_send_byte(0x00);
     9c2:	80 e0       	ldi	r24, 0x00	; 0
     9c4:	0e 94 d4 02 	call	0x5a8	; 0x5a8 <OLED_send_byte>
	OLED_send_byte(0x00);
     9c8:	80 e0       	ldi	r24, 0x00	; 0
     9ca:	0e 94 d4 02 	call	0x5a8	; 0x5a8 <OLED_send_byte>
	OLED_send_byte(0x00);
     9ce:	80 e0       	ldi	r24, 0x00	; 0
     9d0:	0e 94 d4 02 	call	0x5a8	; 0x5a8 <OLED_send_byte>
	OLED_send_byte(0x00); //   SPACE
     9d4:	80 e0       	ldi	r24, 0x00	; 0
     9d6:	0e 94 d4 02 	call	0x5a8	; 0x5a8 <OLED_send_byte>
	OLED_send_byte(0);
     9da:	80 e0       	ldi	r24, 0x00	; 0
     9dc:	0e 94 d4 02 	call	0x5a8	; 0x5a8 <OLED_send_byte>
	OLED_send_byte(0);
     9e0:	80 e0       	ldi	r24, 0x00	; 0
     9e2:	0e 94 d4 02 	call	0x5a8	; 0x5a8 <OLED_send_byte>
     9e6:	08 95       	ret

000009e8 <OLED_battery_100>:
		OLED_send_byte(0);
		OLED_send_byte(0);
}

void OLED_battery_100(uint8_t hor,uint8_t ver)
{
     9e8:	cf 93       	push	r28
     9ea:	df 93       	push	r29
     9ec:	c8 2f       	mov	r28, r24
     9ee:	d6 2f       	mov	r29, r22
		OLED_set_pos_0();
     9f0:	0e 94 57 03 	call	0x6ae	; 0x6ae <OLED_set_pos_0>
		OLED_set_position(hor,ver);
     9f4:	6d 2f       	mov	r22, r29
     9f6:	8c 2f       	mov	r24, r28
     9f8:	0e 94 3f 03 	call	0x67e	; 0x67e <OLED_set_position>
		
		OLED_send_byte(0xF8);
     9fc:	88 ef       	ldi	r24, 0xF8	; 248
     9fe:	0e 94 d4 02 	call	0x5a8	; 0x5a8 <OLED_send_byte>
		OLED_send_byte(0xF8);
     a02:	88 ef       	ldi	r24, 0xF8	; 248
     a04:	0e 94 d4 02 	call	0x5a8	; 0x5a8 <OLED_send_byte>
		OLED_send_byte(0x08);
     a08:	88 e0       	ldi	r24, 0x08	; 8
     a0a:	0e 94 d4 02 	call	0x5a8	; 0x5a8 <OLED_send_byte>
		OLED_send_byte(0xF8);
     a0e:	88 ef       	ldi	r24, 0xF8	; 248
     a10:	0e 94 d4 02 	call	0x5a8	; 0x5a8 <OLED_send_byte>
		OLED_send_byte(0xFC);
     a14:	8c ef       	ldi	r24, 0xFC	; 252
     a16:	0e 94 d4 02 	call	0x5a8	; 0x5a8 <OLED_send_byte>
		
		OLED_send_byte(0xF4);
     a1a:	84 ef       	ldi	r24, 0xF4	; 244
     a1c:	0e 94 d4 02 	call	0x5a8	; 0x5a8 <OLED_send_byte>
		OLED_send_byte(0xF4);
     a20:	84 ef       	ldi	r24, 0xF4	; 244
     a22:	0e 94 d4 02 	call	0x5a8	; 0x5a8 <OLED_send_byte>
		OLED_send_byte(0xF4);
     a26:	84 ef       	ldi	r24, 0xF4	; 244
     a28:	0e 94 d4 02 	call	0x5a8	; 0x5a8 <OLED_send_byte>
		OLED_send_byte(0xF4);
     a2c:	84 ef       	ldi	r24, 0xF4	; 244
     a2e:	0e 94 d4 02 	call	0x5a8	; 0x5a8 <OLED_send_byte>
		OLED_send_byte(0xF4);
     a32:	84 ef       	ldi	r24, 0xF4	; 244
     a34:	0e 94 d4 02 	call	0x5a8	; 0x5a8 <OLED_send_byte>
		
		OLED_send_byte(0xFC);
     a38:	8c ef       	ldi	r24, 0xFC	; 252
     a3a:	0e 94 d4 02 	call	0x5a8	; 0x5a8 <OLED_send_byte>
		OLED_send_byte(0xF8);
     a3e:	88 ef       	ldi	r24, 0xF8	; 248
     a40:	0e 94 d4 02 	call	0x5a8	; 0x5a8 <OLED_send_byte>
		OLED_send_byte(0x08);
     a44:	88 e0       	ldi	r24, 0x08	; 8
     a46:	0e 94 d4 02 	call	0x5a8	; 0x5a8 <OLED_send_byte>
		OLED_send_byte(0xF8);
     a4a:	88 ef       	ldi	r24, 0xF8	; 248
     a4c:	0e 94 d4 02 	call	0x5a8	; 0x5a8 <OLED_send_byte>
		OLED_send_byte(0xF8);
     a50:	88 ef       	ldi	r24, 0xF8	; 248
     a52:	0e 94 d4 02 	call	0x5a8	; 0x5a8 <OLED_send_byte>
		
		OLED_set_position(hor,ver+1);
     a56:	6d 2f       	mov	r22, r29
     a58:	6f 5f       	subi	r22, 0xFF	; 255
     a5a:	8c 2f       	mov	r24, r28
     a5c:	0e 94 3f 03 	call	0x67e	; 0x67e <OLED_set_position>
		
		OLED_send_byte(0xFF);
     a60:	8f ef       	ldi	r24, 0xFF	; 255
     a62:	0e 94 d4 02 	call	0x5a8	; 0x5a8 <OLED_send_byte>
		OLED_send_byte(0xFF);
     a66:	8f ef       	ldi	r24, 0xFF	; 255
     a68:	0e 94 d4 02 	call	0x5a8	; 0x5a8 <OLED_send_byte>
		OLED_send_byte(0x80);
     a6c:	80 e8       	ldi	r24, 0x80	; 128
     a6e:	0e 94 d4 02 	call	0x5a8	; 0x5a8 <OLED_send_byte>
		OLED_send_byte(0xFF);	//80
     a72:	8f ef       	ldi	r24, 0xFF	; 255
     a74:	0e 94 d4 02 	call	0x5a8	; 0x5a8 <OLED_send_byte>
		OLED_send_byte(0xFF);
     a78:	8f ef       	ldi	r24, 0xFF	; 255
     a7a:	0e 94 d4 02 	call	0x5a8	; 0x5a8 <OLED_send_byte>

		OLED_send_byte(0xFF);
     a7e:	8f ef       	ldi	r24, 0xFF	; 255
     a80:	0e 94 d4 02 	call	0x5a8	; 0x5a8 <OLED_send_byte>
		OLED_send_byte(0xFF);
     a84:	8f ef       	ldi	r24, 0xFF	; 255
     a86:	0e 94 d4 02 	call	0x5a8	; 0x5a8 <OLED_send_byte>
		OLED_send_byte(0xFF);	// All lower 3 batterie bars are set
     a8a:	8f ef       	ldi	r24, 0xFF	; 255
     a8c:	0e 94 d4 02 	call	0x5a8	; 0x5a8 <OLED_send_byte>
		OLED_send_byte(0xFF);
     a90:	8f ef       	ldi	r24, 0xFF	; 255
     a92:	0e 94 d4 02 	call	0x5a8	; 0x5a8 <OLED_send_byte>
		OLED_send_byte(0xFF);
     a96:	8f ef       	ldi	r24, 0xFF	; 255
     a98:	0e 94 d4 02 	call	0x5a8	; 0x5a8 <OLED_send_byte>
		
		OLED_send_byte(0xFF);	
     a9c:	8f ef       	ldi	r24, 0xFF	; 255
     a9e:	0e 94 d4 02 	call	0x5a8	; 0x5a8 <OLED_send_byte>
		OLED_send_byte(0xFF);
     aa2:	8f ef       	ldi	r24, 0xFF	; 255
     aa4:	0e 94 d4 02 	call	0x5a8	; 0x5a8 <OLED_send_byte>
		OLED_send_byte(0x80);
     aa8:	80 e8       	ldi	r24, 0x80	; 128
     aaa:	0e 94 d4 02 	call	0x5a8	; 0x5a8 <OLED_send_byte>
		OLED_send_byte(0xFF);
     aae:	8f ef       	ldi	r24, 0xFF	; 255
     ab0:	0e 94 d4 02 	call	0x5a8	; 0x5a8 <OLED_send_byte>
		OLED_send_byte(0xFF);
     ab4:	8f ef       	ldi	r24, 0xFF	; 255
     ab6:	0e 94 d4 02 	call	0x5a8	; 0x5a8 <OLED_send_byte>
		
}
     aba:	df 91       	pop	r29
     abc:	cf 91       	pop	r28
     abe:	08 95       	ret

00000ac0 <OLED_battery_80>:

void OLED_battery_80(uint8_t hor,uint8_t ver)
{
     ac0:	cf 93       	push	r28
     ac2:	df 93       	push	r29
     ac4:	c8 2f       	mov	r28, r24
     ac6:	d6 2f       	mov	r29, r22
	OLED_set_pos_0();
     ac8:	0e 94 57 03 	call	0x6ae	; 0x6ae <OLED_set_pos_0>
	OLED_set_position(hor,ver);
     acc:	6d 2f       	mov	r22, r29
     ace:	8c 2f       	mov	r24, r28
     ad0:	0e 94 3f 03 	call	0x67e	; 0x67e <OLED_set_position>
	
	OLED_send_byte(0xF8);
     ad4:	88 ef       	ldi	r24, 0xF8	; 248
     ad6:	0e 94 d4 02 	call	0x5a8	; 0x5a8 <OLED_send_byte>
	OLED_send_byte(0xF8);
     ada:	88 ef       	ldi	r24, 0xF8	; 248
     adc:	0e 94 d4 02 	call	0x5a8	; 0x5a8 <OLED_send_byte>
	OLED_send_byte(0x08);
     ae0:	88 e0       	ldi	r24, 0x08	; 8
     ae2:	0e 94 d4 02 	call	0x5a8	; 0x5a8 <OLED_send_byte>
	OLED_send_byte(0xC8);
     ae6:	88 ec       	ldi	r24, 0xC8	; 200
     ae8:	0e 94 d4 02 	call	0x5a8	; 0x5a8 <OLED_send_byte>
	OLED_send_byte(0xCC);
     aec:	8c ec       	ldi	r24, 0xCC	; 204
     aee:	0e 94 d4 02 	call	0x5a8	; 0x5a8 <OLED_send_byte>
	
	OLED_send_byte(0xC4);
     af2:	84 ec       	ldi	r24, 0xC4	; 196
     af4:	0e 94 d4 02 	call	0x5a8	; 0x5a8 <OLED_send_byte>
	OLED_send_byte(0xC4);
     af8:	84 ec       	ldi	r24, 0xC4	; 196
     afa:	0e 94 d4 02 	call	0x5a8	; 0x5a8 <OLED_send_byte>
	OLED_send_byte(0xC4);
     afe:	84 ec       	ldi	r24, 0xC4	; 196
     b00:	0e 94 d4 02 	call	0x5a8	; 0x5a8 <OLED_send_byte>
	OLED_send_byte(0xC4);
     b04:	84 ec       	ldi	r24, 0xC4	; 196
     b06:	0e 94 d4 02 	call	0x5a8	; 0x5a8 <OLED_send_byte>
	OLED_send_byte(0xC4);
     b0a:	84 ec       	ldi	r24, 0xC4	; 196
     b0c:	0e 94 d4 02 	call	0x5a8	; 0x5a8 <OLED_send_byte>
	
	OLED_send_byte(0xCC);
     b10:	8c ec       	ldi	r24, 0xCC	; 204
     b12:	0e 94 d4 02 	call	0x5a8	; 0x5a8 <OLED_send_byte>
	OLED_send_byte(0xC8);
     b16:	88 ec       	ldi	r24, 0xC8	; 200
     b18:	0e 94 d4 02 	call	0x5a8	; 0x5a8 <OLED_send_byte>
	OLED_send_byte(0x08);
     b1c:	88 e0       	ldi	r24, 0x08	; 8
     b1e:	0e 94 d4 02 	call	0x5a8	; 0x5a8 <OLED_send_byte>
	OLED_send_byte(0xF8);
     b22:	88 ef       	ldi	r24, 0xF8	; 248
     b24:	0e 94 d4 02 	call	0x5a8	; 0x5a8 <OLED_send_byte>
	OLED_send_byte(0xF8);
     b28:	88 ef       	ldi	r24, 0xF8	; 248
     b2a:	0e 94 d4 02 	call	0x5a8	; 0x5a8 <OLED_send_byte>
	
	OLED_set_position(hor,ver+1);
     b2e:	6d 2f       	mov	r22, r29
     b30:	6f 5f       	subi	r22, 0xFF	; 255
     b32:	8c 2f       	mov	r24, r28
     b34:	0e 94 3f 03 	call	0x67e	; 0x67e <OLED_set_position>
	
	OLED_send_byte(0xFF);
     b38:	8f ef       	ldi	r24, 0xFF	; 255
     b3a:	0e 94 d4 02 	call	0x5a8	; 0x5a8 <OLED_send_byte>
	OLED_send_byte(0xFF);
     b3e:	8f ef       	ldi	r24, 0xFF	; 255
     b40:	0e 94 d4 02 	call	0x5a8	; 0x5a8 <OLED_send_byte>
	OLED_send_byte(0x80);
     b44:	80 e8       	ldi	r24, 0x80	; 128
     b46:	0e 94 d4 02 	call	0x5a8	; 0x5a8 <OLED_send_byte>
	OLED_send_byte(0xFF);	
     b4a:	8f ef       	ldi	r24, 0xFF	; 255
     b4c:	0e 94 d4 02 	call	0x5a8	; 0x5a8 <OLED_send_byte>
	OLED_send_byte(0xFF);
     b50:	8f ef       	ldi	r24, 0xFF	; 255
     b52:	0e 94 d4 02 	call	0x5a8	; 0x5a8 <OLED_send_byte>

	OLED_send_byte(0xFF);
     b56:	8f ef       	ldi	r24, 0xFF	; 255
     b58:	0e 94 d4 02 	call	0x5a8	; 0x5a8 <OLED_send_byte>
	OLED_send_byte(0xFF);
     b5c:	8f ef       	ldi	r24, 0xFF	; 255
     b5e:	0e 94 d4 02 	call	0x5a8	; 0x5a8 <OLED_send_byte>
	OLED_send_byte(0xFF);	
     b62:	8f ef       	ldi	r24, 0xFF	; 255
     b64:	0e 94 d4 02 	call	0x5a8	; 0x5a8 <OLED_send_byte>
	OLED_send_byte(0xFF);
     b68:	8f ef       	ldi	r24, 0xFF	; 255
     b6a:	0e 94 d4 02 	call	0x5a8	; 0x5a8 <OLED_send_byte>
	OLED_send_byte(0xFF);
     b6e:	8f ef       	ldi	r24, 0xFF	; 255
     b70:	0e 94 d4 02 	call	0x5a8	; 0x5a8 <OLED_send_byte>
	
	OLED_send_byte(0xFF);
     b74:	8f ef       	ldi	r24, 0xFF	; 255
     b76:	0e 94 d4 02 	call	0x5a8	; 0x5a8 <OLED_send_byte>
	OLED_send_byte(0xFF);
     b7a:	8f ef       	ldi	r24, 0xFF	; 255
     b7c:	0e 94 d4 02 	call	0x5a8	; 0x5a8 <OLED_send_byte>
	OLED_send_byte(0x80);
     b80:	80 e8       	ldi	r24, 0x80	; 128
     b82:	0e 94 d4 02 	call	0x5a8	; 0x5a8 <OLED_send_byte>
	OLED_send_byte(0xFF);
     b86:	8f ef       	ldi	r24, 0xFF	; 255
     b88:	0e 94 d4 02 	call	0x5a8	; 0x5a8 <OLED_send_byte>
	OLED_send_byte(0xFF);
     b8c:	8f ef       	ldi	r24, 0xFF	; 255
     b8e:	0e 94 d4 02 	call	0x5a8	; 0x5a8 <OLED_send_byte>
	
}
     b92:	df 91       	pop	r29
     b94:	cf 91       	pop	r28
     b96:	08 95       	ret

00000b98 <OLED_battery_60>:

void OLED_battery_60(uint8_t hor,uint8_t ver)
{
     b98:	cf 93       	push	r28
     b9a:	df 93       	push	r29
     b9c:	c8 2f       	mov	r28, r24
     b9e:	d6 2f       	mov	r29, r22
	OLED_set_pos_0();
     ba0:	0e 94 57 03 	call	0x6ae	; 0x6ae <OLED_set_pos_0>
	OLED_set_position(hor,ver);
     ba4:	6d 2f       	mov	r22, r29
     ba6:	8c 2f       	mov	r24, r28
     ba8:	0e 94 3f 03 	call	0x67e	; 0x67e <OLED_set_position>
	
	OLED_send_byte(0xF8);
     bac:	88 ef       	ldi	r24, 0xF8	; 248
     bae:	0e 94 d4 02 	call	0x5a8	; 0x5a8 <OLED_send_byte>
	OLED_send_byte(0xF8);
     bb2:	88 ef       	ldi	r24, 0xF8	; 248
     bb4:	0e 94 d4 02 	call	0x5a8	; 0x5a8 <OLED_send_byte>
	OLED_send_byte(0x08);
     bb8:	88 e0       	ldi	r24, 0x08	; 8
     bba:	0e 94 d4 02 	call	0x5a8	; 0x5a8 <OLED_send_byte>
	OLED_send_byte(0x08);
     bbe:	88 e0       	ldi	r24, 0x08	; 8
     bc0:	0e 94 d4 02 	call	0x5a8	; 0x5a8 <OLED_send_byte>
	OLED_send_byte(0x0C);
     bc4:	8c e0       	ldi	r24, 0x0C	; 12
     bc6:	0e 94 d4 02 	call	0x5a8	; 0x5a8 <OLED_send_byte>
	
	OLED_send_byte(0x04);
     bca:	84 e0       	ldi	r24, 0x04	; 4
     bcc:	0e 94 d4 02 	call	0x5a8	; 0x5a8 <OLED_send_byte>
	OLED_send_byte(0x04);
     bd0:	84 e0       	ldi	r24, 0x04	; 4
     bd2:	0e 94 d4 02 	call	0x5a8	; 0x5a8 <OLED_send_byte>
	OLED_send_byte(0x04);
     bd6:	84 e0       	ldi	r24, 0x04	; 4
     bd8:	0e 94 d4 02 	call	0x5a8	; 0x5a8 <OLED_send_byte>
	OLED_send_byte(0x04);
     bdc:	84 e0       	ldi	r24, 0x04	; 4
     bde:	0e 94 d4 02 	call	0x5a8	; 0x5a8 <OLED_send_byte>
	OLED_send_byte(0x04);
     be2:	84 e0       	ldi	r24, 0x04	; 4
     be4:	0e 94 d4 02 	call	0x5a8	; 0x5a8 <OLED_send_byte>
	
	OLED_send_byte(0x0C);
     be8:	8c e0       	ldi	r24, 0x0C	; 12
     bea:	0e 94 d4 02 	call	0x5a8	; 0x5a8 <OLED_send_byte>
	OLED_send_byte(0x08);
     bee:	88 e0       	ldi	r24, 0x08	; 8
     bf0:	0e 94 d4 02 	call	0x5a8	; 0x5a8 <OLED_send_byte>
	OLED_send_byte(0x08);
     bf4:	88 e0       	ldi	r24, 0x08	; 8
     bf6:	0e 94 d4 02 	call	0x5a8	; 0x5a8 <OLED_send_byte>
	OLED_send_byte(0xF8);
     bfa:	88 ef       	ldi	r24, 0xF8	; 248
     bfc:	0e 94 d4 02 	call	0x5a8	; 0x5a8 <OLED_send_byte>
	OLED_send_byte(0xF8);
     c00:	88 ef       	ldi	r24, 0xF8	; 248
     c02:	0e 94 d4 02 	call	0x5a8	; 0x5a8 <OLED_send_byte>
	
	OLED_set_position(hor,ver+1);
     c06:	6d 2f       	mov	r22, r29
     c08:	6f 5f       	subi	r22, 0xFF	; 255
     c0a:	8c 2f       	mov	r24, r28
     c0c:	0e 94 3f 03 	call	0x67e	; 0x67e <OLED_set_position>
	
	OLED_send_byte(0xFF);
     c10:	8f ef       	ldi	r24, 0xFF	; 255
     c12:	0e 94 d4 02 	call	0x5a8	; 0x5a8 <OLED_send_byte>
	OLED_send_byte(0xFF);
     c16:	8f ef       	ldi	r24, 0xFF	; 255
     c18:	0e 94 d4 02 	call	0x5a8	; 0x5a8 <OLED_send_byte>
	OLED_send_byte(0x80);
     c1c:	80 e8       	ldi	r24, 0x80	; 128
     c1e:	0e 94 d4 02 	call	0x5a8	; 0x5a8 <OLED_send_byte>
	OLED_send_byte(0xFF);
     c22:	8f ef       	ldi	r24, 0xFF	; 255
     c24:	0e 94 d4 02 	call	0x5a8	; 0x5a8 <OLED_send_byte>
	OLED_send_byte(0xFF);
     c28:	8f ef       	ldi	r24, 0xFF	; 255
     c2a:	0e 94 d4 02 	call	0x5a8	; 0x5a8 <OLED_send_byte>

	OLED_send_byte(0xFF);
     c2e:	8f ef       	ldi	r24, 0xFF	; 255
     c30:	0e 94 d4 02 	call	0x5a8	; 0x5a8 <OLED_send_byte>
	OLED_send_byte(0xFF);
     c34:	8f ef       	ldi	r24, 0xFF	; 255
     c36:	0e 94 d4 02 	call	0x5a8	; 0x5a8 <OLED_send_byte>
	OLED_send_byte(0xFF);
     c3a:	8f ef       	ldi	r24, 0xFF	; 255
     c3c:	0e 94 d4 02 	call	0x5a8	; 0x5a8 <OLED_send_byte>
	OLED_send_byte(0xFF);
     c40:	8f ef       	ldi	r24, 0xFF	; 255
     c42:	0e 94 d4 02 	call	0x5a8	; 0x5a8 <OLED_send_byte>
	OLED_send_byte(0xFF);
     c46:	8f ef       	ldi	r24, 0xFF	; 255
     c48:	0e 94 d4 02 	call	0x5a8	; 0x5a8 <OLED_send_byte>
	
	OLED_send_byte(0xFF);
     c4c:	8f ef       	ldi	r24, 0xFF	; 255
     c4e:	0e 94 d4 02 	call	0x5a8	; 0x5a8 <OLED_send_byte>
	OLED_send_byte(0xFF);
     c52:	8f ef       	ldi	r24, 0xFF	; 255
     c54:	0e 94 d4 02 	call	0x5a8	; 0x5a8 <OLED_send_byte>
	OLED_send_byte(0x80);
     c58:	80 e8       	ldi	r24, 0x80	; 128
     c5a:	0e 94 d4 02 	call	0x5a8	; 0x5a8 <OLED_send_byte>
	OLED_send_byte(0xFF);
     c5e:	8f ef       	ldi	r24, 0xFF	; 255
     c60:	0e 94 d4 02 	call	0x5a8	; 0x5a8 <OLED_send_byte>
	OLED_send_byte(0xFF);
     c64:	8f ef       	ldi	r24, 0xFF	; 255
     c66:	0e 94 d4 02 	call	0x5a8	; 0x5a8 <OLED_send_byte>
	
}
     c6a:	df 91       	pop	r29
     c6c:	cf 91       	pop	r28
     c6e:	08 95       	ret

00000c70 <OLED_battery_40>:

void OLED_battery_40(uint8_t hor,uint8_t ver)
{
     c70:	cf 93       	push	r28
     c72:	df 93       	push	r29
     c74:	c8 2f       	mov	r28, r24
     c76:	d6 2f       	mov	r29, r22
	OLED_set_pos_0();
     c78:	0e 94 57 03 	call	0x6ae	; 0x6ae <OLED_set_pos_0>
	OLED_set_position(hor,ver);
     c7c:	6d 2f       	mov	r22, r29
     c7e:	8c 2f       	mov	r24, r28
     c80:	0e 94 3f 03 	call	0x67e	; 0x67e <OLED_set_position>
	
	OLED_send_byte(0xF8);
     c84:	88 ef       	ldi	r24, 0xF8	; 248
     c86:	0e 94 d4 02 	call	0x5a8	; 0x5a8 <OLED_send_byte>
	OLED_send_byte(0xF8);
     c8a:	88 ef       	ldi	r24, 0xF8	; 248
     c8c:	0e 94 d4 02 	call	0x5a8	; 0x5a8 <OLED_send_byte>
	OLED_send_byte(0x08);
     c90:	88 e0       	ldi	r24, 0x08	; 8
     c92:	0e 94 d4 02 	call	0x5a8	; 0x5a8 <OLED_send_byte>
	OLED_send_byte(0x08);
     c96:	88 e0       	ldi	r24, 0x08	; 8
     c98:	0e 94 d4 02 	call	0x5a8	; 0x5a8 <OLED_send_byte>
	OLED_send_byte(0x0C);
     c9c:	8c e0       	ldi	r24, 0x0C	; 12
     c9e:	0e 94 d4 02 	call	0x5a8	; 0x5a8 <OLED_send_byte>
	
	OLED_send_byte(0x04);
     ca2:	84 e0       	ldi	r24, 0x04	; 4
     ca4:	0e 94 d4 02 	call	0x5a8	; 0x5a8 <OLED_send_byte>
	OLED_send_byte(0x04);
     ca8:	84 e0       	ldi	r24, 0x04	; 4
     caa:	0e 94 d4 02 	call	0x5a8	; 0x5a8 <OLED_send_byte>
	OLED_send_byte(0x04);
     cae:	84 e0       	ldi	r24, 0x04	; 4
     cb0:	0e 94 d4 02 	call	0x5a8	; 0x5a8 <OLED_send_byte>
	OLED_send_byte(0x04);
     cb4:	84 e0       	ldi	r24, 0x04	; 4
     cb6:	0e 94 d4 02 	call	0x5a8	; 0x5a8 <OLED_send_byte>
	OLED_send_byte(0x04);
     cba:	84 e0       	ldi	r24, 0x04	; 4
     cbc:	0e 94 d4 02 	call	0x5a8	; 0x5a8 <OLED_send_byte>
	
	OLED_send_byte(0x0C);
     cc0:	8c e0       	ldi	r24, 0x0C	; 12
     cc2:	0e 94 d4 02 	call	0x5a8	; 0x5a8 <OLED_send_byte>
	OLED_send_byte(0x08);
     cc6:	88 e0       	ldi	r24, 0x08	; 8
     cc8:	0e 94 d4 02 	call	0x5a8	; 0x5a8 <OLED_send_byte>
	OLED_send_byte(0x08);
     ccc:	88 e0       	ldi	r24, 0x08	; 8
     cce:	0e 94 d4 02 	call	0x5a8	; 0x5a8 <OLED_send_byte>
	OLED_send_byte(0xF8);
     cd2:	88 ef       	ldi	r24, 0xF8	; 248
     cd4:	0e 94 d4 02 	call	0x5a8	; 0x5a8 <OLED_send_byte>
	OLED_send_byte(0xF8);
     cd8:	88 ef       	ldi	r24, 0xF8	; 248
     cda:	0e 94 d4 02 	call	0x5a8	; 0x5a8 <OLED_send_byte>
	
	OLED_set_position(hor,ver+1);
     cde:	6d 2f       	mov	r22, r29
     ce0:	6f 5f       	subi	r22, 0xFF	; 255
     ce2:	8c 2f       	mov	r24, r28
     ce4:	0e 94 3f 03 	call	0x67e	; 0x67e <OLED_set_position>
	
	OLED_send_byte(0xFF);
     ce8:	8f ef       	ldi	r24, 0xFF	; 255
     cea:	0e 94 d4 02 	call	0x5a8	; 0x5a8 <OLED_send_byte>
	OLED_send_byte(0xFF);
     cee:	8f ef       	ldi	r24, 0xFF	; 255
     cf0:	0e 94 d4 02 	call	0x5a8	; 0x5a8 <OLED_send_byte>
	OLED_send_byte(0x80);
     cf4:	80 e8       	ldi	r24, 0x80	; 128
     cf6:	0e 94 d4 02 	call	0x5a8	; 0x5a8 <OLED_send_byte>
	OLED_send_byte(0xFC);
     cfa:	8c ef       	ldi	r24, 0xFC	; 252
     cfc:	0e 94 d4 02 	call	0x5a8	; 0x5a8 <OLED_send_byte>
	OLED_send_byte(0xFC);
     d00:	8c ef       	ldi	r24, 0xFC	; 252
     d02:	0e 94 d4 02 	call	0x5a8	; 0x5a8 <OLED_send_byte>

	OLED_send_byte(0xFC);
     d06:	8c ef       	ldi	r24, 0xFC	; 252
     d08:	0e 94 d4 02 	call	0x5a8	; 0x5a8 <OLED_send_byte>
	OLED_send_byte(0xFC);
     d0c:	8c ef       	ldi	r24, 0xFC	; 252
     d0e:	0e 94 d4 02 	call	0x5a8	; 0x5a8 <OLED_send_byte>
	OLED_send_byte(0xFC);
     d12:	8c ef       	ldi	r24, 0xFC	; 252
     d14:	0e 94 d4 02 	call	0x5a8	; 0x5a8 <OLED_send_byte>
	OLED_send_byte(0xFC);
     d18:	8c ef       	ldi	r24, 0xFC	; 252
     d1a:	0e 94 d4 02 	call	0x5a8	; 0x5a8 <OLED_send_byte>
	OLED_send_byte(0xFC);
     d1e:	8c ef       	ldi	r24, 0xFC	; 252
     d20:	0e 94 d4 02 	call	0x5a8	; 0x5a8 <OLED_send_byte>
	
	OLED_send_byte(0xFC);
     d24:	8c ef       	ldi	r24, 0xFC	; 252
     d26:	0e 94 d4 02 	call	0x5a8	; 0x5a8 <OLED_send_byte>
	OLED_send_byte(0xFC);
     d2a:	8c ef       	ldi	r24, 0xFC	; 252
     d2c:	0e 94 d4 02 	call	0x5a8	; 0x5a8 <OLED_send_byte>
	OLED_send_byte(0x80);
     d30:	80 e8       	ldi	r24, 0x80	; 128
     d32:	0e 94 d4 02 	call	0x5a8	; 0x5a8 <OLED_send_byte>
	OLED_send_byte(0xFF);
     d36:	8f ef       	ldi	r24, 0xFF	; 255
     d38:	0e 94 d4 02 	call	0x5a8	; 0x5a8 <OLED_send_byte>
	OLED_send_byte(0xFF);
     d3c:	8f ef       	ldi	r24, 0xFF	; 255
     d3e:	0e 94 d4 02 	call	0x5a8	; 0x5a8 <OLED_send_byte>
	
}
     d42:	df 91       	pop	r29
     d44:	cf 91       	pop	r28
     d46:	08 95       	ret

00000d48 <OLED_battery_30>:

void OLED_battery_30(uint8_t hor,uint8_t ver)
{
     d48:	cf 93       	push	r28
     d4a:	df 93       	push	r29
     d4c:	c8 2f       	mov	r28, r24
     d4e:	d6 2f       	mov	r29, r22
	OLED_set_pos_0();
     d50:	0e 94 57 03 	call	0x6ae	; 0x6ae <OLED_set_pos_0>
	OLED_set_position(hor,ver);
     d54:	6d 2f       	mov	r22, r29
     d56:	8c 2f       	mov	r24, r28
     d58:	0e 94 3f 03 	call	0x67e	; 0x67e <OLED_set_position>
	
	OLED_send_byte(0xF8);
     d5c:	88 ef       	ldi	r24, 0xF8	; 248
     d5e:	0e 94 d4 02 	call	0x5a8	; 0x5a8 <OLED_send_byte>
	OLED_send_byte(0xF8);
     d62:	88 ef       	ldi	r24, 0xF8	; 248
     d64:	0e 94 d4 02 	call	0x5a8	; 0x5a8 <OLED_send_byte>
	OLED_send_byte(0x08);
     d68:	88 e0       	ldi	r24, 0x08	; 8
     d6a:	0e 94 d4 02 	call	0x5a8	; 0x5a8 <OLED_send_byte>
	OLED_send_byte(0x08);
     d6e:	88 e0       	ldi	r24, 0x08	; 8
     d70:	0e 94 d4 02 	call	0x5a8	; 0x5a8 <OLED_send_byte>
	OLED_send_byte(0x0C);
     d74:	8c e0       	ldi	r24, 0x0C	; 12
     d76:	0e 94 d4 02 	call	0x5a8	; 0x5a8 <OLED_send_byte>
	
	OLED_send_byte(0x04);
     d7a:	84 e0       	ldi	r24, 0x04	; 4
     d7c:	0e 94 d4 02 	call	0x5a8	; 0x5a8 <OLED_send_byte>
	OLED_send_byte(0x04);
     d80:	84 e0       	ldi	r24, 0x04	; 4
     d82:	0e 94 d4 02 	call	0x5a8	; 0x5a8 <OLED_send_byte>
	OLED_send_byte(0x04);
     d86:	84 e0       	ldi	r24, 0x04	; 4
     d88:	0e 94 d4 02 	call	0x5a8	; 0x5a8 <OLED_send_byte>
	OLED_send_byte(0x04);
     d8c:	84 e0       	ldi	r24, 0x04	; 4
     d8e:	0e 94 d4 02 	call	0x5a8	; 0x5a8 <OLED_send_byte>
	OLED_send_byte(0x04);
     d92:	84 e0       	ldi	r24, 0x04	; 4
     d94:	0e 94 d4 02 	call	0x5a8	; 0x5a8 <OLED_send_byte>
	
	OLED_send_byte(0x0C);
     d98:	8c e0       	ldi	r24, 0x0C	; 12
     d9a:	0e 94 d4 02 	call	0x5a8	; 0x5a8 <OLED_send_byte>
	OLED_send_byte(0x08);
     d9e:	88 e0       	ldi	r24, 0x08	; 8
     da0:	0e 94 d4 02 	call	0x5a8	; 0x5a8 <OLED_send_byte>
	OLED_send_byte(0x08);
     da4:	88 e0       	ldi	r24, 0x08	; 8
     da6:	0e 94 d4 02 	call	0x5a8	; 0x5a8 <OLED_send_byte>
	OLED_send_byte(0xF8);
     daa:	88 ef       	ldi	r24, 0xF8	; 248
     dac:	0e 94 d4 02 	call	0x5a8	; 0x5a8 <OLED_send_byte>
	OLED_send_byte(0xF8);
     db0:	88 ef       	ldi	r24, 0xF8	; 248
     db2:	0e 94 d4 02 	call	0x5a8	; 0x5a8 <OLED_send_byte>
	
	OLED_set_position(hor,ver+1);
     db6:	6d 2f       	mov	r22, r29
     db8:	6f 5f       	subi	r22, 0xFF	; 255
     dba:	8c 2f       	mov	r24, r28
     dbc:	0e 94 3f 03 	call	0x67e	; 0x67e <OLED_set_position>
	
	OLED_send_byte(0xFF);
     dc0:	8f ef       	ldi	r24, 0xFF	; 255
     dc2:	0e 94 d4 02 	call	0x5a8	; 0x5a8 <OLED_send_byte>
	OLED_send_byte(0xFF);
     dc6:	8f ef       	ldi	r24, 0xFF	; 255
     dc8:	0e 94 d4 02 	call	0x5a8	; 0x5a8 <OLED_send_byte>
	OLED_send_byte(0x80);
     dcc:	80 e8       	ldi	r24, 0x80	; 128
     dce:	0e 94 d4 02 	call	0x5a8	; 0x5a8 <OLED_send_byte>
	OLED_send_byte(0xF0);
     dd2:	80 ef       	ldi	r24, 0xF0	; 240
     dd4:	0e 94 d4 02 	call	0x5a8	; 0x5a8 <OLED_send_byte>
	OLED_send_byte(0xF0);
     dd8:	80 ef       	ldi	r24, 0xF0	; 240
     dda:	0e 94 d4 02 	call	0x5a8	; 0x5a8 <OLED_send_byte>

	OLED_send_byte(0xF0);
     dde:	80 ef       	ldi	r24, 0xF0	; 240
     de0:	0e 94 d4 02 	call	0x5a8	; 0x5a8 <OLED_send_byte>
	OLED_send_byte(0xF0);
     de4:	80 ef       	ldi	r24, 0xF0	; 240
     de6:	0e 94 d4 02 	call	0x5a8	; 0x5a8 <OLED_send_byte>
	OLED_send_byte(0xF0);
     dea:	80 ef       	ldi	r24, 0xF0	; 240
     dec:	0e 94 d4 02 	call	0x5a8	; 0x5a8 <OLED_send_byte>
	OLED_send_byte(0xF0);
     df0:	80 ef       	ldi	r24, 0xF0	; 240
     df2:	0e 94 d4 02 	call	0x5a8	; 0x5a8 <OLED_send_byte>
	OLED_send_byte(0xF0);
     df6:	80 ef       	ldi	r24, 0xF0	; 240
     df8:	0e 94 d4 02 	call	0x5a8	; 0x5a8 <OLED_send_byte>
	
	OLED_send_byte(0xF0);
     dfc:	80 ef       	ldi	r24, 0xF0	; 240
     dfe:	0e 94 d4 02 	call	0x5a8	; 0x5a8 <OLED_send_byte>
	OLED_send_byte(0xF0);
     e02:	80 ef       	ldi	r24, 0xF0	; 240
     e04:	0e 94 d4 02 	call	0x5a8	; 0x5a8 <OLED_send_byte>
	OLED_send_byte(0x80);
     e08:	80 e8       	ldi	r24, 0x80	; 128
     e0a:	0e 94 d4 02 	call	0x5a8	; 0x5a8 <OLED_send_byte>
	OLED_send_byte(0xFF);
     e0e:	8f ef       	ldi	r24, 0xFF	; 255
     e10:	0e 94 d4 02 	call	0x5a8	; 0x5a8 <OLED_send_byte>
	OLED_send_byte(0xFF);
     e14:	8f ef       	ldi	r24, 0xFF	; 255
     e16:	0e 94 d4 02 	call	0x5a8	; 0x5a8 <OLED_send_byte>
	
}
     e1a:	df 91       	pop	r29
     e1c:	cf 91       	pop	r28
     e1e:	08 95       	ret

00000e20 <OLED_battery_0>:

void OLED_battery_0(uint8_t hor,uint8_t ver)
{
     e20:	cf 93       	push	r28
     e22:	df 93       	push	r29
     e24:	c8 2f       	mov	r28, r24
     e26:	d6 2f       	mov	r29, r22
	OLED_set_pos_0();
     e28:	0e 94 57 03 	call	0x6ae	; 0x6ae <OLED_set_pos_0>
	OLED_set_position(hor,ver);
     e2c:	6d 2f       	mov	r22, r29
     e2e:	8c 2f       	mov	r24, r28
     e30:	0e 94 3f 03 	call	0x67e	; 0x67e <OLED_set_position>
	
	OLED_send_byte(0xF8);
     e34:	88 ef       	ldi	r24, 0xF8	; 248
     e36:	0e 94 d4 02 	call	0x5a8	; 0x5a8 <OLED_send_byte>
	OLED_send_byte(0xF8);
     e3a:	88 ef       	ldi	r24, 0xF8	; 248
     e3c:	0e 94 d4 02 	call	0x5a8	; 0x5a8 <OLED_send_byte>
	OLED_send_byte(0x08);
     e40:	88 e0       	ldi	r24, 0x08	; 8
     e42:	0e 94 d4 02 	call	0x5a8	; 0x5a8 <OLED_send_byte>
	OLED_send_byte(0x08);
     e46:	88 e0       	ldi	r24, 0x08	; 8
     e48:	0e 94 d4 02 	call	0x5a8	; 0x5a8 <OLED_send_byte>
	OLED_send_byte(0x0C);
     e4c:	8c e0       	ldi	r24, 0x0C	; 12
     e4e:	0e 94 d4 02 	call	0x5a8	; 0x5a8 <OLED_send_byte>
	
	OLED_send_byte(0x04);
     e52:	84 e0       	ldi	r24, 0x04	; 4
     e54:	0e 94 d4 02 	call	0x5a8	; 0x5a8 <OLED_send_byte>
	OLED_send_byte(0x04);
     e58:	84 e0       	ldi	r24, 0x04	; 4
     e5a:	0e 94 d4 02 	call	0x5a8	; 0x5a8 <OLED_send_byte>
	OLED_send_byte(0x04);
     e5e:	84 e0       	ldi	r24, 0x04	; 4
     e60:	0e 94 d4 02 	call	0x5a8	; 0x5a8 <OLED_send_byte>
	OLED_send_byte(0x04);
     e64:	84 e0       	ldi	r24, 0x04	; 4
     e66:	0e 94 d4 02 	call	0x5a8	; 0x5a8 <OLED_send_byte>
	OLED_send_byte(0x04);
     e6a:	84 e0       	ldi	r24, 0x04	; 4
     e6c:	0e 94 d4 02 	call	0x5a8	; 0x5a8 <OLED_send_byte>
	
	OLED_send_byte(0x0C);
     e70:	8c e0       	ldi	r24, 0x0C	; 12
     e72:	0e 94 d4 02 	call	0x5a8	; 0x5a8 <OLED_send_byte>
	OLED_send_byte(0x08);
     e76:	88 e0       	ldi	r24, 0x08	; 8
     e78:	0e 94 d4 02 	call	0x5a8	; 0x5a8 <OLED_send_byte>
	OLED_send_byte(0x08);
     e7c:	88 e0       	ldi	r24, 0x08	; 8
     e7e:	0e 94 d4 02 	call	0x5a8	; 0x5a8 <OLED_send_byte>
	OLED_send_byte(0xF8);
     e82:	88 ef       	ldi	r24, 0xF8	; 248
     e84:	0e 94 d4 02 	call	0x5a8	; 0x5a8 <OLED_send_byte>
	OLED_send_byte(0xF8);
     e88:	88 ef       	ldi	r24, 0xF8	; 248
     e8a:	0e 94 d4 02 	call	0x5a8	; 0x5a8 <OLED_send_byte>
	
	OLED_set_position(hor,ver+1);
     e8e:	6d 2f       	mov	r22, r29
     e90:	6f 5f       	subi	r22, 0xFF	; 255
     e92:	8c 2f       	mov	r24, r28
     e94:	0e 94 3f 03 	call	0x67e	; 0x67e <OLED_set_position>
	
	OLED_send_byte(0xFF);
     e98:	8f ef       	ldi	r24, 0xFF	; 255
     e9a:	0e 94 d4 02 	call	0x5a8	; 0x5a8 <OLED_send_byte>
	OLED_send_byte(0xFF);
     e9e:	8f ef       	ldi	r24, 0xFF	; 255
     ea0:	0e 94 d4 02 	call	0x5a8	; 0x5a8 <OLED_send_byte>
	OLED_send_byte(0x80);
     ea4:	80 e8       	ldi	r24, 0x80	; 128
     ea6:	0e 94 d4 02 	call	0x5a8	; 0x5a8 <OLED_send_byte>
	OLED_send_byte(0x80);
     eaa:	80 e8       	ldi	r24, 0x80	; 128
     eac:	0e 94 d4 02 	call	0x5a8	; 0x5a8 <OLED_send_byte>
	OLED_send_byte(0x80);
     eb0:	80 e8       	ldi	r24, 0x80	; 128
     eb2:	0e 94 d4 02 	call	0x5a8	; 0x5a8 <OLED_send_byte>

	OLED_send_byte(0x80);
     eb6:	80 e8       	ldi	r24, 0x80	; 128
     eb8:	0e 94 d4 02 	call	0x5a8	; 0x5a8 <OLED_send_byte>
	OLED_send_byte(0x80);
     ebc:	80 e8       	ldi	r24, 0x80	; 128
     ebe:	0e 94 d4 02 	call	0x5a8	; 0x5a8 <OLED_send_byte>
	OLED_send_byte(0x80);
     ec2:	80 e8       	ldi	r24, 0x80	; 128
     ec4:	0e 94 d4 02 	call	0x5a8	; 0x5a8 <OLED_send_byte>
	OLED_send_byte(0x80);
     ec8:	80 e8       	ldi	r24, 0x80	; 128
     eca:	0e 94 d4 02 	call	0x5a8	; 0x5a8 <OLED_send_byte>
	OLED_send_byte(0x80);
     ece:	80 e8       	ldi	r24, 0x80	; 128
     ed0:	0e 94 d4 02 	call	0x5a8	; 0x5a8 <OLED_send_byte>
	
	OLED_send_byte(0x80);
     ed4:	80 e8       	ldi	r24, 0x80	; 128
     ed6:	0e 94 d4 02 	call	0x5a8	; 0x5a8 <OLED_send_byte>
	OLED_send_byte(0x80);
     eda:	80 e8       	ldi	r24, 0x80	; 128
     edc:	0e 94 d4 02 	call	0x5a8	; 0x5a8 <OLED_send_byte>
	OLED_send_byte(0x80);
     ee0:	80 e8       	ldi	r24, 0x80	; 128
     ee2:	0e 94 d4 02 	call	0x5a8	; 0x5a8 <OLED_send_byte>
	OLED_send_byte(0xFF);
     ee6:	8f ef       	ldi	r24, 0xFF	; 255
     ee8:	0e 94 d4 02 	call	0x5a8	; 0x5a8 <OLED_send_byte>
	OLED_send_byte(0xFF);
     eec:	8f ef       	ldi	r24, 0xFF	; 255
     eee:	0e 94 d4 02 	call	0x5a8	; 0x5a8 <OLED_send_byte>
	
}
     ef2:	df 91       	pop	r29
     ef4:	cf 91       	pop	r28
     ef6:	08 95       	ret

00000ef8 <i2c_initialize>:
#include "GeneralSettings.h"

void i2c_initialize()
{
	// Set the Baudrate Register
	TWBR = ((F_CPU/SCL_CLOCK)-16)/2;  /* must be > 10 for stable operation */
     ef8:	87 e0       	ldi	r24, 0x07	; 7
     efa:	80 b9       	out	0x00, r24	; 0
	
	// Enable the TWI Module
	TWCR |= (1<<TWEA)|(1<<TWIE)|(1<<TWEN);	// as per Arduino code!
     efc:	86 b7       	in	r24, 0x36	; 54
     efe:	85 64       	ori	r24, 0x45	; 69
     f00:	86 bf       	out	0x36, r24	; 54
     f02:	08 95       	ret

00000f04 <i2c_start>:
	// Arduino additionally enables internal Pull Ups? Is this needed? Arduino is the only source where I found this.
}

void i2c_start()
{
	TWCR = 0xA4;                                                // send a start bit on i2c bus
     f04:	84 ea       	ldi	r24, 0xA4	; 164
     f06:	86 bf       	out	0x36, r24	; 54
	// TWCR |= (1<<TWINT)|(1<<TWSTA)|(1<<TWEN);					// identical to 0xA4
	while(!(TWCR & 0x80));										// wait for confirmation of transmit
     f08:	06 b6       	in	r0, 0x36	; 54
     f0a:	07 fe       	sbrs	r0, 7
     f0c:	fd cf       	rjmp	.-6      	; 0xf08 <i2c_start+0x4>
	// while(!(TWCR & (1<<TWINT)));								// identical to above
	while((TWSR & 0xF8) != 0x08);								// This comes out of ATMEGA Datasheet to check for the Status Register
     f0e:	81 b1       	in	r24, 0x01	; 1
     f10:	88 7f       	andi	r24, 0xF8	; 248
     f12:	88 30       	cpi	r24, 0x08	; 8
     f14:	e1 f7       	brne	.-8      	; 0xf0e <i2c_start+0xa>
	
}
     f16:	08 95       	ret

00000f18 <i2c_repeated_start>:

void i2c_repeated_start()
{
	TWCR = 0xA4;                                                // send a start bit on i2c bus
     f18:	84 ea       	ldi	r24, 0xA4	; 164
     f1a:	86 bf       	out	0x36, r24	; 54
	// TWCR |= (1<<TWINT)|(1<<TWSTA)|(1<<TWEN);					// identical to 0xA4
	while(!(TWCR & 0x80)) ;										// wait for confirmation of transmit
     f1c:	06 b6       	in	r0, 0x36	; 54
     f1e:	07 fe       	sbrs	r0, 7
     f20:	fd cf       	rjmp	.-6      	; 0xf1c <i2c_repeated_start+0x4>
	
}
     f22:	08 95       	ret

00000f24 <i2c_send_address_read>:

void i2c_send_address_read(char address)
{
	TWDR = address;												// load address of i2c device into data register
     f24:	83 b9       	out	0x03, r24	; 3
	//TWCR = 0x84;												// transmit
	TWCR |= (1<<TWINT) | (1<<TWEN) | (1<<TWEA);					// as per Datasheet from ATMEGA32
     f26:	86 b7       	in	r24, 0x36	; 54
     f28:	84 6c       	ori	r24, 0xC4	; 196
     f2a:	86 bf       	out	0x36, r24	; 54
	while(!(TWCR & 0x80));										// wait for confirmation of transmit
     f2c:	06 b6       	in	r0, 0x36	; 54
     f2e:	07 fe       	sbrs	r0, 7
     f30:	fd cf       	rjmp	.-6      	; 0xf2c <i2c_send_address_read+0x8>
	// while(!(TWCR & (1<<TWINT)));								// identical to above
	while(((TWSR & 0xF8) != 0x40));
     f32:	81 b1       	in	r24, 0x01	; 1
     f34:	88 7f       	andi	r24, 0xF8	; 248
     f36:	80 34       	cpi	r24, 0x40	; 64
     f38:	e1 f7       	brne	.-8      	; 0xf32 <i2c_send_address_read+0xe>
	// 0x40 = Read mode agreed	0x18 = write mode agreed
		
}
     f3a:	08 95       	ret

00000f3c <i2c_send_address_write>:

void i2c_send_address_write(char address)
{
	TWDR = address;												// load address of i2c device into data register
     f3c:	83 b9       	out	0x03, r24	; 3
	TWCR = 0x84;												// transmit
     f3e:	84 e8       	ldi	r24, 0x84	; 132
     f40:	86 bf       	out	0x36, r24	; 54
	// identical to TWCR = (1<<TWINT) | (1<<TWEN);				// as per Datasheet from ATMEGA32
	while(!(TWCR & 0x80));										// wait for confirmation of transmit
     f42:	06 b6       	in	r0, 0x36	; 54
     f44:	07 fe       	sbrs	r0, 7
     f46:	fd cf       	rjmp	.-6      	; 0xf42 <i2c_send_address_write+0x6>
	// while(!(TWCR & (1<<TWINT)));								// identical to above
	while(((TWSR & 0xF8) != 0x18)) ;
     f48:	81 b1       	in	r24, 0x01	; 1
     f4a:	88 7f       	andi	r24, 0xF8	; 248
     f4c:	88 31       	cpi	r24, 0x18	; 24
     f4e:	e1 f7       	brne	.-8      	; 0xf48 <i2c_send_address_write+0xc>
	// 0x40 = Read mode agreed	0x18 = write mode agreed
}
     f50:	08 95       	ret

00000f52 <i2c_send_registry>:

void i2c_send_registry(char reg)
{
	TWDR = reg;													// load registry ID device into data register
     f52:	83 b9       	out	0x03, r24	; 3
	TWCR = 0x84;                                                // transmit
     f54:	84 e8       	ldi	r24, 0x84	; 132
     f56:	86 bf       	out	0x36, r24	; 54
	while(!(TWCR & 0x80));										// wait for confirmation of transmit
     f58:	06 b6       	in	r0, 0x36	; 54
     f5a:	07 fe       	sbrs	r0, 7
     f5c:	fd cf       	rjmp	.-6      	; 0xf58 <i2c_send_registry+0x6>
	while(((TWSR & 0xF8) != 0x28));
     f5e:	81 b1       	in	r24, 0x01	; 1
     f60:	88 7f       	andi	r24, 0xF8	; 248
     f62:	88 32       	cpi	r24, 0x28	; 40
     f64:	e1 f7       	brne	.-8      	; 0xf5e <i2c_send_registry+0xc>
}
     f66:	08 95       	ret

00000f68 <i2c_send_data>:

void i2c_send_data(char data)
{
	TWDR = data;												// load data into data register
     f68:	83 b9       	out	0x03, r24	; 3
	TWCR = 0x84;                                                // transmit
     f6a:	84 e8       	ldi	r24, 0x84	; 132
     f6c:	86 bf       	out	0x36, r24	; 54
	while(!(TWCR & 0x80));										// wait for confirmation of transmit
     f6e:	06 b6       	in	r0, 0x36	; 54
     f70:	07 fe       	sbrs	r0, 7
     f72:	fd cf       	rjmp	.-6      	; 0xf6e <i2c_send_data+0x6>
	while(((TWSR & 0xF8) != 0x28)) ;
     f74:	81 b1       	in	r24, 0x01	; 1
     f76:	88 7f       	andi	r24, 0xF8	; 248
     f78:	88 32       	cpi	r24, 0x28	; 40
     f7a:	e1 f7       	brne	.-8      	; 0xf74 <i2c_send_data+0xc>
}
     f7c:	08 95       	ret

00000f7e <i2c_read_data_nmak>:

int i2c_read_data_nmak()
{
	TWCR = (1<<TWINT)|(1<<TWEN);	//|(1<<TWEA);
     f7e:	84 e8       	ldi	r24, 0x84	; 132
     f80:	86 bf       	out	0x36, r24	; 54
	while(!(TWCR & (1<<TWINT)));
     f82:	06 b6       	in	r0, 0x36	; 54
     f84:	07 fe       	sbrs	r0, 7
     f86:	fd cf       	rjmp	.-6      	; 0xf82 <i2c_read_data_nmak+0x4>
	//while(!(TWCR & 0x80))write_string_ln("H3");
	//while(((TWSR & 0xF8) != 0x50)) write_var_ln(TWSR);
	int data;
	data = TWDR;
     f88:	83 b1       	in	r24, 0x03	; 3
	return data;
}
     f8a:	90 e0       	ldi	r25, 0x00	; 0
     f8c:	08 95       	ret

00000f8e <i2c_read_data_mak>:

int i2c_read_data_mak()
{
	TWCR = (1<<TWINT)|(1<<TWEN)|(1<<TWEA);
     f8e:	84 ec       	ldi	r24, 0xC4	; 196
     f90:	86 bf       	out	0x36, r24	; 54
	while(!(TWCR & (1<<TWINT)));
     f92:	06 b6       	in	r0, 0x36	; 54
     f94:	07 fe       	sbrs	r0, 7
     f96:	fd cf       	rjmp	.-6      	; 0xf92 <i2c_read_data_mak+0x4>
	//while(!(TWCR & 0x80))write_string_ln("H3");
	//while(((TWSR & 0xF8) != 0x50)) write_var_ln(TWSR);
	int data;
	data = TWDR;
     f98:	83 b1       	in	r24, 0x03	; 3
	return data;
}
     f9a:	90 e0       	ldi	r25, 0x00	; 0
     f9c:	08 95       	ret

00000f9e <i2c_stop>:

void i2c_stop()
{
	TWDR = 0x00;	//SVEN: adding for test...
     f9e:	13 b8       	out	0x03, r1	; 3
	TWCR |= (1<<TWINT)|(1<<TWEN)|(1<<TWSTO);									// Try (as per Datasheet)
     fa0:	86 b7       	in	r24, 0x36	; 54
     fa2:	84 69       	ori	r24, 0x94	; 148
     fa4:	86 bf       	out	0x36, r24	; 54
	//TWCR = 0x94;                                                  // stop bit
	while(TWCR & (1<<TWSTO));					// From Pete Fleury I2C master
     fa6:	06 b6       	in	r0, 0x36	; 54
     fa8:	04 fc       	sbrc	r0, 4
     faa:	fd cf       	rjmp	.-6      	; 0xfa6 <i2c_stop+0x8>
}
     fac:	08 95       	ret

00000fae <i2c_wait_transmission>:
}
void i2c_wait_transmission()
{
	//uint8_t transm_cnt = 255;
	//uint8_t transm_flag = 0;
	while (!(TWCR & (1<<TWINT)));
     fae:	06 b6       	in	r0, 0x36	; 54
     fb0:	07 fe       	sbrs	r0, 7
     fb2:	fd cf       	rjmp	.-6      	; 0xfae <i2c_wait_transmission>
// 				write_string_ln("I2C Transm Error");
// 			}
// 			
// 		}
// 	}
}
     fb4:	08 95       	ret

00000fb6 <i2c_write_val_to_reg_OLED>:
	//TWCR = 0x94;                                                  // stop bit
	while(TWCR & (1<<TWSTO));					// From Pete Fleury I2C master
}

void i2c_write_val_to_reg_OLED(char address,char reg,char val)
{
     fb6:	1f 93       	push	r17
     fb8:	cf 93       	push	r28
     fba:	df 93       	push	r29
     fbc:	16 2f       	mov	r17, r22
     fbe:	d4 2f       	mov	r29, r20
	TWDR = address;                              // send device address
     fc0:	83 b9       	out	0x03, r24	; 3
	TWCR = (1<<TWINT) | (1<<TWEN);
     fc2:	c4 e8       	ldi	r28, 0x84	; 132
     fc4:	c6 bf       	out	0x36, r28	; 54
	i2c_wait_transmission();
     fc6:	0e 94 d7 07 	call	0xfae	; 0xfae <i2c_wait_transmission>
	TWDR = reg;									// send register
     fca:	13 b9       	out	0x03, r17	; 3
	TWCR = (1<<TWINT) | (1<<TWEN);
     fcc:	c6 bf       	out	0x36, r28	; 54
	i2c_wait_transmission();
     fce:	0e 94 d7 07 	call	0xfae	; 0xfae <i2c_wait_transmission>
	TWDR = val;									// send value
     fd2:	d3 b9       	out	0x03, r29	; 3
	TWCR = (1<<TWINT) | (1<<TWEN);
     fd4:	c6 bf       	out	0x36, r28	; 54
	i2c_wait_transmission();
     fd6:	0e 94 d7 07 	call	0xfae	; 0xfae <i2c_wait_transmission>
}
     fda:	df 91       	pop	r29
     fdc:	cf 91       	pop	r28
     fde:	1f 91       	pop	r17
     fe0:	08 95       	ret

00000fe2 <i2c_repeated_start_OLED>:
// 		}
// 	}
}
void i2c_repeated_start_OLED()
{
	TWCR = (1<<TWINT) | (1<<TWSTA) | (1<<TWEN) ;	// send REPEAT START condition
     fe2:	84 ea       	ldi	r24, 0xA4	; 164
     fe4:	86 bf       	out	0x36, r24	; 54
	i2c_wait_transmission();						// wait until transmission completed
     fe6:	0e 94 d7 07 	call	0xfae	; 0xfae <i2c_wait_transmission>
     fea:	08 95       	ret

00000fec <servo_init>:
	// REMEMBER: Whenever Interrupt Service Routines are configured, 
	// we need to disable the Interrupts and enable them afterwards!
	// Remark: here we do it globally in the Simple Testing Init
	
	// Defining the Output Ports
	DDRB |= (1<<PB0) | (1<<PB1) | (1<<PB2) | (1<<PB3) | (1<<PB4);	// 5 servos
     fec:	87 b3       	in	r24, 0x17	; 23
     fee:	8f 61       	ori	r24, 0x1F	; 31
     ff0:	87 bb       	out	0x17, r24	; 23
	DDRA |= (1<<PA0) | (1<<PA1);									// 2 servos
     ff2:	8a b3       	in	r24, 0x1a	; 26
     ff4:	83 60       	ori	r24, 0x03	; 3
     ff6:	8a bb       	out	0x1a, r24	; 26
	
	PORTB &= ~((1<<PB0)|(1<<PB1)|(1<<PB2)|(1<<PB3)|(1<<PB4));		// All servo signals are pulled down initially
     ff8:	88 b3       	in	r24, 0x18	; 24
     ffa:	80 7e       	andi	r24, 0xE0	; 224
     ffc:	88 bb       	out	0x18, r24	; 24
	PORTA &= ~((1<<PA0)|(1<<PA1));									// All servo signals are pulled down initially
     ffe:	8b b3       	in	r24, 0x1b	; 27
    1000:	8c 7f       	andi	r24, 0xFC	; 252
    1002:	8b bb       	out	0x1b, r24	; 27
	
	// Using Timer 1 (16 bit Timer)
	// Prescaler = 8	(CS Bits)
	// CTC Mode	(WGM10 - WGM13)
	TCCR1A = (0<<COM1A1)|(0<<COM1A0)|(0<<COM1B1)|(0<<COM1B0)|(0<<FOC1A)|(0<<FOC1B)|(0<<WGM11)|(0<<WGM10);
    1004:	1f bc       	out	0x2f, r1	; 47
	TCCR1B = (0<<ICNC1)|(0<<ICES1)|(0<<WGM13)|(1<<WGM12)|(0<<CS12)|(1<<CS11)|(0<<CS10);
    1006:	8a e0       	ldi	r24, 0x0A	; 10
    1008:	8e bd       	out	0x2e, r24	; 46
	
	// TIMSK is set in the main routine, as problems were discovered when not setting this globally
	// TIMSK  = (0<<TICIE1)|(1<<OCIE1A)|(0<<OCIE1B)|(0<<TOIE1);
	OCR1A = NEUTRAL;	// Give Neutral position in the beginning
    100a:	8a ec       	ldi	r24, 0xCA	; 202
    100c:	98 e0       	ldi	r25, 0x08	; 8
    100e:	9b bd       	out	0x2b, r25	; 43
    1010:	8a bd       	out	0x2a, r24	; 42
	// INPUT CONTROL 
	// We use interrupt Pin INT0 to control the TIMER2
	
	// General Interrupt Control Register
	// setting one of the bits enables the Interrupt Request
	GICR = (0<<INT1)|(1<<INT0)|(0<<INT2);
    1012:	80 e4       	ldi	r24, 0x40	; 64
    1014:	8b bf       	out	0x3b, r24	; 59
	
	// MCU Control Register to activate INT0 Pin
	// ISC11, ISC10 used for INT1 control
	// ISC01, ISC00 used for INT0 control	-> setting both to 1, gives rising edge interrupt
	MCUCR = (0<<ISC11)|(0<<ISC10)|(1<<ISC01)|(1<<ISC00);
    1016:	83 e0       	ldi	r24, 0x03	; 3
    1018:	85 bf       	out	0x35, r24	; 53
	
	// TCCR2
	// we activate the timer 2 in normal mode
	// with Prescaler of 128 we achieve an overflow at 2,7ms
	// and the signal from the receiver has a resolution of 0.01ms/bit
	TCCR2 = (0<<WGM20)|(0<<WGM21)|(1<<CS22)|(0<<CS21)|(1<<CS20);
    101a:	85 e0       	ldi	r24, 0x05	; 5
    101c:	85 bd       	out	0x25, r24	; 37
	TCNT2 = 0;
    101e:	14 bc       	out	0x24, r1	; 36
	write_string_ln("ServoTimerStarted");
    1020:	8f ec       	ldi	r24, 0xCF	; 207
    1022:	90 e0       	ldi	r25, 0x00	; 0
    1024:	0e 94 f1 1b 	call	0x37e2	; 0x37e2 <write_string_ln>
    1028:	08 95       	ret

0000102a <__vector_7>:
		
}

ISR(TIMER1_COMPA_vect)
{
    102a:	1f 92       	push	r1
    102c:	0f 92       	push	r0
    102e:	0f b6       	in	r0, 0x3f	; 63
    1030:	0f 92       	push	r0
    1032:	11 24       	eor	r1, r1
    1034:	2f 93       	push	r18
    1036:	3f 93       	push	r19
    1038:	4f 93       	push	r20
    103a:	5f 93       	push	r21
    103c:	8f 93       	push	r24
    103e:	9f 93       	push	r25
    1040:	af 93       	push	r26
    1042:	bf 93       	push	r27
	switch (ctrl)
    1044:	80 91 fb 01 	lds	r24, 0x01FB
    1048:	86 30       	cpi	r24, 0x06	; 6
    104a:	09 f4       	brne	.+2      	; 0x104e <__vector_7+0x24>
    104c:	99 c0       	rjmp	.+306    	; 0x1180 <__vector_7+0x156>
    104e:	84 f4       	brge	.+32     	; 0x1070 <__vector_7+0x46>
    1050:	82 30       	cpi	r24, 0x02	; 2
    1052:	09 f4       	brne	.+2      	; 0x1056 <__vector_7+0x2c>
    1054:	47 c0       	rjmp	.+142    	; 0x10e4 <__vector_7+0xba>
    1056:	34 f4       	brge	.+12     	; 0x1064 <__vector_7+0x3a>
    1058:	88 23       	and	r24, r24
    105a:	e9 f0       	breq	.+58     	; 0x1096 <__vector_7+0x6c>
    105c:	81 30       	cpi	r24, 0x01	; 1
    105e:	09 f0       	breq	.+2      	; 0x1062 <__vector_7+0x38>
    1060:	27 c1       	rjmp	.+590    	; 0x12b0 <__vector_7+0x286>
    1062:	2a c0       	rjmp	.+84     	; 0x10b8 <__vector_7+0x8e>
    1064:	84 30       	cpi	r24, 0x04	; 4
    1066:	09 f4       	brne	.+2      	; 0x106a <__vector_7+0x40>
    1068:	64 c0       	rjmp	.+200    	; 0x1132 <__vector_7+0x108>
    106a:	0c f0       	brlt	.+2      	; 0x106e <__vector_7+0x44>
    106c:	73 c0       	rjmp	.+230    	; 0x1154 <__vector_7+0x12a>
    106e:	4b c0       	rjmp	.+150    	; 0x1106 <__vector_7+0xdc>
    1070:	8a 30       	cpi	r24, 0x0A	; 10
    1072:	09 f4       	brne	.+2      	; 0x1076 <__vector_7+0x4c>
    1074:	d3 c0       	rjmp	.+422    	; 0x121c <__vector_7+0x1f2>
    1076:	34 f4       	brge	.+12     	; 0x1084 <__vector_7+0x5a>
    1078:	88 30       	cpi	r24, 0x08	; 8
    107a:	09 f4       	brne	.+2      	; 0x107e <__vector_7+0x54>
    107c:	a8 c0       	rjmp	.+336    	; 0x11ce <__vector_7+0x1a4>
    107e:	0c f0       	brlt	.+2      	; 0x1082 <__vector_7+0x58>
    1080:	b7 c0       	rjmp	.+366    	; 0x11f0 <__vector_7+0x1c6>
    1082:	8f c0       	rjmp	.+286    	; 0x11a2 <__vector_7+0x178>
    1084:	8c 30       	cpi	r24, 0x0C	; 12
    1086:	09 f4       	brne	.+2      	; 0x108a <__vector_7+0x60>
    1088:	f0 c0       	rjmp	.+480    	; 0x126a <__vector_7+0x240>
    108a:	0c f4       	brge	.+2      	; 0x108e <__vector_7+0x64>
    108c:	d8 c0       	rjmp	.+432    	; 0x123e <__vector_7+0x214>
    108e:	8d 30       	cpi	r24, 0x0D	; 13
    1090:	09 f0       	breq	.+2      	; 0x1094 <__vector_7+0x6a>
    1092:	0e c1       	rjmp	.+540    	; 0x12b0 <__vector_7+0x286>
    1094:	fb c0       	rjmp	.+502    	; 0x128c <__vector_7+0x262>
	{
		// We might need to disable interrupts and enable them again...
		
		case 0:
			//cli();
			PORTB |= (1<<PB0);
    1096:	c0 9a       	sbi	0x18, 0	; 24
			OCR1A = ctrl_out[motor];
    1098:	80 91 60 00 	lds	r24, 0x0060
    109c:	90 91 61 00 	lds	r25, 0x0061
    10a0:	a0 91 62 00 	lds	r26, 0x0062
    10a4:	b0 91 63 00 	lds	r27, 0x0063
    10a8:	9b bd       	out	0x2b, r25	; 43
    10aa:	8a bd       	out	0x2a, r24	; 42
			ctrl++;		// increase the ctrl pointer
    10ac:	80 91 fb 01 	lds	r24, 0x01FB
    10b0:	8f 5f       	subi	r24, 0xFF	; 255
    10b2:	80 93 fb 01 	sts	0x01FB, r24
			//sei();
		break;
    10b6:	fc c0       	rjmp	.+504    	; 0x12b0 <__vector_7+0x286>
		
		case 1:
			//cli();
			PORTB &= ~(1<<PB0);
    10b8:	c0 98       	cbi	0x18, 0	; 24
			OCR1A = PULSE_WIDTH - ctrl_out[motor];
    10ba:	80 91 60 00 	lds	r24, 0x0060
    10be:	90 91 61 00 	lds	r25, 0x0061
    10c2:	a0 91 62 00 	lds	r26, 0x0062
    10c6:	b0 91 63 00 	lds	r27, 0x0063
    10ca:	20 ea       	ldi	r18, 0xA0	; 160
    10cc:	3f e0       	ldi	r19, 0x0F	; 15
    10ce:	a9 01       	movw	r20, r18
    10d0:	48 1b       	sub	r20, r24
    10d2:	59 0b       	sbc	r21, r25
    10d4:	5b bd       	out	0x2b, r21	; 43
    10d6:	4a bd       	out	0x2a, r20	; 42
			ctrl++;
    10d8:	80 91 fb 01 	lds	r24, 0x01FB
    10dc:	8f 5f       	subi	r24, 0xFF	; 255
    10de:	80 93 fb 01 	sts	0x01FB, r24
			//sei();
		break;
    10e2:	e6 c0       	rjmp	.+460    	; 0x12b0 <__vector_7+0x286>
		
		case 2:
			//cli();
			PORTB |= (1<<PB1);
    10e4:	c1 9a       	sbi	0x18, 1	; 24
			OCR1A = ctrl_out[aileron];
    10e6:	80 91 64 00 	lds	r24, 0x0064
    10ea:	90 91 65 00 	lds	r25, 0x0065
    10ee:	a0 91 66 00 	lds	r26, 0x0066
    10f2:	b0 91 67 00 	lds	r27, 0x0067
    10f6:	9b bd       	out	0x2b, r25	; 43
    10f8:	8a bd       	out	0x2a, r24	; 42
			ctrl++;
    10fa:	80 91 fb 01 	lds	r24, 0x01FB
    10fe:	8f 5f       	subi	r24, 0xFF	; 255
    1100:	80 93 fb 01 	sts	0x01FB, r24
			//sei();
		break;
    1104:	d5 c0       	rjmp	.+426    	; 0x12b0 <__vector_7+0x286>
		
		case 3:
			//cli();
			PORTB &= ~(1<<PB1);
    1106:	c1 98       	cbi	0x18, 1	; 24
			OCR1A = PULSE_WIDTH - ctrl_out[aileron];
    1108:	80 91 64 00 	lds	r24, 0x0064
    110c:	90 91 65 00 	lds	r25, 0x0065
    1110:	a0 91 66 00 	lds	r26, 0x0066
    1114:	b0 91 67 00 	lds	r27, 0x0067
    1118:	20 ea       	ldi	r18, 0xA0	; 160
    111a:	3f e0       	ldi	r19, 0x0F	; 15
    111c:	a9 01       	movw	r20, r18
    111e:	48 1b       	sub	r20, r24
    1120:	59 0b       	sbc	r21, r25
    1122:	5b bd       	out	0x2b, r21	; 43
    1124:	4a bd       	out	0x2a, r20	; 42
			ctrl++;
    1126:	80 91 fb 01 	lds	r24, 0x01FB
    112a:	8f 5f       	subi	r24, 0xFF	; 255
    112c:	80 93 fb 01 	sts	0x01FB, r24
			//sei();
		break;
    1130:	bf c0       	rjmp	.+382    	; 0x12b0 <__vector_7+0x286>
		
		case 4:
			//cli();
			PORTB |= (1<<PB2);
    1132:	c2 9a       	sbi	0x18, 2	; 24
			OCR1A = ctrl_out[elevator];
    1134:	80 91 68 00 	lds	r24, 0x0068
    1138:	90 91 69 00 	lds	r25, 0x0069
    113c:	a0 91 6a 00 	lds	r26, 0x006A
    1140:	b0 91 6b 00 	lds	r27, 0x006B
    1144:	9b bd       	out	0x2b, r25	; 43
    1146:	8a bd       	out	0x2a, r24	; 42
			ctrl++;
    1148:	80 91 fb 01 	lds	r24, 0x01FB
    114c:	8f 5f       	subi	r24, 0xFF	; 255
    114e:	80 93 fb 01 	sts	0x01FB, r24
			//sei();
		break;
    1152:	ae c0       	rjmp	.+348    	; 0x12b0 <__vector_7+0x286>
		
		case 5:
			//cli();
			PORTB &= ~(1<<PB2);
    1154:	c2 98       	cbi	0x18, 2	; 24
			OCR1A = PULSE_WIDTH - ctrl_out[elevator];
    1156:	80 91 68 00 	lds	r24, 0x0068
    115a:	90 91 69 00 	lds	r25, 0x0069
    115e:	a0 91 6a 00 	lds	r26, 0x006A
    1162:	b0 91 6b 00 	lds	r27, 0x006B
    1166:	20 ea       	ldi	r18, 0xA0	; 160
    1168:	3f e0       	ldi	r19, 0x0F	; 15
    116a:	a9 01       	movw	r20, r18
    116c:	48 1b       	sub	r20, r24
    116e:	59 0b       	sbc	r21, r25
    1170:	5b bd       	out	0x2b, r21	; 43
    1172:	4a bd       	out	0x2a, r20	; 42
			ctrl++;
    1174:	80 91 fb 01 	lds	r24, 0x01FB
    1178:	8f 5f       	subi	r24, 0xFF	; 255
    117a:	80 93 fb 01 	sts	0x01FB, r24
			//sei();
		break;
    117e:	98 c0       	rjmp	.+304    	; 0x12b0 <__vector_7+0x286>
		
		case 6:
			//cli();
			PORTB |= (1<<PB3);
    1180:	c3 9a       	sbi	0x18, 3	; 24
			OCR1A = ctrl_out[rudder];
    1182:	80 91 6c 00 	lds	r24, 0x006C
    1186:	90 91 6d 00 	lds	r25, 0x006D
    118a:	a0 91 6e 00 	lds	r26, 0x006E
    118e:	b0 91 6f 00 	lds	r27, 0x006F
    1192:	9b bd       	out	0x2b, r25	; 43
    1194:	8a bd       	out	0x2a, r24	; 42
			ctrl++;
    1196:	80 91 fb 01 	lds	r24, 0x01FB
    119a:	8f 5f       	subi	r24, 0xFF	; 255
    119c:	80 93 fb 01 	sts	0x01FB, r24
			//sei();
		break;
    11a0:	87 c0       	rjmp	.+270    	; 0x12b0 <__vector_7+0x286>
		
		case 7:
			//cli();
			PORTB &= ~(1<<PB3);
    11a2:	c3 98       	cbi	0x18, 3	; 24
			OCR1A = PULSE_WIDTH - ctrl_out[rudder];
    11a4:	80 91 6c 00 	lds	r24, 0x006C
    11a8:	90 91 6d 00 	lds	r25, 0x006D
    11ac:	a0 91 6e 00 	lds	r26, 0x006E
    11b0:	b0 91 6f 00 	lds	r27, 0x006F
    11b4:	20 ea       	ldi	r18, 0xA0	; 160
    11b6:	3f e0       	ldi	r19, 0x0F	; 15
    11b8:	a9 01       	movw	r20, r18
    11ba:	48 1b       	sub	r20, r24
    11bc:	59 0b       	sbc	r21, r25
    11be:	5b bd       	out	0x2b, r21	; 43
    11c0:	4a bd       	out	0x2a, r20	; 42
			ctrl++;
    11c2:	80 91 fb 01 	lds	r24, 0x01FB
    11c6:	8f 5f       	subi	r24, 0xFF	; 255
    11c8:	80 93 fb 01 	sts	0x01FB, r24
			//sei();
		break;
    11cc:	71 c0       	rjmp	.+226    	; 0x12b0 <__vector_7+0x286>
		
		case 8:
			//cli();
			PORTB |= (1<<PB4);
    11ce:	c4 9a       	sbi	0x18, 4	; 24
			OCR1A = ctrl_out[flap];
    11d0:	80 91 70 00 	lds	r24, 0x0070
    11d4:	90 91 71 00 	lds	r25, 0x0071
    11d8:	a0 91 72 00 	lds	r26, 0x0072
    11dc:	b0 91 73 00 	lds	r27, 0x0073
    11e0:	9b bd       	out	0x2b, r25	; 43
    11e2:	8a bd       	out	0x2a, r24	; 42
			ctrl++;
    11e4:	80 91 fb 01 	lds	r24, 0x01FB
    11e8:	8f 5f       	subi	r24, 0xFF	; 255
    11ea:	80 93 fb 01 	sts	0x01FB, r24
			//sei();
		break;
    11ee:	60 c0       	rjmp	.+192    	; 0x12b0 <__vector_7+0x286>
		
		case 9:
			//cli();
			PORTB &= ~(1<<PB4);
    11f0:	c4 98       	cbi	0x18, 4	; 24
			OCR1A = PULSE_WIDTH - ctrl_out[flap];
    11f2:	80 91 70 00 	lds	r24, 0x0070
    11f6:	90 91 71 00 	lds	r25, 0x0071
    11fa:	a0 91 72 00 	lds	r26, 0x0072
    11fe:	b0 91 73 00 	lds	r27, 0x0073
    1202:	20 ea       	ldi	r18, 0xA0	; 160
    1204:	3f e0       	ldi	r19, 0x0F	; 15
    1206:	a9 01       	movw	r20, r18
    1208:	48 1b       	sub	r20, r24
    120a:	59 0b       	sbc	r21, r25
    120c:	5b bd       	out	0x2b, r21	; 43
    120e:	4a bd       	out	0x2a, r20	; 42
			ctrl++;
    1210:	80 91 fb 01 	lds	r24, 0x01FB
    1214:	8f 5f       	subi	r24, 0xFF	; 255
    1216:	80 93 fb 01 	sts	0x01FB, r24
			//sei();
		break;
    121a:	4a c0       	rjmp	.+148    	; 0x12b0 <__vector_7+0x286>
		
		case 10:
			//Pull Up Channel 6	// Camera Servo around Y Axis
			PORTA |= (1<<PA0);
    121c:	d8 9a       	sbi	0x1b, 0	; 27
			OCR1A = ctrl_out[camera_y];
    121e:	80 91 74 00 	lds	r24, 0x0074
    1222:	90 91 75 00 	lds	r25, 0x0075
    1226:	a0 91 76 00 	lds	r26, 0x0076
    122a:	b0 91 77 00 	lds	r27, 0x0077
    122e:	9b bd       	out	0x2b, r25	; 43
    1230:	8a bd       	out	0x2a, r24	; 42
			ctrl++;
    1232:	80 91 fb 01 	lds	r24, 0x01FB
    1236:	8f 5f       	subi	r24, 0xFF	; 255
    1238:	80 93 fb 01 	sts	0x01FB, r24
		break;
    123c:	39 c0       	rjmp	.+114    	; 0x12b0 <__vector_7+0x286>
		
		case 11:
			//Pull Dn Channel 6
			PORTA &= ~(1<<PA0);
    123e:	d8 98       	cbi	0x1b, 0	; 27
			OCR1A = PULSE_WIDTH - ctrl_out[camera_y];
    1240:	80 91 74 00 	lds	r24, 0x0074
    1244:	90 91 75 00 	lds	r25, 0x0075
    1248:	a0 91 76 00 	lds	r26, 0x0076
    124c:	b0 91 77 00 	lds	r27, 0x0077
    1250:	20 ea       	ldi	r18, 0xA0	; 160
    1252:	3f e0       	ldi	r19, 0x0F	; 15
    1254:	a9 01       	movw	r20, r18
    1256:	48 1b       	sub	r20, r24
    1258:	59 0b       	sbc	r21, r25
    125a:	5b bd       	out	0x2b, r21	; 43
    125c:	4a bd       	out	0x2a, r20	; 42
			ctrl++;
    125e:	80 91 fb 01 	lds	r24, 0x01FB
    1262:	8f 5f       	subi	r24, 0xFF	; 255
    1264:	80 93 fb 01 	sts	0x01FB, r24
		break;
    1268:	23 c0       	rjmp	.+70     	; 0x12b0 <__vector_7+0x286>
		
		case 12:
			//Pull Up Channel 7 // Camera Servo Z Axis
			PORTA |= (1<<PA1);
    126a:	d9 9a       	sbi	0x1b, 1	; 27
			OCR1A = ctrl_out[camera_z];	
    126c:	80 91 78 00 	lds	r24, 0x0078
    1270:	90 91 79 00 	lds	r25, 0x0079
    1274:	a0 91 7a 00 	lds	r26, 0x007A
    1278:	b0 91 7b 00 	lds	r27, 0x007B
    127c:	9b bd       	out	0x2b, r25	; 43
    127e:	8a bd       	out	0x2a, r24	; 42
			ctrl++;
    1280:	80 91 fb 01 	lds	r24, 0x01FB
    1284:	8f 5f       	subi	r24, 0xFF	; 255
    1286:	80 93 fb 01 	sts	0x01FB, r24
		break;
    128a:	12 c0       	rjmp	.+36     	; 0x12b0 <__vector_7+0x286>
				
		case 13:
			//Pull Dn Channel 7
			PORTA &= ~(1<<PA1);
    128c:	d9 98       	cbi	0x1b, 1	; 27
			OCR1A = PULSE_WIDTH - ctrl_out[camera_z];
    128e:	80 91 78 00 	lds	r24, 0x0078
    1292:	90 91 79 00 	lds	r25, 0x0079
    1296:	a0 91 7a 00 	lds	r26, 0x007A
    129a:	b0 91 7b 00 	lds	r27, 0x007B
    129e:	20 ea       	ldi	r18, 0xA0	; 160
    12a0:	3f e0       	ldi	r19, 0x0F	; 15
    12a2:	a9 01       	movw	r20, r18
    12a4:	48 1b       	sub	r20, r24
    12a6:	59 0b       	sbc	r21, r25
    12a8:	5b bd       	out	0x2b, r21	; 43
    12aa:	4a bd       	out	0x2a, r20	; 42
			ctrl = 0;	//resetting the ctrl channel
    12ac:	10 92 fb 01 	sts	0x01FB, r1
		break;
						
	}
	
}
    12b0:	bf 91       	pop	r27
    12b2:	af 91       	pop	r26
    12b4:	9f 91       	pop	r25
    12b6:	8f 91       	pop	r24
    12b8:	5f 91       	pop	r21
    12ba:	4f 91       	pop	r20
    12bc:	3f 91       	pop	r19
    12be:	2f 91       	pop	r18
    12c0:	0f 90       	pop	r0
    12c2:	0f be       	out	0x3f, r0	; 63
    12c4:	0f 90       	pop	r0
    12c6:	1f 90       	pop	r1
    12c8:	18 95       	reti

000012ca <__vector_1>:

ISR(INT0_vect)
{
    12ca:	1f 92       	push	r1
    12cc:	0f 92       	push	r0
    12ce:	0f b6       	in	r0, 0x3f	; 63
    12d0:	0f 92       	push	r0
    12d2:	11 24       	eor	r1, r1
    12d4:	2f 93       	push	r18
    12d6:	8f 93       	push	r24
    12d8:	9f 93       	push	r25
    12da:	ef 93       	push	r30
    12dc:	ff 93       	push	r31
	if(first_pulse == TRUE)
    12de:	80 91 f8 01 	lds	r24, 0x01F8
    12e2:	90 91 f9 01 	lds	r25, 0x01F9
    12e6:	01 97       	sbiw	r24, 0x01	; 1
    12e8:	29 f4       	brne	.+10     	; 0x12f4 <__vector_1+0x2a>
	{
		first_pulse = FALSE;
    12ea:	10 92 f9 01 	sts	0x01F9, r1
    12ee:	10 92 f8 01 	sts	0x01F8, r1
    12f2:	0f c0       	rjmp	.+30     	; 0x1312 <__vector_1+0x48>
	}
	else
	{
		//write_ubyte_ln(channel);
		ctrl_in[channel] = TCNT2;
    12f4:	20 91 fa 01 	lds	r18, 0x01FA
    12f8:	e2 2f       	mov	r30, r18
    12fa:	f0 e0       	ldi	r31, 0x00	; 0
    12fc:	84 b5       	in	r24, 0x24	; 36
    12fe:	90 e0       	ldi	r25, 0x00	; 0
    1300:	ee 0f       	add	r30, r30
    1302:	ff 1f       	adc	r31, r31
    1304:	ec 5c       	subi	r30, 0xCC	; 204
    1306:	fd 4f       	sbci	r31, 0xFD	; 253
    1308:	91 83       	std	Z+1, r25	; 0x01
    130a:	80 83       	st	Z, r24
		channel++;
    130c:	2f 5f       	subi	r18, 0xFF	; 255
    130e:	20 93 fa 01 	sts	0x01FA, r18
	}
	TCNT2 = 0;
    1312:	14 bc       	out	0x24, r1	; 36
}
    1314:	ff 91       	pop	r31
    1316:	ef 91       	pop	r30
    1318:	9f 91       	pop	r25
    131a:	8f 91       	pop	r24
    131c:	2f 91       	pop	r18
    131e:	0f 90       	pop	r0
    1320:	0f be       	out	0x3f, r0	; 63
    1322:	0f 90       	pop	r0
    1324:	1f 90       	pop	r1
    1326:	18 95       	reti

00001328 <__vector_5>:

ISR(TIMER2_OVF_vect)
{
    1328:	1f 92       	push	r1
    132a:	0f 92       	push	r0
    132c:	0f b6       	in	r0, 0x3f	; 63
    132e:	0f 92       	push	r0
    1330:	11 24       	eor	r1, r1
    1332:	8f 93       	push	r24
    1334:	9f 93       	push	r25
	channel = 0;
    1336:	10 92 fa 01 	sts	0x01FA, r1
	first_pulse = TRUE;
    133a:	81 e0       	ldi	r24, 0x01	; 1
    133c:	90 e0       	ldi	r25, 0x00	; 0
    133e:	90 93 f9 01 	sts	0x01F9, r25
    1342:	80 93 f8 01 	sts	0x01F8, r24
	//write_string_ln("OVF");
    1346:	9f 91       	pop	r25
    1348:	8f 91       	pop	r24
    134a:	0f 90       	pop	r0
    134c:	0f be       	out	0x3f, r0	; 63
    134e:	0f 90       	pop	r0
    1350:	1f 90       	pop	r1
    1352:	18 95       	reti

00001354 <Task_Timer>:
	// WGM Bits: Define CTC mode
	// CS Bits: Prescaler of 1024 selected
	// desired Frequency: 50Hz => period of 20ms
	// FCPU = 12MHz
	// Steps for clearing the timer: (F_CPU/Prescaler)/(Freq) = 234
	TCCR0 = (0 << FOC0)|(0 << WGM00)|(0 << COM01)|(0 << COM00)|(1 << WGM01)|(1 << CS02)|(0 << CS01)|(1 << CS00);
    1354:	8d e0       	ldi	r24, 0x0D	; 13
    1356:	83 bf       	out	0x33, r24	; 51
	// Corrected: Using the ISR to count up. Therefore multiples of the timer OCR value are possible
	// with OCR0 as 195 => 16,6ms count up time => if counter = 3 then 50ms task time to be realised
	
	// Update: want to achieve 20ms to get better resolution...Using 10 ms time and counter to count 2 times...
	// 10 ms -> 117 count value, in the interrupt count til 2!
	OCR0 = 117;//0x75;
    1358:	85 e7       	ldi	r24, 0x75	; 117
    135a:	8c bf       	out	0x3c, r24	; 60
	sample_time = 0.03;	// ALWAYS change when changing the task time!
    135c:	8f e8       	ldi	r24, 0x8F	; 143
    135e:	92 ec       	ldi	r25, 0xC2	; 194
    1360:	a5 ef       	ldi	r26, 0xF5	; 245
    1362:	bc e3       	ldi	r27, 0x3C	; 60
    1364:	80 93 46 02 	sts	0x0246, r24
    1368:	90 93 47 02 	sts	0x0247, r25
    136c:	a0 93 48 02 	sts	0x0248, r26
    1370:	b0 93 49 02 	sts	0x0249, r27
	write_string_ln("TaskTimerStarted");
    1374:	81 ee       	ldi	r24, 0xE1	; 225
    1376:	90 e0       	ldi	r25, 0x00	; 0
    1378:	0e 94 f1 1b 	call	0x37e2	; 0x37e2 <write_string_ln>
    137c:	08 95       	ret

0000137e <__vector_10>:
}	

ISR(TIMER0_COMP_vect)
{
    137e:	1f 92       	push	r1
    1380:	0f 92       	push	r0
    1382:	0f b6       	in	r0, 0x3f	; 63
    1384:	0f 92       	push	r0
    1386:	11 24       	eor	r1, r1
    1388:	8f 93       	push	r24
	comp_count++;
    138a:	80 91 4a 02 	lds	r24, 0x024A
    138e:	8f 5f       	subi	r24, 0xFF	; 255
    1390:	80 93 4a 02 	sts	0x024A, r24
	if (comp_count >= 3)	// This gives multiple of 10ms	-> Change sample time accordingly
    1394:	83 30       	cpi	r24, 0x03	; 3
    1396:	28 f0       	brcs	.+10     	; 0x13a2 <__vector_10+0x24>
	{
		// Setting the task flag
		task_flag = 1;
    1398:	81 e0       	ldi	r24, 0x01	; 1
    139a:	80 93 4b 02 	sts	0x024B, r24
		comp_count = 0; // Resetting comp count
    139e:	10 92 4a 02 	sts	0x024A, r1
	}
	
}
    13a2:	8f 91       	pop	r24
    13a4:	0f 90       	pop	r0
    13a6:	0f be       	out	0x3f, r0	; 63
    13a8:	0f 90       	pop	r0
    13aa:	1f 90       	pop	r1
    13ac:	18 95       	reti

000013ae <WDT_on>:
// Enabling the Watchdog
void WDT_on(void)
{
	// Set the Watchdog Enable Bit
	// Seting the Prescaler Bits: 101 will give around 0.5 seconds timeout
		WDTCR |= (1<<WDE)|(1<<WDP2)|(0<<WDP1)|(1<<WDP0);
    13ae:	81 b5       	in	r24, 0x21	; 33
    13b0:	8d 60       	ori	r24, 0x0D	; 13
    13b2:	81 bd       	out	0x21, r24	; 33
    13b4:	08 95       	ret

000013b6 <atol_new>:
}
//-----------------------------------


// Ascii to integer
uint32_t atol_new(const char* str) {
    13b6:	0f 93       	push	r16
    13b8:	1f 93       	push	r17
	uint32_t num = 0;
	char digit;
	while ((digit = *str++) != '\0') {
    13ba:	fc 01       	movw	r30, r24
    13bc:	41 91       	ld	r20, Z+
    13be:	44 23       	and	r20, r20
    13c0:	81 f1       	breq	.+96     	; 0x1422 <atol_new+0x6c>
		if (digit < '0' || digit > '9') {
    13c2:	84 2f       	mov	r24, r20
    13c4:	80 53       	subi	r24, 0x30	; 48
    13c6:	8a 30       	cpi	r24, 0x0A	; 10
    13c8:	80 f5       	brcc	.+96     	; 0x142a <atol_new+0x74>
//-----------------------------------


// Ascii to integer
uint32_t atol_new(const char* str) {
	uint32_t num = 0;
    13ca:	00 e0       	ldi	r16, 0x00	; 0
    13cc:	10 e0       	ldi	r17, 0x00	; 0
    13ce:	98 01       	movw	r18, r16
    13d0:	04 c0       	rjmp	.+8      	; 0x13da <atol_new+0x24>
	char digit;
	while ((digit = *str++) != '\0') {
		if (digit < '0' || digit > '9') {
    13d2:	84 2f       	mov	r24, r20
    13d4:	80 53       	subi	r24, 0x30	; 48
    13d6:	8a 30       	cpi	r24, 0x0A	; 10
    13d8:	58 f5       	brcc	.+86     	; 0x1430 <atol_new+0x7a>
			return num;  /* No valid conversion possible */
		}
		num *= 10;
    13da:	d9 01       	movw	r26, r18
    13dc:	c8 01       	movw	r24, r16
    13de:	88 0f       	add	r24, r24
    13e0:	99 1f       	adc	r25, r25
    13e2:	aa 1f       	adc	r26, r26
    13e4:	bb 1f       	adc	r27, r27
    13e6:	8c 01       	movw	r16, r24
    13e8:	9d 01       	movw	r18, r26
    13ea:	00 0f       	add	r16, r16
    13ec:	11 1f       	adc	r17, r17
    13ee:	22 1f       	adc	r18, r18
    13f0:	33 1f       	adc	r19, r19
    13f2:	00 0f       	add	r16, r16
    13f4:	11 1f       	adc	r17, r17
    13f6:	22 1f       	adc	r18, r18
    13f8:	33 1f       	adc	r19, r19
    13fa:	80 0f       	add	r24, r16
    13fc:	91 1f       	adc	r25, r17
    13fe:	a2 1f       	adc	r26, r18
    1400:	b3 1f       	adc	r27, r19
		num += digit - '0';
    1402:	04 2f       	mov	r16, r20
    1404:	10 e0       	ldi	r17, 0x00	; 0
    1406:	00 53       	subi	r16, 0x30	; 48
    1408:	11 09       	sbc	r17, r1
    140a:	22 27       	eor	r18, r18
    140c:	17 fd       	sbrc	r17, 7
    140e:	20 95       	com	r18
    1410:	32 2f       	mov	r19, r18
    1412:	08 0f       	add	r16, r24
    1414:	19 1f       	adc	r17, r25
    1416:	2a 1f       	adc	r18, r26
    1418:	3b 1f       	adc	r19, r27

// Ascii to integer
uint32_t atol_new(const char* str) {
	uint32_t num = 0;
	char digit;
	while ((digit = *str++) != '\0') {
    141a:	41 91       	ld	r20, Z+
    141c:	41 11       	cpse	r20, r1
    141e:	d9 cf       	rjmp	.-78     	; 0x13d2 <atol_new+0x1c>
    1420:	07 c0       	rjmp	.+14     	; 0x1430 <atol_new+0x7a>
//-----------------------------------


// Ascii to integer
uint32_t atol_new(const char* str) {
	uint32_t num = 0;
    1422:	00 e0       	ldi	r16, 0x00	; 0
    1424:	10 e0       	ldi	r17, 0x00	; 0
    1426:	98 01       	movw	r18, r16
    1428:	03 c0       	rjmp	.+6      	; 0x1430 <atol_new+0x7a>
    142a:	00 e0       	ldi	r16, 0x00	; 0
    142c:	10 e0       	ldi	r17, 0x00	; 0
    142e:	98 01       	movw	r18, r16
		}
		num *= 10;
		num += digit - '0';
	}
	return num;
}
    1430:	60 2f       	mov	r22, r16
    1432:	71 2f       	mov	r23, r17
    1434:	82 2f       	mov	r24, r18
    1436:	93 2f       	mov	r25, r19
    1438:	1f 91       	pop	r17
    143a:	0f 91       	pop	r16
    143c:	08 95       	ret

0000143e <main>:

//-----------------------------------


int main(void)
{	
    143e:	cf 93       	push	r28
    1440:	df 93       	push	r29
    1442:	cd b7       	in	r28, 0x3d	; 61
    1444:	de b7       	in	r29, 0x3e	; 62
    1446:	c5 55       	subi	r28, 0x55	; 85
    1448:	d1 09       	sbc	r29, r1
    144a:	0f b6       	in	r0, 0x3f	; 63
    144c:	f8 94       	cli
    144e:	de bf       	out	0x3e, r29	; 62
    1450:	0f be       	out	0x3f, r0	; 63
    1452:	cd bf       	out	0x3d, r28	; 61

	// Initializing
	init_uart();
    1454:	0e 94 5e 1b 	call	0x36bc	; 0x36bc <init_uart>
	
	// Checking the Reset Status
	if (MCUCSR & (1<<WDRF)) write_string("WdogRst");
    1458:	04 b6       	in	r0, 0x34	; 52
    145a:	03 fe       	sbrs	r0, 3
    145c:	05 c0       	rjmp	.+10     	; 0x1468 <main+0x2a>
    145e:	8d ef       	ldi	r24, 0xFD	; 253
    1460:	90 e0       	ldi	r25, 0x00	; 0
    1462:	0e 94 e1 1b 	call	0x37c2	; 0x37c2 <write_string>
    1466:	1e c0       	rjmp	.+60     	; 0x14a4 <main+0x66>
	else if(MCUCSR & (1<<PORF)) write_string("PwrUpRst");
    1468:	04 b6       	in	r0, 0x34	; 52
    146a:	00 fe       	sbrs	r0, 0
    146c:	05 c0       	rjmp	.+10     	; 0x1478 <main+0x3a>
    146e:	85 e0       	ldi	r24, 0x05	; 5
    1470:	91 e0       	ldi	r25, 0x01	; 1
    1472:	0e 94 e1 1b 	call	0x37c2	; 0x37c2 <write_string>
    1476:	16 c0       	rjmp	.+44     	; 0x14a4 <main+0x66>
	else if(MCUCSR & (1<<BORF)) write_string("BrwnOutRst");
    1478:	04 b6       	in	r0, 0x34	; 52
    147a:	02 fe       	sbrs	r0, 2
    147c:	05 c0       	rjmp	.+10     	; 0x1488 <main+0x4a>
    147e:	8e e0       	ldi	r24, 0x0E	; 14
    1480:	91 e0       	ldi	r25, 0x01	; 1
    1482:	0e 94 e1 1b 	call	0x37c2	; 0x37c2 <write_string>
    1486:	0e c0       	rjmp	.+28     	; 0x14a4 <main+0x66>
	else if(MCUCSR & (1<<EXTRF)) write_string("ExtRst");
    1488:	04 b6       	in	r0, 0x34	; 52
    148a:	01 fe       	sbrs	r0, 1
    148c:	05 c0       	rjmp	.+10     	; 0x1498 <main+0x5a>
    148e:	89 e1       	ldi	r24, 0x19	; 25
    1490:	91 e0       	ldi	r25, 0x01	; 1
    1492:	0e 94 e1 1b 	call	0x37c2	; 0x37c2 <write_string>
    1496:	06 c0       	rjmp	.+12     	; 0x14a4 <main+0x66>
	else write_var(MCUCSR);
    1498:	64 b7       	in	r22, 0x34	; 52
    149a:	70 e0       	ldi	r23, 0x00	; 0
    149c:	80 e0       	ldi	r24, 0x00	; 0
    149e:	90 e0       	ldi	r25, 0x00	; 0
    14a0:	0e 94 05 1c 	call	0x380a	; 0x380a <write_var>
	// Resetting the Status Register
	MCUCSR &= ~((1<<WDRF)|(1<<PORF)|(1<<BORF)|(1<<EXTRF));
    14a4:	84 b7       	in	r24, 0x34	; 52
    14a6:	80 7f       	andi	r24, 0xF0	; 240
    14a8:	84 bf       	out	0x34, r24	; 52
    14aa:	2f e7       	ldi	r18, 0x7F	; 127
    14ac:	3f e4       	ldi	r19, 0x4F	; 79
    14ae:	82 e1       	ldi	r24, 0x12	; 18
    14b0:	21 50       	subi	r18, 0x01	; 1
    14b2:	30 40       	sbci	r19, 0x00	; 0
    14b4:	80 40       	sbci	r24, 0x00	; 0
    14b6:	e1 f7       	brne	.-8      	; 0x14b0 <main+0x72>
    14b8:	00 c0       	rjmp	.+0      	; 0x14ba <main+0x7c>
    14ba:	00 00       	nop
	_delay_ms(500);
	
	// Initialize I2C communication
	i2c_initialize();
    14bc:	0e 94 7c 07 	call	0xef8	; 0xef8 <i2c_initialize>
		
	if(TASK_GYRO == TRUE)	
	{
		gyro_start();
    14c0:	0e 94 3c 01 	call	0x278	; 0x278 <gyro_start>
		gyro_calibration();
    14c4:	0e 94 23 02 	call	0x446	; 0x446 <gyro_calibration>
	}		
	if(TASK_ACC == TRUE)	acc_start();
    14c8:	0e 94 77 00 	call	0xee	; 0xee <acc_start>
		ADC_start();
	}		
	// OLED
 	if (TASK_OLED == TRUE)
	{
		OLED_init();
    14cc:	0e 94 e1 02 	call	0x5c2	; 0x5c2 <OLED_init>
		OLED_clear();
    14d0:	0e 94 0f 03 	call	0x61e	; 0x61e <OLED_clear>
		OLED_page(0);
    14d4:	80 e0       	ldi	r24, 0x00	; 0
    14d6:	0e 94 ab 04 	call	0x956	; 0x956 <OLED_page>
// 		OLED_send_string("LON");
	}
	
	
	// Starting the Servo PWM signal setting
	cli();	// disable interrupts
    14da:	f8 94       	cli
	Task_Timer();
    14dc:	0e 94 aa 09 	call	0x1354	; 0x1354 <Task_Timer>
	servo_init();
    14e0:	0e 94 f6 07 	call	0xfec	; 0xfec <servo_init>
	// setting all needed timers to Interrupt mode
	TIMSK  = (0<<TICIE1)|(1<<OCIE1A)|(0<<OCIE1B)|(0<<TOIE1)|(1<<OCIE0)|(1<<TOIE2);
    14e4:	82 e5       	ldi	r24, 0x52	; 82
    14e6:	89 bf       	out	0x39, r24	; 57
	sei();	//enable interrupts
    14e8:	78 94       	sei
	
	
				
	// Turn On the Watchdog
	WDT_on();
    14ea:	0e 94 d7 09 	call	0x13ae	; 0x13ae <WDT_on>
	
	// Define Navigation Lights Output Port D
	DDRD |= (1<<PD4)|(1<<PD5)|(1<<PD6)|(1<<PD7);
    14ee:	81 b3       	in	r24, 0x11	; 17
    14f0:	80 6f       	ori	r24, 0xF0	; 240
    14f2:	81 bb       	out	0x11, r24	; 17
	// Turn off LEDs at instance
	PORTD &= ~((1<<PD4)|(1<<PD5)|(1<<PD6)|(1<<PD7));
    14f4:	82 b3       	in	r24, 0x12	; 18
    14f6:	8f 70       	andi	r24, 0x0F	; 15
    14f8:	82 bb       	out	0x12, r24	; 18
	
	// Turn on Light for check
	PORTD |= (1<<PD4);
    14fa:	94 9a       	sbi	0x12, 4	; 18
		
	while(1)
    {
			// Program Code (infinite loop)
			
			if(UART_READY_FLAG == TRUE)
    14fc:	80 91 b3 02 	lds	r24, 0x02B3
    1500:	81 30       	cpi	r24, 0x01	; 1
    1502:	b1 f5       	brne	.+108    	; 0x1570 <main+0x132>
			{
				if(strcmp(GPS_string[0],"GPRMC")==0)
    1504:	60 e2       	ldi	r22, 0x20	; 32
    1506:	71 e0       	ldi	r23, 0x01	; 1
    1508:	87 e1       	ldi	r24, 0x17	; 23
    150a:	94 e0       	ldi	r25, 0x04	; 4
    150c:	0e 94 3b 1f 	call	0x3e76	; 0x3e76 <strcmp>
    1510:	28 2f       	mov	r18, r24
    1512:	39 2f       	mov	r19, r25
    1514:	23 2b       	or	r18, r19
    1516:	81 f4       	brne	.+32     	; 0x1538 <main+0xfa>
				{
					memcpy(GPS_RMC,GPS_string,sizeof(GPS_RMC));
    1518:	e7 e1       	ldi	r30, 0x17	; 23
    151a:	f4 e0       	ldi	r31, 0x04	; 4
    151c:	a4 eb       	ldi	r26, 0xB4	; 180
    151e:	b2 e0       	ldi	r27, 0x02	; 2
    1520:	80 eb       	ldi	r24, 0xB0	; 176
    1522:	01 90       	ld	r0, Z+
    1524:	0d 92       	st	X+, r0
    1526:	8a 95       	dec	r24
    1528:	e1 f7       	brne	.-8      	; 0x1522 <main+0xe4>
					memset(GPS_string,0,sizeof(GPS_string));
    152a:	e7 e1       	ldi	r30, 0x17	; 23
    152c:	f4 e0       	ldi	r31, 0x04	; 4
    152e:	df 01       	movw	r26, r30
    1530:	20 eb       	ldi	r18, 0xB0	; 176
    1532:	1d 92       	st	X+, r1
    1534:	2a 95       	dec	r18
    1536:	e9 f7       	brne	.-6      	; 0x1532 <main+0xf4>
					
				}
				if(strcmp(GPS_string[0],"GPGGA")==0)
    1538:	66 e2       	ldi	r22, 0x26	; 38
    153a:	71 e0       	ldi	r23, 0x01	; 1
    153c:	87 e1       	ldi	r24, 0x17	; 23
    153e:	94 e0       	ldi	r25, 0x04	; 4
    1540:	0e 94 3b 1f 	call	0x3e76	; 0x3e76 <strcmp>
    1544:	28 2f       	mov	r18, r24
    1546:	39 2f       	mov	r19, r25
    1548:	23 2b       	or	r18, r19
    154a:	81 f4       	brne	.+32     	; 0x156c <main+0x12e>
				{
					memcpy(GPS_GGA,GPS_string,sizeof(GPS_GGA));
    154c:	e7 e1       	ldi	r30, 0x17	; 23
    154e:	f4 e0       	ldi	r31, 0x04	; 4
    1550:	a4 e6       	ldi	r26, 0x64	; 100
    1552:	b3 e0       	ldi	r27, 0x03	; 3
    1554:	80 eb       	ldi	r24, 0xB0	; 176
    1556:	01 90       	ld	r0, Z+
    1558:	0d 92       	st	X+, r0
    155a:	8a 95       	dec	r24
    155c:	e1 f7       	brne	.-8      	; 0x1556 <main+0x118>
					memset(GPS_string,0,sizeof(GPS_string));
    155e:	e7 e1       	ldi	r30, 0x17	; 23
    1560:	f4 e0       	ldi	r31, 0x04	; 4
    1562:	df 01       	movw	r26, r30
    1564:	20 eb       	ldi	r18, 0xB0	; 176
    1566:	1d 92       	st	X+, r1
    1568:	2a 95       	dec	r18
    156a:	e9 f7       	brne	.-6      	; 0x1566 <main+0x128>
				}
				/*
				write_string_ln(GPS_RMC[GPS_RMC_GROUNDSPEED]);
				write_string_ln(GPS_GGA[GPS_GGA_ALTMSL]);
				*/
				UART_READY_FLAG = FALSE;
    156c:	10 92 b3 02 	sts	0x02B3, r1
			}
			
			if(task_flag == 1)
    1570:	80 91 4b 02 	lds	r24, 0x024B
    1574:	81 30       	cpi	r24, 0x01	; 1
    1576:	11 f0       	breq	.+4      	; 0x157c <main+0x13e>
    1578:	0c 94 5b 1b 	jmp	0x36b6	; 0x36b6 <main+0x2278>
			{
				// Resetting the task call:
				task_flag = 0;
    157c:	10 92 4b 02 	sts	0x024B, r1
				// Defining struct to read the gyro channels
				struct three_elements_obj turn_rate;
				if(TASK_GYRO == TRUE)	
				{
					// turn rates
					turn_rate = gyro_read();
    1580:	ce 01       	movw	r24, r28
    1582:	0d 96       	adiw	r24, 0x0d	; 13
    1584:	0e 94 4d 01 	call	0x29a	; 0x29a <gyro_read>
					// result in degrees per second
					p_raw = turn_rate.p;
    1588:	2d 85       	ldd	r18, Y+13	; 0x0d
    158a:	20 93 64 05 	sts	0x0564, r18
					q_raw = turn_rate.q;
    158e:	99 89       	ldd	r25, Y+17	; 0x11
    1590:	90 93 97 05 	sts	0x0597, r25
					r_raw = turn_rate.r;
    1594:	8d 89       	ldd	r24, Y+21	; 0x15
    1596:	80 93 58 05 	sts	0x0558, r24
					// low pass filter on the turn rates
					p_filt = p_raw;// * (1-alpha_turn) + (alpha_turn*p_filt);
    159a:	20 93 82 05 	sts	0x0582, r18
					q_filt = q_raw;// * (1-alpha_turn) + (alpha_turn*q_filt);
    159e:	90 93 6f 05 	sts	0x056F, r25
					r_filt = r_raw;// * (1-alpha_turn) + (alpha_turn*r_filt);
    15a2:	80 93 91 02 	sts	0x0291, r24
				
				}
				struct acc_readings_obj acc_val;
				if(TASK_ACC == TRUE)	
				{
					acc_val = acc_reading();
    15a6:	ce 01       	movw	r24, r28
    15a8:	01 96       	adiw	r24, 0x01	; 1
    15aa:	0e 94 84 00 	call	0x108	; 0x108 <acc_reading>
					acc_x_raw = acc_val.a_x;
    15ae:	09 81       	ldd	r16, Y+1	; 0x01
    15b0:	1a 81       	ldd	r17, Y+2	; 0x02
    15b2:	10 93 5b 05 	sts	0x055B, r17
    15b6:	00 93 5a 05 	sts	0x055A, r16
					acc_y_raw = acc_val.a_y;
    15ba:	ed 80       	ldd	r14, Y+5	; 0x05
    15bc:	fe 80       	ldd	r15, Y+6	; 0x06
    15be:	f0 92 90 05 	sts	0x0590, r15
    15c2:	e0 92 8f 05 	sts	0x058F, r14
					acc_z_raw = acc_val.a_z;
    15c6:	69 85       	ldd	r22, Y+9	; 0x09
    15c8:	7a 85       	ldd	r23, Y+10	; 0x0a
    15ca:	70 93 6a 05 	sts	0x056A, r23
    15ce:	60 93 69 05 	sts	0x0569, r22
					Theta_acc = atan2(acc_x_raw,-acc_z_raw)*180/PI;
    15d2:	71 95       	neg	r23
    15d4:	61 95       	neg	r22
    15d6:	71 09       	sbc	r23, r1
    15d8:	88 27       	eor	r24, r24
    15da:	77 fd       	sbrc	r23, 7
    15dc:	80 95       	com	r24
    15de:	98 2f       	mov	r25, r24
    15e0:	0e 94 ab 1d 	call	0x3b56	; 0x3b56 <__floatsisf>
    15e4:	4b 01       	movw	r8, r22
    15e6:	5c 01       	movw	r10, r24
    15e8:	b8 01       	movw	r22, r16
    15ea:	88 27       	eor	r24, r24
    15ec:	77 fd       	sbrc	r23, 7
    15ee:	80 95       	com	r24
    15f0:	98 2f       	mov	r25, r24
    15f2:	0e 94 ab 1d 	call	0x3b56	; 0x3b56 <__floatsisf>
    15f6:	a5 01       	movw	r20, r10
    15f8:	94 01       	movw	r18, r8
    15fa:	0e 94 b9 1c 	call	0x3972	; 0x3972 <atan2>
    15fe:	20 e0       	ldi	r18, 0x00	; 0
    1600:	30 e0       	ldi	r19, 0x00	; 0
    1602:	44 e3       	ldi	r20, 0x34	; 52
    1604:	53 e4       	ldi	r21, 0x43	; 67
    1606:	0e 94 8b 1e 	call	0x3d16	; 0x3d16 <__mulsf3>
    160a:	2b ed       	ldi	r18, 0xDB	; 219
    160c:	3f e0       	ldi	r19, 0x0F	; 15
    160e:	49 e4       	ldi	r20, 0x49	; 73
    1610:	50 e4       	ldi	r21, 0x40	; 64
    1612:	0e 94 10 1d 	call	0x3a20	; 0x3a20 <__divsf3>
    1616:	16 2f       	mov	r17, r22
    1618:	07 2f       	mov	r16, r23
    161a:	38 2e       	mov	r3, r24
    161c:	29 2e       	mov	r2, r25
    161e:	86 2f       	mov	r24, r22
    1620:	90 2f       	mov	r25, r16
    1622:	a3 2d       	mov	r26, r3
    1624:	b2 2d       	mov	r27, r2
    1626:	80 93 79 02 	sts	0x0279, r24
    162a:	90 93 7a 02 	sts	0x027A, r25
    162e:	a0 93 7b 02 	sts	0x027B, r26
    1632:	b0 93 7c 02 	sts	0x027C, r27
					Phi_acc = atan2(-acc_y_raw,-acc_z_raw)*180/PI;
    1636:	66 27       	eor	r22, r22
    1638:	77 27       	eor	r23, r23
    163a:	6e 19       	sub	r22, r14
    163c:	7f 09       	sbc	r23, r15
    163e:	88 27       	eor	r24, r24
    1640:	77 fd       	sbrc	r23, 7
    1642:	80 95       	com	r24
    1644:	98 2f       	mov	r25, r24
    1646:	0e 94 ab 1d 	call	0x3b56	; 0x3b56 <__floatsisf>
    164a:	a5 01       	movw	r20, r10
    164c:	94 01       	movw	r18, r8
    164e:	0e 94 b9 1c 	call	0x3972	; 0x3972 <atan2>
    1652:	20 e0       	ldi	r18, 0x00	; 0
    1654:	30 e0       	ldi	r19, 0x00	; 0
    1656:	44 e3       	ldi	r20, 0x34	; 52
    1658:	53 e4       	ldi	r21, 0x43	; 67
    165a:	0e 94 8b 1e 	call	0x3d16	; 0x3d16 <__mulsf3>
    165e:	2b ed       	ldi	r18, 0xDB	; 219
    1660:	3f e0       	ldi	r19, 0x0F	; 15
    1662:	49 e4       	ldi	r20, 0x49	; 73
    1664:	50 e4       	ldi	r21, 0x40	; 64
    1666:	0e 94 10 1d 	call	0x3a20	; 0x3a20 <__divsf3>
    166a:	6d 8f       	std	Y+29, r22	; 0x1d
    166c:	7e 8f       	std	Y+30, r23	; 0x1e
    166e:	8f 8f       	std	Y+31, r24	; 0x1f
    1670:	98 a3       	std	Y+32, r25	; 0x20
    1672:	47 2f       	mov	r20, r23
    1674:	38 2f       	mov	r19, r24
    1676:	29 2f       	mov	r18, r25
    1678:	86 2f       	mov	r24, r22
    167a:	94 2f       	mov	r25, r20
    167c:	a3 2f       	mov	r26, r19
    167e:	b2 2f       	mov	r27, r18
    1680:	80 93 75 02 	sts	0x0275, r24
    1684:	90 93 76 02 	sts	0x0276, r25
    1688:	a0 93 77 02 	sts	0x0277, r26
    168c:	b0 93 78 02 	sts	0x0278, r27
				else if(ctrl_in[4]<150 && ctrl_in[4]>135) Ctrl_Mode = HOLD_CTRL;
				else if(ctrl_in[4]<160 && ctrl_in[4]>150) Ctrl_Mode = HOLD_CTRL;
				*/	
				
				// Calculating the attitude by using Kalman Filtering
				Theta += sample_time * (q_filt-q_bias);
    1690:	80 91 71 02 	lds	r24, 0x0271
    1694:	90 91 72 02 	lds	r25, 0x0272
    1698:	a0 91 73 02 	lds	r26, 0x0273
    169c:	b0 91 74 02 	lds	r27, 0x0274
    16a0:	26 96       	adiw	r28, 0x06	; 6
    16a2:	8c af       	std	Y+60, r24	; 0x3c
    16a4:	9d af       	std	Y+61, r25	; 0x3d
    16a6:	ae af       	std	Y+62, r26	; 0x3e
    16a8:	bf af       	std	Y+63, r27	; 0x3f
    16aa:	26 97       	sbiw	r28, 0x06	; 6
    16ac:	80 90 46 02 	lds	r8, 0x0246
    16b0:	90 90 47 02 	lds	r9, 0x0247
    16b4:	a0 90 48 02 	lds	r10, 0x0248
    16b8:	b0 90 49 02 	lds	r11, 0x0249
    16bc:	60 91 83 05 	lds	r22, 0x0583
    16c0:	70 91 84 05 	lds	r23, 0x0584
    16c4:	88 27       	eor	r24, r24
    16c6:	77 fd       	sbrc	r23, 7
    16c8:	80 95       	com	r24
    16ca:	98 2f       	mov	r25, r24
    16cc:	0e 94 ab 1d 	call	0x3b56	; 0x3b56 <__floatsisf>
    16d0:	6b 01       	movw	r12, r22
    16d2:	7c 01       	movw	r14, r24
    16d4:	60 91 6f 05 	lds	r22, 0x056F
    16d8:	77 27       	eor	r23, r23
    16da:	67 fd       	sbrc	r22, 7
    16dc:	70 95       	com	r23
    16de:	87 2f       	mov	r24, r23
    16e0:	97 2f       	mov	r25, r23
    16e2:	0e 94 ab 1d 	call	0x3b56	; 0x3b56 <__floatsisf>
    16e6:	26 96       	adiw	r28, 0x06	; 6
    16e8:	2c ad       	ldd	r18, Y+60	; 0x3c
    16ea:	3d ad       	ldd	r19, Y+61	; 0x3d
    16ec:	4e ad       	ldd	r20, Y+62	; 0x3e
    16ee:	5f ad       	ldd	r21, Y+63	; 0x3f
    16f0:	26 97       	sbiw	r28, 0x06	; 6
    16f2:	0e 94 45 1c 	call	0x388a	; 0x388a <__subsf3>
    16f6:	a5 01       	movw	r20, r10
    16f8:	94 01       	movw	r18, r8
    16fa:	0e 94 8b 1e 	call	0x3d16	; 0x3d16 <__mulsf3>
    16fe:	9b 01       	movw	r18, r22
    1700:	ac 01       	movw	r20, r24
    1702:	c7 01       	movw	r24, r14
    1704:	b6 01       	movw	r22, r12
    1706:	0e 94 46 1c 	call	0x388c	; 0x388c <__addsf3>
    170a:	0e 94 78 1d 	call	0x3af0	; 0x3af0 <__fixsfsi>
    170e:	7a a3       	std	Y+34, r23	; 0x22
    1710:	69 a3       	std	Y+33, r22	; 0x21
				
				P_00_Theta +=  - sample_time * ((P_10_Theta + P_01_Theta) - Q_angle);
    1712:	75 01       	movw	r14, r10
    1714:	64 01       	movw	r12, r8
    1716:	f7 fa       	bst	r15, 7
    1718:	f0 94       	com	r15
    171a:	f7 f8       	bld	r15, 7
    171c:	f0 94       	com	r15
    171e:	40 90 48 05 	lds	r4, 0x0548
    1722:	50 90 49 05 	lds	r5, 0x0549
    1726:	60 90 4a 05 	lds	r6, 0x054A
    172a:	70 90 4b 05 	lds	r7, 0x054B
    172e:	80 91 84 00 	lds	r24, 0x0084
    1732:	90 91 85 00 	lds	r25, 0x0085
    1736:	a0 91 86 00 	lds	r26, 0x0086
    173a:	b0 91 87 00 	lds	r27, 0x0087
    173e:	89 8f       	std	Y+25, r24	; 0x19
    1740:	9a 8f       	std	Y+26, r25	; 0x1a
    1742:	ab 8f       	std	Y+27, r26	; 0x1b
    1744:	bc 8f       	std	Y+28, r27	; 0x1c
    1746:	20 91 54 05 	lds	r18, 0x0554
    174a:	30 91 55 05 	lds	r19, 0x0555
    174e:	40 91 56 05 	lds	r20, 0x0556
    1752:	50 91 57 05 	lds	r21, 0x0557
    1756:	c3 01       	movw	r24, r6
    1758:	b2 01       	movw	r22, r4
    175a:	0e 94 46 1c 	call	0x388c	; 0x388c <__addsf3>
    175e:	29 8d       	ldd	r18, Y+25	; 0x19
    1760:	3a 8d       	ldd	r19, Y+26	; 0x1a
    1762:	4b 8d       	ldd	r20, Y+27	; 0x1b
    1764:	5c 8d       	ldd	r21, Y+28	; 0x1c
    1766:	0e 94 45 1c 	call	0x388a	; 0x388a <__subsf3>
    176a:	9b 01       	movw	r18, r22
    176c:	ac 01       	movw	r20, r24
    176e:	c7 01       	movw	r24, r14
    1770:	b6 01       	movw	r22, r12
    1772:	0e 94 8b 1e 	call	0x3d16	; 0x3d16 <__mulsf3>
    1776:	20 91 65 05 	lds	r18, 0x0565
    177a:	30 91 66 05 	lds	r19, 0x0566
    177e:	40 91 67 05 	lds	r20, 0x0567
    1782:	50 91 68 05 	lds	r21, 0x0568
    1786:	0e 94 46 1c 	call	0x388c	; 0x388c <__addsf3>
    178a:	6d a3       	std	Y+37, r22	; 0x25
    178c:	7e a3       	std	Y+38, r23	; 0x26
    178e:	8f a3       	std	Y+39, r24	; 0x27
    1790:	98 a7       	std	Y+40, r25	; 0x28
				P_01_Theta +=  - sample_time * P_11_Theta;
    1792:	80 91 6d 02 	lds	r24, 0x026D
    1796:	90 91 6e 02 	lds	r25, 0x026E
    179a:	a0 91 6f 02 	lds	r26, 0x026F
    179e:	b0 91 70 02 	lds	r27, 0x0270
    17a2:	2a 96       	adiw	r28, 0x0a	; 10
    17a4:	8c af       	std	Y+60, r24	; 0x3c
    17a6:	9d af       	std	Y+61, r25	; 0x3d
    17a8:	ae af       	std	Y+62, r26	; 0x3e
    17aa:	bf af       	std	Y+63, r27	; 0x3f
    17ac:	2a 97       	sbiw	r28, 0x0a	; 10
    17ae:	9c 01       	movw	r18, r24
    17b0:	ad 01       	movw	r20, r26
    17b2:	c7 01       	movw	r24, r14
    17b4:	b6 01       	movw	r22, r12
    17b6:	0e 94 8b 1e 	call	0x3d16	; 0x3d16 <__mulsf3>
    17ba:	9b 01       	movw	r18, r22
    17bc:	ac 01       	movw	r20, r24
    17be:	c3 01       	movw	r24, r6
    17c0:	b2 01       	movw	r22, r4
    17c2:	0e 94 46 1c 	call	0x388c	; 0x388c <__addsf3>
    17c6:	69 a7       	std	Y+41, r22	; 0x29
    17c8:	7a a7       	std	Y+42, r23	; 0x2a
    17ca:	8b a7       	std	Y+43, r24	; 0x2b
    17cc:	9c a7       	std	Y+44, r25	; 0x2c
				P_10_Theta = P_01_Theta;
				P_11_Theta +=  + Q_gyro * sample_time;
    17ce:	20 91 80 00 	lds	r18, 0x0080
    17d2:	30 91 81 00 	lds	r19, 0x0081
    17d6:	40 91 82 00 	lds	r20, 0x0082
    17da:	50 91 83 00 	lds	r21, 0x0083
    17de:	c5 01       	movw	r24, r10
    17e0:	b4 01       	movw	r22, r8
    17e2:	0e 94 8b 1e 	call	0x3d16	; 0x3d16 <__mulsf3>
    17e6:	63 96       	adiw	r28, 0x13	; 19
    17e8:	6f af       	std	Y+63, r22	; 0x3f
    17ea:	63 97       	sbiw	r28, 0x13	; 19
    17ec:	64 96       	adiw	r28, 0x14	; 20
    17ee:	7f af       	std	Y+63, r23	; 0x3f
    17f0:	64 97       	sbiw	r28, 0x14	; 20
    17f2:	65 96       	adiw	r28, 0x15	; 21
    17f4:	8f af       	std	Y+63, r24	; 0x3f
    17f6:	65 97       	sbiw	r28, 0x15	; 21
    17f8:	66 96       	adiw	r28, 0x16	; 22
    17fa:	9f af       	std	Y+63, r25	; 0x3f
    17fc:	66 97       	sbiw	r28, 0x16	; 22
				
				
				Phi += sample_time * (p_filt-p_bias);
    17fe:	80 91 65 02 	lds	r24, 0x0265
    1802:	90 91 66 02 	lds	r25, 0x0266
    1806:	a0 91 67 02 	lds	r26, 0x0267
    180a:	b0 91 68 02 	lds	r27, 0x0268
    180e:	2e 96       	adiw	r28, 0x0e	; 14
    1810:	8c af       	std	Y+60, r24	; 0x3c
    1812:	9d af       	std	Y+61, r25	; 0x3d
    1814:	ae af       	std	Y+62, r26	; 0x3e
    1816:	bf af       	std	Y+63, r27	; 0x3f
    1818:	2e 97       	sbiw	r28, 0x0e	; 14
    181a:	60 91 8d 02 	lds	r22, 0x028D
    181e:	70 91 8e 02 	lds	r23, 0x028E
    1822:	88 27       	eor	r24, r24
    1824:	77 fd       	sbrc	r23, 7
    1826:	80 95       	com	r24
    1828:	98 2f       	mov	r25, r24
    182a:	0e 94 ab 1d 	call	0x3b56	; 0x3b56 <__floatsisf>
    182e:	2b 01       	movw	r4, r22
    1830:	3c 01       	movw	r6, r24
    1832:	60 91 82 05 	lds	r22, 0x0582
    1836:	77 27       	eor	r23, r23
    1838:	67 fd       	sbrc	r22, 7
    183a:	70 95       	com	r23
    183c:	87 2f       	mov	r24, r23
    183e:	97 2f       	mov	r25, r23
    1840:	0e 94 ab 1d 	call	0x3b56	; 0x3b56 <__floatsisf>
    1844:	2e 96       	adiw	r28, 0x0e	; 14
    1846:	2c ad       	ldd	r18, Y+60	; 0x3c
    1848:	3d ad       	ldd	r19, Y+61	; 0x3d
    184a:	4e ad       	ldd	r20, Y+62	; 0x3e
    184c:	5f ad       	ldd	r21, Y+63	; 0x3f
    184e:	2e 97       	sbiw	r28, 0x0e	; 14
    1850:	0e 94 45 1c 	call	0x388a	; 0x388a <__subsf3>
    1854:	9b 01       	movw	r18, r22
    1856:	ac 01       	movw	r20, r24
    1858:	c5 01       	movw	r24, r10
    185a:	b4 01       	movw	r22, r8
    185c:	0e 94 8b 1e 	call	0x3d16	; 0x3d16 <__mulsf3>
    1860:	9b 01       	movw	r18, r22
    1862:	ac 01       	movw	r20, r24
    1864:	c3 01       	movw	r24, r6
    1866:	b2 01       	movw	r22, r4
    1868:	0e 94 46 1c 	call	0x388c	; 0x388c <__addsf3>
    186c:	0e 94 78 1d 	call	0x3af0	; 0x3af0 <__fixsfsi>
    1870:	7c a3       	std	Y+36, r23	; 0x24
    1872:	6b a3       	std	Y+35, r22	; 0x23
				P_00_Phi +=  - sample_time * ((P_10_Phi + P_01_Phi) - Q_angle);
    1874:	40 90 89 05 	lds	r4, 0x0589
    1878:	50 90 8a 05 	lds	r5, 0x058A
    187c:	60 90 8b 05 	lds	r6, 0x058B
    1880:	70 90 8c 05 	lds	r7, 0x058C
    1884:	20 91 85 05 	lds	r18, 0x0585
    1888:	30 91 86 05 	lds	r19, 0x0586
    188c:	40 91 87 05 	lds	r20, 0x0587
    1890:	50 91 88 05 	lds	r21, 0x0588
    1894:	c3 01       	movw	r24, r6
    1896:	b2 01       	movw	r22, r4
    1898:	0e 94 46 1c 	call	0x388c	; 0x388c <__addsf3>
    189c:	29 8d       	ldd	r18, Y+25	; 0x19
    189e:	3a 8d       	ldd	r19, Y+26	; 0x1a
    18a0:	4b 8d       	ldd	r20, Y+27	; 0x1b
    18a2:	5c 8d       	ldd	r21, Y+28	; 0x1c
    18a4:	0e 94 45 1c 	call	0x388a	; 0x388a <__subsf3>
    18a8:	9b 01       	movw	r18, r22
    18aa:	ac 01       	movw	r20, r24
    18ac:	c7 01       	movw	r24, r14
    18ae:	b6 01       	movw	r22, r12
    18b0:	0e 94 8b 1e 	call	0x3d16	; 0x3d16 <__mulsf3>
    18b4:	20 91 3a 05 	lds	r18, 0x053A
    18b8:	30 91 3b 05 	lds	r19, 0x053B
    18bc:	40 91 3c 05 	lds	r20, 0x053C
    18c0:	50 91 3d 05 	lds	r21, 0x053D
    18c4:	0e 94 46 1c 	call	0x388c	; 0x388c <__addsf3>
    18c8:	69 8f       	std	Y+25, r22	; 0x19
    18ca:	7d a7       	std	Y+45, r23	; 0x2d
    18cc:	8e a7       	std	Y+46, r24	; 0x2e
    18ce:	9f a7       	std	Y+47, r25	; 0x2f
				P_01_Phi +=  - sample_time * P_11_Phi;
    18d0:	80 91 61 02 	lds	r24, 0x0261
    18d4:	90 91 62 02 	lds	r25, 0x0262
    18d8:	a0 91 63 02 	lds	r26, 0x0263
    18dc:	b0 91 64 02 	lds	r27, 0x0264
    18e0:	62 96       	adiw	r28, 0x12	; 18
    18e2:	8c af       	std	Y+60, r24	; 0x3c
    18e4:	9d af       	std	Y+61, r25	; 0x3d
    18e6:	ae af       	std	Y+62, r26	; 0x3e
    18e8:	bf af       	std	Y+63, r27	; 0x3f
    18ea:	62 97       	sbiw	r28, 0x12	; 18
    18ec:	9c 01       	movw	r18, r24
    18ee:	ad 01       	movw	r20, r26
    18f0:	c7 01       	movw	r24, r14
    18f2:	b6 01       	movw	r22, r12
    18f4:	0e 94 8b 1e 	call	0x3d16	; 0x3d16 <__mulsf3>
    18f8:	9b 01       	movw	r18, r22
    18fa:	ac 01       	movw	r20, r24
    18fc:	c3 01       	movw	r24, r6
    18fe:	b2 01       	movw	r22, r4
    1900:	0e 94 46 1c 	call	0x388c	; 0x388c <__addsf3>
    1904:	68 ab       	std	Y+48, r22	; 0x30
    1906:	79 ab       	std	Y+49, r23	; 0x31
    1908:	8a ab       	std	Y+50, r24	; 0x32
    190a:	9b ab       	std	Y+51, r25	; 0x33
				P_00_Psi +=  - sample_time * (P_10_Psi + P_01_Psi) + Q_angle * sample_time;
				P_01_Psi +=  - sample_time * P_11_Psi;
				P_10_Psi +=  - sample_time * P_11_Psi;
				P_11_Psi +=  + Q_gyro * sample_time;
				*/
				Theta_temp = Theta_acc - Theta;
    190c:	a9 a1       	ldd	r26, Y+33	; 0x21
    190e:	ba a1       	ldd	r27, Y+34	; 0x22
    1910:	bd 01       	movw	r22, r26
    1912:	88 27       	eor	r24, r24
    1914:	77 fd       	sbrc	r23, 7
    1916:	80 95       	com	r24
    1918:	98 2f       	mov	r25, r24
    191a:	0e 94 ab 1d 	call	0x3b56	; 0x3b56 <__floatsisf>
    191e:	4b 01       	movw	r8, r22
    1920:	5c 01       	movw	r10, r24
    1922:	9b 01       	movw	r18, r22
    1924:	ac 01       	movw	r20, r24
    1926:	61 2f       	mov	r22, r17
    1928:	70 2f       	mov	r23, r16
    192a:	83 2d       	mov	r24, r3
    192c:	92 2d       	mov	r25, r2
    192e:	0e 94 45 1c 	call	0x388a	; 0x388a <__subsf3>
    1932:	6a af       	std	Y+58, r22	; 0x3a
    1934:	7b af       	std	Y+59, r23	; 0x3b
    1936:	8c af       	std	Y+60, r24	; 0x3c
    1938:	9d af       	std	Y+61, r25	; 0x3d
    193a:	47 2f       	mov	r20, r23
    193c:	38 2f       	mov	r19, r24
    193e:	29 2f       	mov	r18, r25
    1940:	86 2f       	mov	r24, r22
    1942:	94 2f       	mov	r25, r20
    1944:	a3 2f       	mov	r26, r19
    1946:	b2 2f       	mov	r27, r18
    1948:	80 93 5c 05 	sts	0x055C, r24
    194c:	90 93 5d 05 	sts	0x055D, r25
    1950:	a0 93 5e 05 	sts	0x055E, r26
    1954:	b0 93 5f 05 	sts	0x055F, r27
				S_Theta = P_00_Theta + R_angle;
    1958:	40 90 7c 00 	lds	r4, 0x007C
    195c:	50 90 7d 00 	lds	r5, 0x007D
    1960:	60 90 7e 00 	lds	r6, 0x007E
    1964:	70 90 7f 00 	lds	r7, 0x007F
    1968:	a3 01       	movw	r20, r6
    196a:	92 01       	movw	r18, r4
    196c:	bd a1       	ldd	r27, Y+37	; 0x25
    196e:	ae a1       	ldd	r26, Y+38	; 0x26
    1970:	ff a1       	ldd	r31, Y+39	; 0x27
    1972:	e8 a5       	ldd	r30, Y+40	; 0x28
    1974:	6b 2f       	mov	r22, r27
    1976:	7a 2f       	mov	r23, r26
    1978:	8f 2f       	mov	r24, r31
    197a:	9e 2f       	mov	r25, r30
    197c:	0e 94 46 1c 	call	0x388c	; 0x388c <__addsf3>
    1980:	16 2f       	mov	r17, r22
    1982:	07 2f       	mov	r16, r23
    1984:	f8 2e       	mov	r15, r24
    1986:	e9 2e       	mov	r14, r25
    1988:	86 2f       	mov	r24, r22
    198a:	90 2f       	mov	r25, r16
    198c:	af 2d       	mov	r26, r15
    198e:	be 2d       	mov	r27, r14
    1990:	80 93 28 05 	sts	0x0528, r24
    1994:	90 93 29 05 	sts	0x0529, r25
    1998:	a0 93 2a 05 	sts	0x052A, r26
    199c:	b0 93 2b 05 	sts	0x052B, r27
				K_0_Theta = P_00_Theta / S_Theta;
    19a0:	21 2f       	mov	r18, r17
    19a2:	30 2f       	mov	r19, r16
    19a4:	4a 2f       	mov	r20, r26
    19a6:	5b 2f       	mov	r21, r27
    19a8:	bd a1       	ldd	r27, Y+37	; 0x25
    19aa:	ae a1       	ldd	r26, Y+38	; 0x26
    19ac:	ff a1       	ldd	r31, Y+39	; 0x27
    19ae:	e8 a5       	ldd	r30, Y+40	; 0x28
    19b0:	6b 2f       	mov	r22, r27
    19b2:	7a 2f       	mov	r23, r26
    19b4:	8f 2f       	mov	r24, r31
    19b6:	9e 2f       	mov	r25, r30
    19b8:	0e 94 10 1d 	call	0x3a20	; 0x3a20 <__divsf3>
    19bc:	36 2e       	mov	r3, r22
    19be:	27 2e       	mov	r2, r23
    19c0:	89 a3       	std	Y+33, r24	; 0x21
    19c2:	9c ab       	std	Y+52, r25	; 0x34
    19c4:	38 2f       	mov	r19, r24
    19c6:	29 2f       	mov	r18, r25
    19c8:	86 2f       	mov	r24, r22
    19ca:	92 2d       	mov	r25, r2
    19cc:	a3 2f       	mov	r26, r19
    19ce:	b2 2f       	mov	r27, r18
    19d0:	80 93 16 05 	sts	0x0516, r24
    19d4:	90 93 17 05 	sts	0x0517, r25
    19d8:	a0 93 18 05 	sts	0x0518, r26
    19dc:	b0 93 19 05 	sts	0x0519, r27
				K_1_Theta = P_10_Theta / S_Theta;
    19e0:	21 2f       	mov	r18, r17
    19e2:	30 2f       	mov	r19, r16
    19e4:	4f 2d       	mov	r20, r15
    19e6:	5e 2d       	mov	r21, r14
    19e8:	b9 a5       	ldd	r27, Y+41	; 0x29
    19ea:	aa a5       	ldd	r26, Y+42	; 0x2a
    19ec:	fb a5       	ldd	r31, Y+43	; 0x2b
    19ee:	ec a5       	ldd	r30, Y+44	; 0x2c
    19f0:	6b 2f       	mov	r22, r27
    19f2:	7a 2f       	mov	r23, r26
    19f4:	8f 2f       	mov	r24, r31
    19f6:	9e 2f       	mov	r25, r30
    19f8:	0e 94 10 1d 	call	0x3a20	; 0x3a20 <__divsf3>
    19fc:	6d ab       	std	Y+53, r22	; 0x35
    19fe:	7e ab       	std	Y+54, r23	; 0x36
    1a00:	8f ab       	std	Y+55, r24	; 0x37
    1a02:	98 af       	std	Y+56, r25	; 0x38
    1a04:	47 2f       	mov	r20, r23
    1a06:	38 2f       	mov	r19, r24
    1a08:	29 2f       	mov	r18, r25
    1a0a:	86 2f       	mov	r24, r22
    1a0c:	94 2f       	mov	r25, r20
    1a0e:	a3 2f       	mov	r26, r19
    1a10:	b2 2f       	mov	r27, r18
    1a12:	80 93 69 02 	sts	0x0269, r24
    1a16:	90 93 6a 02 	sts	0x026A, r25
    1a1a:	a0 93 6b 02 	sts	0x026B, r26
    1a1e:	b0 93 6c 02 	sts	0x026C, r27
				
				Phi_temp = Phi_acc - Phi;
    1a22:	eb a1       	ldd	r30, Y+35	; 0x23
    1a24:	fc a1       	ldd	r31, Y+36	; 0x24
    1a26:	bf 01       	movw	r22, r30
    1a28:	88 27       	eor	r24, r24
    1a2a:	77 fd       	sbrc	r23, 7
    1a2c:	80 95       	com	r24
    1a2e:	98 2f       	mov	r25, r24
    1a30:	0e 94 ab 1d 	call	0x3b56	; 0x3b56 <__floatsisf>
    1a34:	6b 01       	movw	r12, r22
    1a36:	7c 01       	movw	r14, r24
    1a38:	9b 01       	movw	r18, r22
    1a3a:	ac 01       	movw	r20, r24
    1a3c:	bd 8d       	ldd	r27, Y+29	; 0x1d
    1a3e:	ae 8d       	ldd	r26, Y+30	; 0x1e
    1a40:	ff 8d       	ldd	r31, Y+31	; 0x1f
    1a42:	e8 a1       	ldd	r30, Y+32	; 0x20
    1a44:	6b 2f       	mov	r22, r27
    1a46:	7a 2f       	mov	r23, r26
    1a48:	8f 2f       	mov	r24, r31
    1a4a:	9e 2f       	mov	r25, r30
    1a4c:	0e 94 45 1c 	call	0x388a	; 0x388a <__subsf3>
    1a50:	6e af       	std	Y+62, r22	; 0x3e
    1a52:	7f af       	std	Y+63, r23	; 0x3f
    1a54:	21 96       	adiw	r28, 0x01	; 1
    1a56:	8f af       	std	Y+63, r24	; 0x3f
    1a58:	21 97       	sbiw	r28, 0x01	; 1
    1a5a:	22 96       	adiw	r28, 0x02	; 2
    1a5c:	9f af       	std	Y+63, r25	; 0x3f
    1a5e:	22 97       	sbiw	r28, 0x02	; 2
    1a60:	47 2f       	mov	r20, r23
    1a62:	38 2f       	mov	r19, r24
    1a64:	29 2f       	mov	r18, r25
    1a66:	86 2f       	mov	r24, r22
    1a68:	94 2f       	mov	r25, r20
    1a6a:	a3 2f       	mov	r26, r19
    1a6c:	b2 2f       	mov	r27, r18
    1a6e:	80 93 91 05 	sts	0x0591, r24
    1a72:	90 93 92 05 	sts	0x0592, r25
    1a76:	a0 93 93 05 	sts	0x0593, r26
    1a7a:	b0 93 94 05 	sts	0x0594, r27
				S_Phi = P_00_Phi + R_angle;
    1a7e:	a3 01       	movw	r20, r6
    1a80:	92 01       	movw	r18, r4
    1a82:	b9 8d       	ldd	r27, Y+25	; 0x19
    1a84:	ad a5       	ldd	r26, Y+45	; 0x2d
    1a86:	fe a5       	ldd	r31, Y+46	; 0x2e
    1a88:	ef a5       	ldd	r30, Y+47	; 0x2f
    1a8a:	6b 2f       	mov	r22, r27
    1a8c:	7a 2f       	mov	r23, r26
    1a8e:	8f 2f       	mov	r24, r31
    1a90:	9e 2f       	mov	r25, r30
    1a92:	0e 94 46 1c 	call	0x388c	; 0x388c <__addsf3>
    1a96:	16 2f       	mov	r17, r22
    1a98:	07 2f       	mov	r16, r23
    1a9a:	78 2e       	mov	r7, r24
    1a9c:	69 2e       	mov	r6, r25
    1a9e:	86 2f       	mov	r24, r22
    1aa0:	90 2f       	mov	r25, r16
    1aa2:	a7 2d       	mov	r26, r7
    1aa4:	b6 2d       	mov	r27, r6
    1aa6:	80 93 7e 05 	sts	0x057E, r24
    1aaa:	90 93 7f 05 	sts	0x057F, r25
    1aae:	a0 93 80 05 	sts	0x0580, r26
    1ab2:	b0 93 81 05 	sts	0x0581, r27
				K_0_Phi = P_00_Phi / S_Phi;
    1ab6:	21 2f       	mov	r18, r17
    1ab8:	30 2f       	mov	r19, r16
    1aba:	4a 2f       	mov	r20, r26
    1abc:	5b 2f       	mov	r21, r27
    1abe:	b9 8d       	ldd	r27, Y+25	; 0x19
    1ac0:	ad a5       	ldd	r26, Y+45	; 0x2d
    1ac2:	fe a5       	ldd	r31, Y+46	; 0x2e
    1ac4:	ef a5       	ldd	r30, Y+47	; 0x2f
    1ac6:	6b 2f       	mov	r22, r27
    1ac8:	7a 2f       	mov	r23, r26
    1aca:	8f 2f       	mov	r24, r31
    1acc:	9e 2f       	mov	r25, r30
    1ace:	0e 94 10 1d 	call	0x3a20	; 0x3a20 <__divsf3>
    1ad2:	6d 8f       	std	Y+29, r22	; 0x1d
    1ad4:	7e 8f       	std	Y+30, r23	; 0x1e
    1ad6:	48 2e       	mov	r4, r24
    1ad8:	59 2e       	mov	r5, r25
    1ada:	47 2f       	mov	r20, r23
    1adc:	86 2f       	mov	r24, r22
    1ade:	94 2f       	mov	r25, r20
    1ae0:	a4 2d       	mov	r26, r4
    1ae2:	b5 2d       	mov	r27, r5
    1ae4:	80 93 9c 05 	sts	0x059C, r24
    1ae8:	90 93 9d 05 	sts	0x059D, r25
    1aec:	a0 93 9e 05 	sts	0x059E, r26
    1af0:	b0 93 9f 05 	sts	0x059F, r27
				K_1_Phi = P_10_Phi / S_Phi;
    1af4:	21 2f       	mov	r18, r17
    1af6:	30 2f       	mov	r19, r16
    1af8:	47 2d       	mov	r20, r7
    1afa:	56 2d       	mov	r21, r6
    1afc:	b8 a9       	ldd	r27, Y+48	; 0x30
    1afe:	a9 a9       	ldd	r26, Y+49	; 0x31
    1b00:	fa a9       	ldd	r31, Y+50	; 0x32
    1b02:	eb a9       	ldd	r30, Y+51	; 0x33
    1b04:	6b 2f       	mov	r22, r27
    1b06:	7a 2f       	mov	r23, r26
    1b08:	8f 2f       	mov	r24, r31
    1b0a:	9e 2f       	mov	r25, r30
    1b0c:	0e 94 10 1d 	call	0x3a20	; 0x3a20 <__divsf3>
    1b10:	6f 8f       	std	Y+31, r22	; 0x1f
    1b12:	78 a3       	std	Y+32, r23	; 0x20
    1b14:	8b a3       	std	Y+35, r24	; 0x23
    1b16:	99 af       	std	Y+57, r25	; 0x39
    1b18:	47 2f       	mov	r20, r23
    1b1a:	38 2f       	mov	r19, r24
    1b1c:	29 2f       	mov	r18, r25
    1b1e:	86 2f       	mov	r24, r22
    1b20:	94 2f       	mov	r25, r20
    1b22:	a3 2f       	mov	r26, r19
    1b24:	b2 2f       	mov	r27, r18
    1b26:	80 93 5d 02 	sts	0x025D, r24
    1b2a:	90 93 5e 02 	sts	0x025E, r25
    1b2e:	a0 93 5f 02 	sts	0x025F, r26
    1b32:	b0 93 60 02 	sts	0x0260, r27
				Psi_temp = mag - Psi;
				S_Psi = P_00_Psi + R_angle;
				K_0_Psi = P_00_Psi / S_Psi;
				K_1_Psi = P_10_Psi / S_Psi;
				*/
				Theta +=  K_0_Theta * Theta_temp;
    1b36:	99 a1       	ldd	r25, Y+33	; 0x21
    1b38:	8c a9       	ldd	r24, Y+52	; 0x34
    1b3a:	23 2d       	mov	r18, r3
    1b3c:	32 2d       	mov	r19, r2
    1b3e:	49 2f       	mov	r20, r25
    1b40:	58 2f       	mov	r21, r24
    1b42:	ba ad       	ldd	r27, Y+58	; 0x3a
    1b44:	ab ad       	ldd	r26, Y+59	; 0x3b
    1b46:	fc ad       	ldd	r31, Y+60	; 0x3c
    1b48:	ed ad       	ldd	r30, Y+61	; 0x3d
    1b4a:	6b 2f       	mov	r22, r27
    1b4c:	7a 2f       	mov	r23, r26
    1b4e:	8f 2f       	mov	r24, r31
    1b50:	9e 2f       	mov	r25, r30
    1b52:	0e 94 8b 1e 	call	0x3d16	; 0x3d16 <__mulsf3>
    1b56:	9b 01       	movw	r18, r22
    1b58:	ac 01       	movw	r20, r24
    1b5a:	c5 01       	movw	r24, r10
    1b5c:	b4 01       	movw	r22, r8
    1b5e:	0e 94 46 1c 	call	0x388c	; 0x388c <__addsf3>
    1b62:	0e 94 78 1d 	call	0x3af0	; 0x3af0 <__fixsfsi>
    1b66:	70 93 84 05 	sts	0x0584, r23
    1b6a:	60 93 83 05 	sts	0x0583, r22
				q_bias  +=  K_1_Theta * Theta_temp;
    1b6e:	7d a9       	ldd	r23, Y+53	; 0x35
    1b70:	6e a9       	ldd	r22, Y+54	; 0x36
    1b72:	9f a9       	ldd	r25, Y+55	; 0x37
    1b74:	88 ad       	ldd	r24, Y+56	; 0x38
    1b76:	27 2f       	mov	r18, r23
    1b78:	36 2f       	mov	r19, r22
    1b7a:	49 2f       	mov	r20, r25
    1b7c:	58 2f       	mov	r21, r24
    1b7e:	ba ad       	ldd	r27, Y+58	; 0x3a
    1b80:	ab ad       	ldd	r26, Y+59	; 0x3b
    1b82:	fc ad       	ldd	r31, Y+60	; 0x3c
    1b84:	ed ad       	ldd	r30, Y+61	; 0x3d
    1b86:	6b 2f       	mov	r22, r27
    1b88:	7a 2f       	mov	r23, r26
    1b8a:	8f 2f       	mov	r24, r31
    1b8c:	9e 2f       	mov	r25, r30
    1b8e:	0e 94 8b 1e 	call	0x3d16	; 0x3d16 <__mulsf3>
    1b92:	9b 01       	movw	r18, r22
    1b94:	ac 01       	movw	r20, r24
    1b96:	26 96       	adiw	r28, 0x06	; 6
    1b98:	6c ad       	ldd	r22, Y+60	; 0x3c
    1b9a:	7d ad       	ldd	r23, Y+61	; 0x3d
    1b9c:	8e ad       	ldd	r24, Y+62	; 0x3e
    1b9e:	9f ad       	ldd	r25, Y+63	; 0x3f
    1ba0:	26 97       	sbiw	r28, 0x06	; 6
    1ba2:	0e 94 46 1c 	call	0x388c	; 0x388c <__addsf3>
    1ba6:	60 93 71 02 	sts	0x0271, r22
    1baa:	70 93 72 02 	sts	0x0272, r23
    1bae:	80 93 73 02 	sts	0x0273, r24
    1bb2:	90 93 74 02 	sts	0x0274, r25
				P_00_Theta -= K_0_Theta * P_00_Theta;
    1bb6:	99 a1       	ldd	r25, Y+33	; 0x21
    1bb8:	8c a9       	ldd	r24, Y+52	; 0x34
    1bba:	23 2d       	mov	r18, r3
    1bbc:	32 2d       	mov	r19, r2
    1bbe:	49 2f       	mov	r20, r25
    1bc0:	58 2f       	mov	r21, r24
    1bc2:	bd a1       	ldd	r27, Y+37	; 0x25
    1bc4:	ae a1       	ldd	r26, Y+38	; 0x26
    1bc6:	ff a1       	ldd	r31, Y+39	; 0x27
    1bc8:	e8 a5       	ldd	r30, Y+40	; 0x28
    1bca:	6b 2f       	mov	r22, r27
    1bcc:	7a 2f       	mov	r23, r26
    1bce:	8f 2f       	mov	r24, r31
    1bd0:	9e 2f       	mov	r25, r30
    1bd2:	0e 94 8b 1e 	call	0x3d16	; 0x3d16 <__mulsf3>
    1bd6:	9b 01       	movw	r18, r22
    1bd8:	ac 01       	movw	r20, r24
    1bda:	bd a1       	ldd	r27, Y+37	; 0x25
    1bdc:	ae a1       	ldd	r26, Y+38	; 0x26
    1bde:	ff a1       	ldd	r31, Y+39	; 0x27
    1be0:	e8 a5       	ldd	r30, Y+40	; 0x28
    1be2:	6b 2f       	mov	r22, r27
    1be4:	7a 2f       	mov	r23, r26
    1be6:	8f 2f       	mov	r24, r31
    1be8:	9e 2f       	mov	r25, r30
    1bea:	0e 94 45 1c 	call	0x388a	; 0x388a <__subsf3>
    1bee:	16 2f       	mov	r17, r22
    1bf0:	07 2f       	mov	r16, r23
    1bf2:	b8 2e       	mov	r11, r24
    1bf4:	a9 2e       	mov	r10, r25
    1bf6:	86 2f       	mov	r24, r22
    1bf8:	90 2f       	mov	r25, r16
    1bfa:	ab 2d       	mov	r26, r11
    1bfc:	ba 2d       	mov	r27, r10
    1bfe:	80 93 65 05 	sts	0x0565, r24
    1c02:	90 93 66 05 	sts	0x0566, r25
    1c06:	a0 93 67 05 	sts	0x0567, r26
    1c0a:	b0 93 68 05 	sts	0x0568, r27
				P_01_Theta -= K_0_Theta * P_01_Theta;
    1c0e:	99 a1       	ldd	r25, Y+33	; 0x21
    1c10:	8c a9       	ldd	r24, Y+52	; 0x34
    1c12:	23 2d       	mov	r18, r3
    1c14:	32 2d       	mov	r19, r2
    1c16:	49 2f       	mov	r20, r25
    1c18:	58 2f       	mov	r21, r24
    1c1a:	b9 a5       	ldd	r27, Y+41	; 0x29
    1c1c:	aa a5       	ldd	r26, Y+42	; 0x2a
    1c1e:	fb a5       	ldd	r31, Y+43	; 0x2b
    1c20:	ec a5       	ldd	r30, Y+44	; 0x2c
    1c22:	6b 2f       	mov	r22, r27
    1c24:	7a 2f       	mov	r23, r26
    1c26:	8f 2f       	mov	r24, r31
    1c28:	9e 2f       	mov	r25, r30
    1c2a:	0e 94 8b 1e 	call	0x3d16	; 0x3d16 <__mulsf3>
    1c2e:	9b 01       	movw	r18, r22
    1c30:	ac 01       	movw	r20, r24
    1c32:	b9 a5       	ldd	r27, Y+41	; 0x29
    1c34:	aa a5       	ldd	r26, Y+42	; 0x2a
    1c36:	fb a5       	ldd	r31, Y+43	; 0x2b
    1c38:	ec a5       	ldd	r30, Y+44	; 0x2c
    1c3a:	6b 2f       	mov	r22, r27
    1c3c:	7a 2f       	mov	r23, r26
    1c3e:	8f 2f       	mov	r24, r31
    1c40:	9e 2f       	mov	r25, r30
    1c42:	0e 94 45 1c 	call	0x388a	; 0x388a <__subsf3>
    1c46:	76 2e       	mov	r7, r22
    1c48:	67 2e       	mov	r6, r23
    1c4a:	28 2e       	mov	r2, r24
    1c4c:	39 2e       	mov	r3, r25
    1c4e:	86 2f       	mov	r24, r22
    1c50:	96 2d       	mov	r25, r6
    1c52:	a2 2d       	mov	r26, r2
    1c54:	b3 2d       	mov	r27, r3
    1c56:	80 93 48 05 	sts	0x0548, r24
    1c5a:	90 93 49 05 	sts	0x0549, r25
    1c5e:	a0 93 4a 05 	sts	0x054A, r26
    1c62:	b0 93 4b 05 	sts	0x054B, r27
				P_10_Theta -= K_1_Theta * P_00_Theta;
    1c66:	21 2f       	mov	r18, r17
    1c68:	30 2f       	mov	r19, r16
    1c6a:	4b 2d       	mov	r20, r11
    1c6c:	5a 2d       	mov	r21, r10
    1c6e:	bd a9       	ldd	r27, Y+53	; 0x35
    1c70:	ae a9       	ldd	r26, Y+54	; 0x36
    1c72:	ff a9       	ldd	r31, Y+55	; 0x37
    1c74:	e8 ad       	ldd	r30, Y+56	; 0x38
    1c76:	6b 2f       	mov	r22, r27
    1c78:	7a 2f       	mov	r23, r26
    1c7a:	8f 2f       	mov	r24, r31
    1c7c:	9e 2f       	mov	r25, r30
    1c7e:	0e 94 8b 1e 	call	0x3d16	; 0x3d16 <__mulsf3>
    1c82:	9b 01       	movw	r18, r22
    1c84:	ac 01       	movw	r20, r24
    1c86:	b9 a5       	ldd	r27, Y+41	; 0x29
    1c88:	aa a5       	ldd	r26, Y+42	; 0x2a
    1c8a:	fb a5       	ldd	r31, Y+43	; 0x2b
    1c8c:	ec a5       	ldd	r30, Y+44	; 0x2c
    1c8e:	6b 2f       	mov	r22, r27
    1c90:	7a 2f       	mov	r23, r26
    1c92:	8f 2f       	mov	r24, r31
    1c94:	9e 2f       	mov	r25, r30
    1c96:	0e 94 45 1c 	call	0x388a	; 0x388a <__subsf3>
    1c9a:	60 93 54 05 	sts	0x0554, r22
    1c9e:	70 93 55 05 	sts	0x0555, r23
    1ca2:	80 93 56 05 	sts	0x0556, r24
    1ca6:	90 93 57 05 	sts	0x0557, r25
				Theta += sample_time * (q_filt-q_bias);
				
				P_00_Theta +=  - sample_time * ((P_10_Theta + P_01_Theta) - Q_angle);
				P_01_Theta +=  - sample_time * P_11_Theta;
				P_10_Theta = P_01_Theta;
				P_11_Theta +=  + Q_gyro * sample_time;
    1caa:	63 96       	adiw	r28, 0x13	; 19
    1cac:	7f ad       	ldd	r23, Y+63	; 0x3f
    1cae:	63 97       	sbiw	r28, 0x13	; 19
    1cb0:	64 96       	adiw	r28, 0x14	; 20
    1cb2:	6f ad       	ldd	r22, Y+63	; 0x3f
    1cb4:	64 97       	sbiw	r28, 0x14	; 20
    1cb6:	65 96       	adiw	r28, 0x15	; 21
    1cb8:	9f ad       	ldd	r25, Y+63	; 0x3f
    1cba:	65 97       	sbiw	r28, 0x15	; 21
    1cbc:	66 96       	adiw	r28, 0x16	; 22
    1cbe:	8f ad       	ldd	r24, Y+63	; 0x3f
    1cc0:	66 97       	sbiw	r28, 0x16	; 22
    1cc2:	27 2f       	mov	r18, r23
    1cc4:	36 2f       	mov	r19, r22
    1cc6:	49 2f       	mov	r20, r25
    1cc8:	58 2f       	mov	r21, r24
    1cca:	2a 96       	adiw	r28, 0x0a	; 10
    1ccc:	6c ad       	ldd	r22, Y+60	; 0x3c
    1cce:	7d ad       	ldd	r23, Y+61	; 0x3d
    1cd0:	8e ad       	ldd	r24, Y+62	; 0x3e
    1cd2:	9f ad       	ldd	r25, Y+63	; 0x3f
    1cd4:	2a 97       	sbiw	r28, 0x0a	; 10
    1cd6:	0e 94 46 1c 	call	0x388c	; 0x388c <__addsf3>
    1cda:	4b 01       	movw	r8, r22
    1cdc:	5c 01       	movw	r10, r24
				Theta +=  K_0_Theta * Theta_temp;
				q_bias  +=  K_1_Theta * Theta_temp;
				P_00_Theta -= K_0_Theta * P_00_Theta;
				P_01_Theta -= K_0_Theta * P_01_Theta;
				P_10_Theta -= K_1_Theta * P_00_Theta;
				P_11_Theta -= K_1_Theta * P_01_Theta;
    1cde:	27 2d       	mov	r18, r7
    1ce0:	36 2d       	mov	r19, r6
    1ce2:	42 2d       	mov	r20, r2
    1ce4:	53 2d       	mov	r21, r3
    1ce6:	bd a9       	ldd	r27, Y+53	; 0x35
    1ce8:	ae a9       	ldd	r26, Y+54	; 0x36
    1cea:	ff a9       	ldd	r31, Y+55	; 0x37
    1cec:	e8 ad       	ldd	r30, Y+56	; 0x38
    1cee:	6b 2f       	mov	r22, r27
    1cf0:	7a 2f       	mov	r23, r26
    1cf2:	8f 2f       	mov	r24, r31
    1cf4:	9e 2f       	mov	r25, r30
    1cf6:	0e 94 8b 1e 	call	0x3d16	; 0x3d16 <__mulsf3>
    1cfa:	9b 01       	movw	r18, r22
    1cfc:	ac 01       	movw	r20, r24
    1cfe:	c5 01       	movw	r24, r10
    1d00:	b4 01       	movw	r22, r8
    1d02:	0e 94 45 1c 	call	0x388a	; 0x388a <__subsf3>
    1d06:	60 93 6d 02 	sts	0x026D, r22
    1d0a:	70 93 6e 02 	sts	0x026E, r23
    1d0e:	80 93 6f 02 	sts	0x026F, r24
    1d12:	90 93 70 02 	sts	0x0270, r25
				
				Phi +=  K_0_Phi * Phi_temp;
    1d16:	7d 8d       	ldd	r23, Y+29	; 0x1d
    1d18:	6e 8d       	ldd	r22, Y+30	; 0x1e
    1d1a:	27 2f       	mov	r18, r23
    1d1c:	36 2f       	mov	r19, r22
    1d1e:	44 2d       	mov	r20, r4
    1d20:	55 2d       	mov	r21, r5
    1d22:	be ad       	ldd	r27, Y+62	; 0x3e
    1d24:	af ad       	ldd	r26, Y+63	; 0x3f
    1d26:	21 96       	adiw	r28, 0x01	; 1
    1d28:	ff ad       	ldd	r31, Y+63	; 0x3f
    1d2a:	21 97       	sbiw	r28, 0x01	; 1
    1d2c:	22 96       	adiw	r28, 0x02	; 2
    1d2e:	ef ad       	ldd	r30, Y+63	; 0x3f
    1d30:	22 97       	sbiw	r28, 0x02	; 2
    1d32:	6b 2f       	mov	r22, r27
    1d34:	7a 2f       	mov	r23, r26
    1d36:	8f 2f       	mov	r24, r31
    1d38:	9e 2f       	mov	r25, r30
    1d3a:	0e 94 8b 1e 	call	0x3d16	; 0x3d16 <__mulsf3>
    1d3e:	9b 01       	movw	r18, r22
    1d40:	ac 01       	movw	r20, r24
    1d42:	c7 01       	movw	r24, r14
    1d44:	b6 01       	movw	r22, r12
    1d46:	0e 94 46 1c 	call	0x388c	; 0x388c <__addsf3>
    1d4a:	0e 94 78 1d 	call	0x3af0	; 0x3af0 <__fixsfsi>
    1d4e:	70 93 8e 02 	sts	0x028E, r23
    1d52:	60 93 8d 02 	sts	0x028D, r22
				p_bias  +=  K_1_Phi * Phi_temp;
    1d56:	7f 8d       	ldd	r23, Y+31	; 0x1f
    1d58:	68 a1       	ldd	r22, Y+32	; 0x20
    1d5a:	9b a1       	ldd	r25, Y+35	; 0x23
    1d5c:	89 ad       	ldd	r24, Y+57	; 0x39
    1d5e:	27 2f       	mov	r18, r23
    1d60:	36 2f       	mov	r19, r22
    1d62:	49 2f       	mov	r20, r25
    1d64:	58 2f       	mov	r21, r24
    1d66:	be ad       	ldd	r27, Y+62	; 0x3e
    1d68:	af ad       	ldd	r26, Y+63	; 0x3f
    1d6a:	21 96       	adiw	r28, 0x01	; 1
    1d6c:	ff ad       	ldd	r31, Y+63	; 0x3f
    1d6e:	21 97       	sbiw	r28, 0x01	; 1
    1d70:	22 96       	adiw	r28, 0x02	; 2
    1d72:	ef ad       	ldd	r30, Y+63	; 0x3f
    1d74:	22 97       	sbiw	r28, 0x02	; 2
    1d76:	6b 2f       	mov	r22, r27
    1d78:	7a 2f       	mov	r23, r26
    1d7a:	8f 2f       	mov	r24, r31
    1d7c:	9e 2f       	mov	r25, r30
    1d7e:	0e 94 8b 1e 	call	0x3d16	; 0x3d16 <__mulsf3>
    1d82:	9b 01       	movw	r18, r22
    1d84:	ac 01       	movw	r20, r24
    1d86:	2e 96       	adiw	r28, 0x0e	; 14
    1d88:	6c ad       	ldd	r22, Y+60	; 0x3c
    1d8a:	7d ad       	ldd	r23, Y+61	; 0x3d
    1d8c:	8e ad       	ldd	r24, Y+62	; 0x3e
    1d8e:	9f ad       	ldd	r25, Y+63	; 0x3f
    1d90:	2e 97       	sbiw	r28, 0x0e	; 14
    1d92:	0e 94 46 1c 	call	0x388c	; 0x388c <__addsf3>
    1d96:	60 93 65 02 	sts	0x0265, r22
    1d9a:	70 93 66 02 	sts	0x0266, r23
    1d9e:	80 93 67 02 	sts	0x0267, r24
    1da2:	90 93 68 02 	sts	0x0268, r25
				P_00_Phi -= K_0_Phi * P_00_Phi;
    1da6:	7d 8d       	ldd	r23, Y+29	; 0x1d
    1da8:	6e 8d       	ldd	r22, Y+30	; 0x1e
    1daa:	27 2f       	mov	r18, r23
    1dac:	36 2f       	mov	r19, r22
    1dae:	44 2d       	mov	r20, r4
    1db0:	55 2d       	mov	r21, r5
    1db2:	b9 8d       	ldd	r27, Y+25	; 0x19
    1db4:	ad a5       	ldd	r26, Y+45	; 0x2d
    1db6:	fe a5       	ldd	r31, Y+46	; 0x2e
    1db8:	ef a5       	ldd	r30, Y+47	; 0x2f
    1dba:	6b 2f       	mov	r22, r27
    1dbc:	7a 2f       	mov	r23, r26
    1dbe:	8f 2f       	mov	r24, r31
    1dc0:	9e 2f       	mov	r25, r30
    1dc2:	0e 94 8b 1e 	call	0x3d16	; 0x3d16 <__mulsf3>
    1dc6:	9b 01       	movw	r18, r22
    1dc8:	ac 01       	movw	r20, r24
    1dca:	b9 8d       	ldd	r27, Y+25	; 0x19
    1dcc:	ad a5       	ldd	r26, Y+45	; 0x2d
    1dce:	fe a5       	ldd	r31, Y+46	; 0x2e
    1dd0:	ef a5       	ldd	r30, Y+47	; 0x2f
    1dd2:	6b 2f       	mov	r22, r27
    1dd4:	7a 2f       	mov	r23, r26
    1dd6:	8f 2f       	mov	r24, r31
    1dd8:	9e 2f       	mov	r25, r30
    1dda:	0e 94 45 1c 	call	0x388a	; 0x388a <__subsf3>
    1dde:	e6 2e       	mov	r14, r22
    1de0:	f7 2e       	mov	r15, r23
    1de2:	08 2f       	mov	r16, r24
    1de4:	19 2f       	mov	r17, r25
    1de6:	86 2f       	mov	r24, r22
    1de8:	9f 2d       	mov	r25, r15
    1dea:	a0 2f       	mov	r26, r16
    1dec:	b1 2f       	mov	r27, r17
    1dee:	80 93 3a 05 	sts	0x053A, r24
    1df2:	90 93 3b 05 	sts	0x053B, r25
    1df6:	a0 93 3c 05 	sts	0x053C, r26
    1dfa:	b0 93 3d 05 	sts	0x053D, r27
				P_01_Phi -= K_0_Phi * P_01_Phi;
    1dfe:	7d 8d       	ldd	r23, Y+29	; 0x1d
    1e00:	6e 8d       	ldd	r22, Y+30	; 0x1e
    1e02:	27 2f       	mov	r18, r23
    1e04:	36 2f       	mov	r19, r22
    1e06:	44 2d       	mov	r20, r4
    1e08:	55 2d       	mov	r21, r5
    1e0a:	b8 a9       	ldd	r27, Y+48	; 0x30
    1e0c:	a9 a9       	ldd	r26, Y+49	; 0x31
    1e0e:	fa a9       	ldd	r31, Y+50	; 0x32
    1e10:	eb a9       	ldd	r30, Y+51	; 0x33
    1e12:	6b 2f       	mov	r22, r27
    1e14:	7a 2f       	mov	r23, r26
    1e16:	8f 2f       	mov	r24, r31
    1e18:	9e 2f       	mov	r25, r30
    1e1a:	0e 94 8b 1e 	call	0x3d16	; 0x3d16 <__mulsf3>
    1e1e:	9b 01       	movw	r18, r22
    1e20:	ac 01       	movw	r20, r24
    1e22:	b8 a9       	ldd	r27, Y+48	; 0x30
    1e24:	a9 a9       	ldd	r26, Y+49	; 0x31
    1e26:	fa a9       	ldd	r31, Y+50	; 0x32
    1e28:	eb a9       	ldd	r30, Y+51	; 0x33
    1e2a:	6b 2f       	mov	r22, r27
    1e2c:	7a 2f       	mov	r23, r26
    1e2e:	8f 2f       	mov	r24, r31
    1e30:	9e 2f       	mov	r25, r30
    1e32:	0e 94 45 1c 	call	0x388a	; 0x388a <__subsf3>
    1e36:	a6 2e       	mov	r10, r22
    1e38:	b7 2e       	mov	r11, r23
    1e3a:	c8 2e       	mov	r12, r24
    1e3c:	d9 2e       	mov	r13, r25
    1e3e:	86 2f       	mov	r24, r22
    1e40:	9b 2d       	mov	r25, r11
    1e42:	ac 2d       	mov	r26, r12
    1e44:	bd 2d       	mov	r27, r13
    1e46:	80 93 89 05 	sts	0x0589, r24
    1e4a:	90 93 8a 05 	sts	0x058A, r25
    1e4e:	a0 93 8b 05 	sts	0x058B, r26
    1e52:	b0 93 8c 05 	sts	0x058C, r27
				P_10_Phi -= K_1_Phi * P_00_Phi;
    1e56:	2e 2d       	mov	r18, r14
    1e58:	3f 2d       	mov	r19, r15
    1e5a:	40 2f       	mov	r20, r16
    1e5c:	51 2f       	mov	r21, r17
    1e5e:	bf 8d       	ldd	r27, Y+31	; 0x1f
    1e60:	a8 a1       	ldd	r26, Y+32	; 0x20
    1e62:	fb a1       	ldd	r31, Y+35	; 0x23
    1e64:	e9 ad       	ldd	r30, Y+57	; 0x39
    1e66:	6b 2f       	mov	r22, r27
    1e68:	7a 2f       	mov	r23, r26
    1e6a:	8f 2f       	mov	r24, r31
    1e6c:	9e 2f       	mov	r25, r30
    1e6e:	0e 94 8b 1e 	call	0x3d16	; 0x3d16 <__mulsf3>
    1e72:	9b 01       	movw	r18, r22
    1e74:	ac 01       	movw	r20, r24
    1e76:	b8 a9       	ldd	r27, Y+48	; 0x30
    1e78:	a9 a9       	ldd	r26, Y+49	; 0x31
    1e7a:	fa a9       	ldd	r31, Y+50	; 0x32
    1e7c:	eb a9       	ldd	r30, Y+51	; 0x33
    1e7e:	6b 2f       	mov	r22, r27
    1e80:	7a 2f       	mov	r23, r26
    1e82:	8f 2f       	mov	r24, r31
    1e84:	9e 2f       	mov	r25, r30
    1e86:	0e 94 45 1c 	call	0x388a	; 0x388a <__subsf3>
    1e8a:	60 93 85 05 	sts	0x0585, r22
    1e8e:	70 93 86 05 	sts	0x0586, r23
    1e92:	80 93 87 05 	sts	0x0587, r24
    1e96:	90 93 88 05 	sts	0x0588, r25
				
				Phi += sample_time * (p_filt-p_bias);
				P_00_Phi +=  - sample_time * ((P_10_Phi + P_01_Phi) - Q_angle);
				P_01_Phi +=  - sample_time * P_11_Phi;
				P_10_Phi = P_01_Phi;
				P_11_Phi +=  + Q_gyro * sample_time;
    1e9a:	62 96       	adiw	r28, 0x12	; 18
    1e9c:	2c ad       	ldd	r18, Y+60	; 0x3c
    1e9e:	3d ad       	ldd	r19, Y+61	; 0x3d
    1ea0:	4e ad       	ldd	r20, Y+62	; 0x3e
    1ea2:	5f ad       	ldd	r21, Y+63	; 0x3f
    1ea4:	62 97       	sbiw	r28, 0x12	; 18
    1ea6:	63 96       	adiw	r28, 0x13	; 19
    1ea8:	bf ad       	ldd	r27, Y+63	; 0x3f
    1eaa:	63 97       	sbiw	r28, 0x13	; 19
    1eac:	64 96       	adiw	r28, 0x14	; 20
    1eae:	af ad       	ldd	r26, Y+63	; 0x3f
    1eb0:	64 97       	sbiw	r28, 0x14	; 20
    1eb2:	65 96       	adiw	r28, 0x15	; 21
    1eb4:	ff ad       	ldd	r31, Y+63	; 0x3f
    1eb6:	65 97       	sbiw	r28, 0x15	; 21
    1eb8:	66 96       	adiw	r28, 0x16	; 22
    1eba:	ef ad       	ldd	r30, Y+63	; 0x3f
    1ebc:	66 97       	sbiw	r28, 0x16	; 22
    1ebe:	6b 2f       	mov	r22, r27
    1ec0:	7a 2f       	mov	r23, r26
    1ec2:	8f 2f       	mov	r24, r31
    1ec4:	9e 2f       	mov	r25, r30
    1ec6:	0e 94 46 1c 	call	0x388c	; 0x388c <__addsf3>
    1eca:	2b 01       	movw	r4, r22
    1ecc:	3c 01       	movw	r6, r24
				Phi +=  K_0_Phi * Phi_temp;
				p_bias  +=  K_1_Phi * Phi_temp;
				P_00_Phi -= K_0_Phi * P_00_Phi;
				P_01_Phi -= K_0_Phi * P_01_Phi;
				P_10_Phi -= K_1_Phi * P_00_Phi;
				P_11_Phi -= K_1_Phi * P_01_Phi;
    1ece:	2a 2d       	mov	r18, r10
    1ed0:	3b 2d       	mov	r19, r11
    1ed2:	4c 2d       	mov	r20, r12
    1ed4:	5d 2d       	mov	r21, r13
    1ed6:	bf 8d       	ldd	r27, Y+31	; 0x1f
    1ed8:	a8 a1       	ldd	r26, Y+32	; 0x20
    1eda:	fb a1       	ldd	r31, Y+35	; 0x23
    1edc:	e9 ad       	ldd	r30, Y+57	; 0x39
    1ede:	6b 2f       	mov	r22, r27
    1ee0:	7a 2f       	mov	r23, r26
    1ee2:	8f 2f       	mov	r24, r31
    1ee4:	9e 2f       	mov	r25, r30
    1ee6:	0e 94 8b 1e 	call	0x3d16	; 0x3d16 <__mulsf3>
    1eea:	9b 01       	movw	r18, r22
    1eec:	ac 01       	movw	r20, r24
    1eee:	c3 01       	movw	r24, r6
    1ef0:	b2 01       	movw	r22, r4
    1ef2:	0e 94 45 1c 	call	0x388a	; 0x388a <__subsf3>
    1ef6:	60 93 61 02 	sts	0x0261, r22
    1efa:	70 93 62 02 	sts	0x0262, r23
    1efe:	80 93 63 02 	sts	0x0263, r24
    1f02:	90 93 64 02 	sts	0x0264, r25
				//******************************************
				// Detecting current position and current heading from GPS reading
				
				//GPS_POS_CURRENT_Y = "123456";
							
				GPS_POS_CURRENT_X = atol_new(GPS_RMC[GPS_RMC_LONGITUDE]);
    1f06:	8b ee       	ldi	r24, 0xEB	; 235
    1f08:	92 e0       	ldi	r25, 0x02	; 2
    1f0a:	0e 94 db 09 	call	0x13b6	; 0x13b6 <atol_new>
    1f0e:	60 93 74 05 	sts	0x0574, r22
    1f12:	70 93 75 05 	sts	0x0575, r23
    1f16:	80 93 76 05 	sts	0x0576, r24
    1f1a:	90 93 77 05 	sts	0x0577, r25
				GPS_POS_CURRENT_Y = atol_new(GPS_RMC[GPS_RMC_LATITUDE]);
    1f1e:	85 ed       	ldi	r24, 0xD5	; 213
    1f20:	92 e0       	ldi	r25, 0x02	; 2
    1f22:	0e 94 db 09 	call	0x13b6	; 0x13b6 <atol_new>
    1f26:	60 93 60 05 	sts	0x0560, r22
    1f2a:	70 93 61 05 	sts	0x0561, r23
    1f2e:	80 93 62 05 	sts	0x0562, r24
    1f32:	90 93 63 05 	sts	0x0563, r25
				
				heading_GPS = atol_new(GPS_RMC[GPS_RMC_PATH])/100;	// divided by 100 as decimals are provided by GPS
    1f36:	8c e0       	ldi	r24, 0x0C	; 12
    1f38:	93 e0       	ldi	r25, 0x03	; 3
    1f3a:	0e 94 db 09 	call	0x13b6	; 0x13b6 <atol_new>
    1f3e:	24 e6       	ldi	r18, 0x64	; 100
    1f40:	30 e0       	ldi	r19, 0x00	; 0
    1f42:	40 e0       	ldi	r20, 0x00	; 0
    1f44:	50 e0       	ldi	r21, 0x00	; 0
    1f46:	0e 94 05 1f 	call	0x3e0a	; 0x3e0a <__udivmodsi4>
    1f4a:	30 93 5c 02 	sts	0x025C, r19
    1f4e:	20 93 5b 02 	sts	0x025B, r18
				   |	  '		 |			 |		'	   |
				   |  0			 |			 |			 0 |
				   |_____________|			 |_____________|
				
				*/
				if ((ctrl_in[stick_l_up_down]    <	110) &&		// limit down left stick
    1f52:	a4 e3       	ldi	r26, 0x34	; 52
    1f54:	b2 e0       	ldi	r27, 0x02	; 2
    1f56:	8d 91       	ld	r24, X+
    1f58:	9c 91       	ld	r25, X
    1f5a:	8e 36       	cpi	r24, 0x6E	; 110
    1f5c:	91 05       	cpc	r25, r1
    1f5e:	0c f0       	brlt	.+2      	; 0x1f62 <main+0xb24>
    1f60:	7a c0       	rjmp	.+244    	; 0x2056 <main+0xc18>
					(ctrl_in[stick_l_left_right] >	175) &&		// limit left left stick
    1f62:	80 91 3a 02 	lds	r24, 0x023A
    1f66:	90 91 3b 02 	lds	r25, 0x023B
				   |	  '		 |			 |		'	   |
				   |  0			 |			 |			 0 |
				   |_____________|			 |_____________|
				
				*/
				if ((ctrl_in[stick_l_up_down]    <	110) &&		// limit down left stick
    1f6a:	80 3b       	cpi	r24, 0xB0	; 176
    1f6c:	91 05       	cpc	r25, r1
    1f6e:	0c f4       	brge	.+2      	; 0x1f72 <main+0xb34>
    1f70:	72 c0       	rjmp	.+228    	; 0x2056 <main+0xc18>
					(ctrl_in[stick_l_left_right] >	175) &&		// limit left left stick
					(ctrl_in[stick_r_up_down]	>	170) &&		// limit down right stick
    1f72:	80 91 38 02 	lds	r24, 0x0238
    1f76:	90 91 39 02 	lds	r25, 0x0239
				   |  0			 |			 |			 0 |
				   |_____________|			 |_____________|
				
				*/
				if ((ctrl_in[stick_l_up_down]    <	110) &&		// limit down left stick
					(ctrl_in[stick_l_left_right] >	175) &&		// limit left left stick
    1f7a:	8b 3a       	cpi	r24, 0xAB	; 171
    1f7c:	91 05       	cpc	r25, r1
    1f7e:	0c f4       	brge	.+2      	; 0x1f82 <main+0xb44>
    1f80:	6a c0       	rjmp	.+212    	; 0x2056 <main+0xc18>
					(ctrl_in[stick_r_up_down]	>	170) &&		// limit down right stick
					(ctrl_in[stick_r_left_right] >	170)) 		// limit right right stick
    1f82:	e6 e3       	ldi	r30, 0x36	; 54
    1f84:	f2 e0       	ldi	r31, 0x02	; 2
    1f86:	80 81       	ld	r24, Z
    1f88:	91 81       	ldd	r25, Z+1	; 0x01
				   |_____________|			 |_____________|
				
				*/
				if ((ctrl_in[stick_l_up_down]    <	110) &&		// limit down left stick
					(ctrl_in[stick_l_left_right] >	175) &&		// limit left left stick
					(ctrl_in[stick_r_up_down]	>	170) &&		// limit down right stick
    1f8a:	8b 3a       	cpi	r24, 0xAB	; 171
    1f8c:	91 05       	cpc	r25, r1
    1f8e:	0c f4       	brge	.+2      	; 0x1f92 <main+0xb54>
    1f90:	62 c0       	rjmp	.+196    	; 0x2056 <main+0xc18>
					(ctrl_in[stick_r_left_right] >	170)) 		// limit right right stick
				{
					if (GPS_home_set == FALSE && GPS_home_comm == FALSE)
    1f92:	80 91 52 02 	lds	r24, 0x0252
    1f96:	81 11       	cpse	r24, r1
    1f98:	3e c0       	rjmp	.+124    	; 0x2016 <main+0xbd8>
    1f9a:	80 91 51 02 	lds	r24, 0x0251
    1f9e:	81 11       	cpse	r24, r1
    1fa0:	5c c0       	rjmp	.+184    	; 0x205a <main+0xc1c>
					{
					GPS_home_comm = TRUE;
    1fa2:	81 e0       	ldi	r24, 0x01	; 1
    1fa4:	80 93 51 02 	sts	0x0251, r24
					GPS_home_set = TRUE;
    1fa8:	80 93 52 02 	sts	0x0252, r24
					GPS_POS_HOME_X = atol_new(GPS_RMC[GPS_RMC_LONGITUDE]);
    1fac:	8b ee       	ldi	r24, 0xEB	; 235
    1fae:	92 e0       	ldi	r25, 0x02	; 2
    1fb0:	0e 94 db 09 	call	0x13b6	; 0x13b6 <atol_new>
    1fb4:	60 93 1e 05 	sts	0x051E, r22
    1fb8:	70 93 1f 05 	sts	0x051F, r23
    1fbc:	80 93 20 05 	sts	0x0520, r24
    1fc0:	90 93 21 05 	sts	0x0521, r25
					GPS_POS_HOME_Y = atol_new(GPS_RMC[GPS_RMC_LATITUDE]);
    1fc4:	85 ed       	ldi	r24, 0xD5	; 213
    1fc6:	92 e0       	ldi	r25, 0x02	; 2
    1fc8:	0e 94 db 09 	call	0x13b6	; 0x13b6 <atol_new>
    1fcc:	60 93 40 05 	sts	0x0540, r22
    1fd0:	70 93 41 05 	sts	0x0541, r23
    1fd4:	80 93 42 05 	sts	0x0542, r24
    1fd8:	90 93 43 05 	sts	0x0543, r25
					write_string("Home Set Lat ");write_var(GPS_POS_HOME_Y);write_string(" Long ");write_var_ln(GPS_POS_HOME_X);
    1fdc:	8c e2       	ldi	r24, 0x2C	; 44
    1fde:	91 e0       	ldi	r25, 0x01	; 1
    1fe0:	0e 94 e1 1b 	call	0x37c2	; 0x37c2 <write_string>
    1fe4:	60 91 40 05 	lds	r22, 0x0540
    1fe8:	70 91 41 05 	lds	r23, 0x0541
    1fec:	80 91 42 05 	lds	r24, 0x0542
    1ff0:	90 91 43 05 	lds	r25, 0x0543
    1ff4:	0e 94 05 1c 	call	0x380a	; 0x380a <write_var>
    1ff8:	8a e3       	ldi	r24, 0x3A	; 58
    1ffa:	91 e0       	ldi	r25, 0x01	; 1
    1ffc:	0e 94 e1 1b 	call	0x37c2	; 0x37c2 <write_string>
    2000:	60 91 1e 05 	lds	r22, 0x051E
    2004:	70 91 1f 05 	lds	r23, 0x051F
    2008:	80 91 20 05 	lds	r24, 0x0520
    200c:	90 91 21 05 	lds	r25, 0x0521
    2010:	0e 94 23 1c 	call	0x3846	; 0x3846 <write_var_ln>
    2014:	22 c0       	rjmp	.+68     	; 0x205a <main+0xc1c>
// 					GPS_POS_GOAL_WP[WP4][WPX] = GPS_POS_HOME_X;					// WP4 -> X Position		|
// 					GPS_POS_GOAL_WP[WP4][WPY] = GPS_POS_HOME_Y-8335;			// WP4 -> Y Position		|	WP4 = SOUTH of HOME Pos
// 					GPS_POS_GOAL_WP[WP5][WPX] = GPS_POS_HOME_X;	// SPARE
// 					GPS_POS_GOAL_WP[WP5][WPY] = GPS_POS_HOME_Y;	// SPARE
					}
					else if(GPS_home_set == TRUE && GPS_home_comm == FALSE)
    2016:	81 30       	cpi	r24, 0x01	; 1
    2018:	01 f5       	brne	.+64     	; 0x205a <main+0xc1c>
    201a:	80 91 51 02 	lds	r24, 0x0251
    201e:	81 11       	cpse	r24, r1
    2020:	1c c0       	rjmp	.+56     	; 0x205a <main+0xc1c>
					{
						GPS_home_comm = TRUE;
    2022:	81 e0       	ldi	r24, 0x01	; 1
    2024:	80 93 51 02 	sts	0x0251, r24
						GPS_home_set = FALSE;
    2028:	10 92 52 02 	sts	0x0252, r1
						GPS_POS_HOME_X = 0;
    202c:	10 92 1e 05 	sts	0x051E, r1
    2030:	10 92 1f 05 	sts	0x051F, r1
    2034:	10 92 20 05 	sts	0x0520, r1
    2038:	10 92 21 05 	sts	0x0521, r1
						GPS_POS_HOME_Y = 0;
    203c:	10 92 40 05 	sts	0x0540, r1
    2040:	10 92 41 05 	sts	0x0541, r1
    2044:	10 92 42 05 	sts	0x0542, r1
    2048:	10 92 43 05 	sts	0x0543, r1
						write_string_ln("Home Set Cleared ");
    204c:	81 e4       	ldi	r24, 0x41	; 65
    204e:	91 e0       	ldi	r25, 0x01	; 1
    2050:	0e 94 f1 1b 	call	0x37e2	; 0x37e2 <write_string_ln>
    2054:	02 c0       	rjmp	.+4      	; 0x205a <main+0xc1c>
					}
				}
				else GPS_home_comm = FALSE;	
    2056:	10 92 51 02 	sts	0x0251, r1
				write_var(ctrl_in[stick_l_up_down]);write_string(";");
				write_var(ctrl_in[stick_l_left_right]);write_string(";");
				write_var(ctrl_in[stick_r_up_down]);write_string(";");
				write_var(ctrl_in[stick_r_left_right]);write_string_ln(";");
				*/
				if ((ctrl_in[stick_l_up_down]    <	110) &&		// limit down left stick
    205a:	a4 e3       	ldi	r26, 0x34	; 52
    205c:	b2 e0       	ldi	r27, 0x02	; 2
    205e:	8d 91       	ld	r24, X+
    2060:	9c 91       	ld	r25, X
    2062:	8e 36       	cpi	r24, 0x6E	; 110
    2064:	91 05       	cpc	r25, r1
    2066:	7c f5       	brge	.+94     	; 0x20c6 <main+0xc88>
					(ctrl_in[stick_l_left_right] >	175) &&		// limit left left stick
    2068:	80 91 3a 02 	lds	r24, 0x023A
    206c:	90 91 3b 02 	lds	r25, 0x023B
				write_var(ctrl_in[stick_l_up_down]);write_string(";");
				write_var(ctrl_in[stick_l_left_right]);write_string(";");
				write_var(ctrl_in[stick_r_up_down]);write_string(";");
				write_var(ctrl_in[stick_r_left_right]);write_string_ln(";");
				*/
				if ((ctrl_in[stick_l_up_down]    <	110) &&		// limit down left stick
    2070:	80 3b       	cpi	r24, 0xB0	; 176
    2072:	91 05       	cpc	r25, r1
    2074:	44 f1       	brlt	.+80     	; 0x20c6 <main+0xc88>
					(ctrl_in[stick_l_left_right] >	175) &&		// limit left left stick
					(ctrl_in[stick_r_up_down]	<	110) &&		// limit up right stick
    2076:	80 91 38 02 	lds	r24, 0x0238
    207a:	90 91 39 02 	lds	r25, 0x0239
				write_var(ctrl_in[stick_l_left_right]);write_string(";");
				write_var(ctrl_in[stick_r_up_down]);write_string(";");
				write_var(ctrl_in[stick_r_left_right]);write_string_ln(";");
				*/
				if ((ctrl_in[stick_l_up_down]    <	110) &&		// limit down left stick
					(ctrl_in[stick_l_left_right] >	175) &&		// limit left left stick
    207e:	8e 36       	cpi	r24, 0x6E	; 110
    2080:	91 05       	cpc	r25, r1
    2082:	0c f5       	brge	.+66     	; 0x20c6 <main+0xc88>
					(ctrl_in[stick_r_up_down]	<	110) &&		// limit up right stick
					(ctrl_in[stick_r_left_right] >	170))		// limit right right stick
    2084:	e6 e3       	ldi	r30, 0x36	; 54
    2086:	f2 e0       	ldi	r31, 0x02	; 2
    2088:	80 81       	ld	r24, Z
    208a:	91 81       	ldd	r25, Z+1	; 0x01
				write_var(ctrl_in[stick_r_up_down]);write_string(";");
				write_var(ctrl_in[stick_r_left_right]);write_string_ln(";");
				*/
				if ((ctrl_in[stick_l_up_down]    <	110) &&		// limit down left stick
					(ctrl_in[stick_l_left_right] >	175) &&		// limit left left stick
					(ctrl_in[stick_r_up_down]	<	110) &&		// limit up right stick
    208c:	8b 3a       	cpi	r24, 0xAB	; 171
    208e:	91 05       	cpc	r25, r1
    2090:	d4 f0       	brlt	.+52     	; 0x20c6 <main+0xc88>
					(ctrl_in[stick_r_left_right] >	170))		// limit right right stick
					{
						if (lights_enabled == FALSE && lights_commanded == FALSE)
    2092:	80 91 50 02 	lds	r24, 0x0250
    2096:	81 11       	cpse	r24, r1
    2098:	0a c0       	rjmp	.+20     	; 0x20ae <main+0xc70>
    209a:	90 91 4f 02 	lds	r25, 0x024F
    209e:	91 11       	cpse	r25, r1
    20a0:	3f c0       	rjmp	.+126    	; 0x2120 <main+0xce2>
						{
							lights_commanded = TRUE;
    20a2:	81 e0       	ldi	r24, 0x01	; 1
    20a4:	80 93 4f 02 	sts	0x024F, r24
							lights_enabled = TRUE;
    20a8:	80 93 50 02 	sts	0x0250, r24
    20ac:	12 c0       	rjmp	.+36     	; 0x20d2 <main+0xc94>
						}
						else if (lights_enabled == TRUE && lights_commanded == FALSE)
    20ae:	81 30       	cpi	r24, 0x01	; 1
    20b0:	b9 f5       	brne	.+110    	; 0x2120 <main+0xce2>
    20b2:	80 91 4f 02 	lds	r24, 0x024F
    20b6:	81 11       	cpse	r24, r1
    20b8:	0c c0       	rjmp	.+24     	; 0x20d2 <main+0xc94>
						{
							lights_commanded = TRUE;
    20ba:	81 e0       	ldi	r24, 0x01	; 1
    20bc:	80 93 4f 02 	sts	0x024F, r24
							lights_enabled = FALSE;
    20c0:	10 92 50 02 	sts	0x0250, r1
    20c4:	2f c0       	rjmp	.+94     	; 0x2124 <main+0xce6>
						}
					}
					else lights_commanded = FALSE;
    20c6:	10 92 4f 02 	sts	0x024F, r1
				
				//lights_enabled = TRUE;
				if (lights_enabled == TRUE)
    20ca:	80 91 50 02 	lds	r24, 0x0250
    20ce:	81 30       	cpi	r24, 0x01	; 1
    20d0:	39 f5       	brne	.+78     	; 0x2120 <main+0xce2>
				{
					// Strobe light flash value
					uint8_t flash_value = 110;
					// Lights output:
					PORTD |= (1<<PD5);		// NAV LIGHTS ON
    20d2:	95 9a       	sbi	0x12, 5	; 18
					if ((flap_setpoint == FLAP_1)||(flap_setpoint == FLAP_FULL))
    20d4:	80 91 88 00 	lds	r24, 0x0088
    20d8:	90 91 89 00 	lds	r25, 0x0089
    20dc:	8c 36       	cpi	r24, 0x6C	; 108
    20de:	f7 e0       	ldi	r31, 0x07	; 7
    20e0:	9f 07       	cpc	r25, r31
    20e2:	19 f0       	breq	.+6      	; 0x20ea <main+0xcac>
    20e4:	8c 3f       	cpi	r24, 0xFC	; 252
    20e6:	98 40       	sbci	r25, 0x08	; 8
    20e8:	09 f4       	brne	.+2      	; 0x20ec <main+0xcae>
					{
						PORTD |= (1<<PD6);		// LANDING LIGHTS ON
    20ea:	96 9a       	sbi	0x12, 6	; 18
					}
					
					flash_count++;
    20ec:	80 91 4e 02 	lds	r24, 0x024E
    20f0:	8f 5f       	subi	r24, 0xFF	; 255
    20f2:	80 93 4e 02 	sts	0x024E, r24
					if (flash_count == flash_value)
    20f6:	8e 36       	cpi	r24, 0x6E	; 110
    20f8:	09 f4       	brne	.+2      	; 0x20fc <main+0xcbe>
					{
						// Strobe On
						PORTD |= (1<<PD4);
    20fa:	94 9a       	sbi	0x12, 4	; 18
					}
					if (flash_count == (flash_value+2))
    20fc:	80 91 4e 02 	lds	r24, 0x024E
    2100:	80 37       	cpi	r24, 0x70	; 112
    2102:	09 f4       	brne	.+2      	; 0x2106 <main+0xcc8>
					{
						// Strobe off
						PORTD &= ~(1<<PD4);
    2104:	94 98       	cbi	0x12, 4	; 18
					}
					if (flash_count == flash_value+6)
    2106:	80 91 4e 02 	lds	r24, 0x024E
    210a:	84 37       	cpi	r24, 0x74	; 116
    210c:	09 f4       	brne	.+2      	; 0x2110 <main+0xcd2>
					{
						//Strobe on
						PORTD |= (1<<PD4);
    210e:	94 9a       	sbi	0x12, 4	; 18
					}
					if (flash_count == (flash_value+8))
    2110:	80 91 4e 02 	lds	r24, 0x024E
    2114:	86 37       	cpi	r24, 0x76	; 118
    2116:	49 f4       	brne	.+18     	; 0x212a <main+0xcec>
					{
						//Strobe off
						PORTD &= ~(1<<PD4);
    2118:	94 98       	cbi	0x12, 4	; 18
						flash_count = 0;
    211a:	10 92 4e 02 	sts	0x024E, r1
    211e:	05 c0       	rjmp	.+10     	; 0x212a <main+0xcec>
					}
					
				}
				else if(lights_enabled == FALSE)
    2120:	81 11       	cpse	r24, r1
    2122:	03 c0       	rjmp	.+6      	; 0x212a <main+0xcec>
				{
					// Keep all LEDS off
					PORTD &= ~((1<<PD4)|(1<<PD5)|(1<<PD6)|(1<<PD7));
    2124:	82 b3       	in	r24, 0x12	; 18
    2126:	8f 70       	andi	r24, 0x0F	; 15
    2128:	82 bb       	out	0x12, r24	; 18
				
				
				//*******************************************
				// Control of Modes
				// changing from knob to normal switch for mode control
				if(ctrl_in[5]>144) Ctrl_Mode = HOLD_CTRL;								// Dn Position
    212a:	ae e3       	ldi	r26, 0x3E	; 62
    212c:	b2 e0       	ldi	r27, 0x02	; 2
    212e:	8d 91       	ld	r24, X+
    2130:	9c 91       	ld	r25, X
    2132:	81 39       	cpi	r24, 0x91	; 145
    2134:	91 05       	cpc	r25, r1
    2136:	24 f0       	brlt	.+8      	; 0x2140 <main+0xd02>
    2138:	83 e0       	ldi	r24, 0x03	; 3
    213a:	80 93 b1 02 	sts	0x02B1, r24
    213e:	12 c0       	rjmp	.+36     	; 0x2164 <main+0xd26>
				else if (ctrl_in[5] > 139 && ctrl_in[5] < 144) Ctrl_Mode = DIRECT_CTRL;	// Middle Position
    2140:	ee e3       	ldi	r30, 0x3E	; 62
    2142:	f2 e0       	ldi	r31, 0x02	; 2
    2144:	80 81       	ld	r24, Z
    2146:	91 81       	ldd	r25, Z+1	; 0x01
    2148:	8c 38       	cpi	r24, 0x8C	; 140
    214a:	91 05       	cpc	r25, r1
    214c:	44 f0       	brlt	.+16     	; 0x215e <main+0xd20>
    214e:	80 81       	ld	r24, Z
    2150:	91 81       	ldd	r25, Z+1	; 0x01
    2152:	80 39       	cpi	r24, 0x90	; 144
    2154:	91 05       	cpc	r25, r1
    2156:	1c f4       	brge	.+6      	; 0x215e <main+0xd20>
    2158:	10 92 b1 02 	sts	0x02B1, r1
    215c:	03 c0       	rjmp	.+6      	; 0x2164 <main+0xd26>
				else Ctrl_Mode = DAMPED_CTRL;											// Up Position
    215e:	82 e0       	ldi	r24, 0x02	; 2
    2160:	80 93 b1 02 	sts	0x02B1, r24
								
				if(Ctrl_Mode_prev != Ctrl_Mode)
    2164:	80 91 b1 02 	lds	r24, 0x02B1
    2168:	90 91 b0 02 	lds	r25, 0x02B0
    216c:	98 17       	cp	r25, r24
    216e:	21 f0       	breq	.+8      	; 0x2178 <main+0xd3a>
				{
					// If a state change happens
					state_change = TRUE;
    2170:	91 e0       	ldi	r25, 0x01	; 1
    2172:	90 93 af 02 	sts	0x02AF, r25
    2176:	02 c0       	rjmp	.+4      	; 0x217c <main+0xd3e>
				}
				else
				{
					// Otherwise no state change
					state_change = FALSE;
    2178:	10 92 af 02 	sts	0x02AF, r1
				
				//******************************************						
				// use this flag to switch between long / lat tuning mode
				uint8_t mode = 3;
				
				switch(Ctrl_Mode)
    217c:	82 30       	cpi	r24, 0x02	; 2
    217e:	09 f4       	brne	.+2      	; 0x2182 <main+0xd44>
    2180:	14 c2       	rjmp	.+1064   	; 0x25aa <main+0x116c>
    2182:	20 f4       	brcc	.+8      	; 0x218c <main+0xd4e>
    2184:	88 23       	and	r24, r24
    2186:	51 f0       	breq	.+20     	; 0x219c <main+0xd5e>
    2188:	0c 94 b0 19 	jmp	0x3360	; 0x3360 <main+0x1f22>
    218c:	83 30       	cpi	r24, 0x03	; 3
    218e:	09 f4       	brne	.+2      	; 0x2192 <main+0xd54>
    2190:	ef c3       	rjmp	.+2014   	; 0x2970 <main+0x1532>
    2192:	84 30       	cpi	r24, 0x04	; 4
    2194:	11 f0       	breq	.+4      	; 0x219a <main+0xd5c>
    2196:	0c 94 b0 19 	jmp	0x3360	; 0x3360 <main+0x1f22>
    219a:	fa c0       	rjmp	.+500    	; 0x2390 <main+0xf52>
				{
					case DIRECT_CTRL:
					// Direct Law is used for direct Remote Control input -> Servos
					// + / - in front of the long bracket inverses the Control
						if(state_change == TRUE)
    219c:	80 91 af 02 	lds	r24, 0x02AF
    21a0:	81 30       	cpi	r24, 0x01	; 1
    21a2:	21 f4       	brne	.+8      	; 0x21ac <main+0xd6e>
						{
							write_string_ln("DIRECT CTRL");
    21a4:	83 e5       	ldi	r24, 0x53	; 83
    21a6:	91 e0       	ldi	r25, 0x01	; 1
    21a8:	0e 94 f1 1b 	call	0x37e2	; 0x37e2 <write_string_ln>
						}

						 ctrl_out[motor]	=	NEUTRAL+((ctrl_in[stick_l_up_down]-SERVO_TRIM_MOTOR)*SERVO_GAIN_MOTOR);		
    21ac:	a4 e3       	ldi	r26, 0x34	; 52
    21ae:	b2 e0       	ldi	r27, 0x02	; 2
    21b0:	2d 91       	ld	r18, X+
    21b2:	3c 91       	ld	r19, X
    21b4:	22 0f       	add	r18, r18
    21b6:	33 1f       	adc	r19, r19
    21b8:	c9 01       	movw	r24, r18
    21ba:	88 0f       	add	r24, r24
    21bc:	99 1f       	adc	r25, r25
    21be:	88 0f       	add	r24, r24
    21c0:	99 1f       	adc	r25, r25
    21c2:	88 0f       	add	r24, r24
    21c4:	99 1f       	adc	r25, r25
    21c6:	82 1b       	sub	r24, r18
    21c8:	93 0b       	sbc	r25, r19
    21ca:	8e 5d       	subi	r24, 0xDE	; 222
    21cc:	9e 4f       	sbci	r25, 0xFE	; 254
    21ce:	aa 27       	eor	r26, r26
    21d0:	97 fd       	sbrc	r25, 7
    21d2:	a0 95       	com	r26
    21d4:	ba 2f       	mov	r27, r26
    21d6:	e0 e6       	ldi	r30, 0x60	; 96
    21d8:	f0 e0       	ldi	r31, 0x00	; 0
    21da:	80 83       	st	Z, r24
    21dc:	91 83       	std	Z+1, r25	; 0x01
    21de:	a2 83       	std	Z+2, r26	; 0x02
    21e0:	b3 83       	std	Z+3, r27	; 0x03
						 ctrl_out[aileron]	=	NEUTRAL+((ctrl_in[stick_r_left_right]-SERVO_TRIM_AILERON)*SERVO_GAIN_AILERON);
    21e2:	a6 e3       	ldi	r26, 0x36	; 54
    21e4:	b2 e0       	ldi	r27, 0x02	; 2
    21e6:	2d 91       	ld	r18, X+
    21e8:	3c 91       	ld	r19, X
    21ea:	4f e0       	ldi	r20, 0x0F	; 15
    21ec:	42 9f       	mul	r20, r18
    21ee:	c0 01       	movw	r24, r0
    21f0:	43 9f       	mul	r20, r19
    21f2:	90 0d       	add	r25, r0
    21f4:	11 24       	eor	r1, r1
    21f6:	8a 56       	subi	r24, 0x6A	; 106
    21f8:	9f 4f       	sbci	r25, 0xFF	; 255
    21fa:	aa 27       	eor	r26, r26
    21fc:	97 fd       	sbrc	r25, 7
    21fe:	a0 95       	com	r26
    2200:	ba 2f       	mov	r27, r26
    2202:	e4 e6       	ldi	r30, 0x64	; 100
    2204:	f0 e0       	ldi	r31, 0x00	; 0
    2206:	80 83       	st	Z, r24
    2208:	91 83       	std	Z+1, r25	; 0x01
    220a:	a2 83       	std	Z+2, r26	; 0x02
    220c:	b3 83       	std	Z+3, r27	; 0x03
						 ctrl_out[elevator] =	NEUTRAL+((ctrl_in[stick_r_up_down]-SERVO_TRIM_ELEVATOR)*SERVO_GAIN_ELEVATOR);
    220e:	20 91 38 02 	lds	r18, 0x0238
    2212:	30 91 39 02 	lds	r19, 0x0239
    2216:	42 9f       	mul	r20, r18
    2218:	c0 01       	movw	r24, r0
    221a:	43 9f       	mul	r20, r19
    221c:	90 0d       	add	r25, r0
    221e:	11 24       	eor	r1, r1
    2220:	aa 27       	eor	r26, r26
    2222:	97 fd       	sbrc	r25, 7
    2224:	a0 95       	com	r26
    2226:	ba 2f       	mov	r27, r26
    2228:	e8 e6       	ldi	r30, 0x68	; 104
    222a:	f0 e0       	ldi	r31, 0x00	; 0
    222c:	80 83       	st	Z, r24
    222e:	91 83       	std	Z+1, r25	; 0x01
    2230:	a2 83       	std	Z+2, r26	; 0x02
    2232:	b3 83       	std	Z+3, r27	; 0x03
						 ctrl_out[rudder]	=	NEUTRAL+((ctrl_in[stick_l_left_right]-SERVO_TRIM_RUDDER)*SERVO_GAIN_RUDDER);
    2234:	20 91 3a 02 	lds	r18, 0x023A
    2238:	30 91 3b 02 	lds	r19, 0x023B
    223c:	22 0f       	add	r18, r18
    223e:	33 1f       	adc	r19, r19
    2240:	c9 01       	movw	r24, r18
    2242:	88 0f       	add	r24, r24
    2244:	99 1f       	adc	r25, r25
    2246:	88 0f       	add	r24, r24
    2248:	99 1f       	adc	r25, r25
    224a:	88 0f       	add	r24, r24
    224c:	99 1f       	adc	r25, r25
    224e:	82 1b       	sub	r24, r18
    2250:	93 0b       	sbc	r25, r19
    2252:	8e 5d       	subi	r24, 0xDE	; 222
    2254:	9e 4f       	sbci	r25, 0xFE	; 254
    2256:	aa 27       	eor	r26, r26
    2258:	97 fd       	sbrc	r25, 7
    225a:	a0 95       	com	r26
    225c:	ba 2f       	mov	r27, r26
    225e:	ec e6       	ldi	r30, 0x6C	; 108
    2260:	f0 e0       	ldi	r31, 0x00	; 0
    2262:	80 83       	st	Z, r24
    2264:	91 83       	std	Z+1, r25	; 0x01
    2266:	a2 83       	std	Z+2, r26	; 0x02
    2268:	b3 83       	std	Z+3, r27	; 0x03
						 
						 // Flap Control
						 if(ctrl_in[rotary_knob]<135 && ctrl_in[rotary_knob]>120)		flap_setpoint = FLAP_UP;
    226a:	80 91 3c 02 	lds	r24, 0x023C
    226e:	90 91 3d 02 	lds	r25, 0x023D
    2272:	87 38       	cpi	r24, 0x87	; 135
    2274:	91 05       	cpc	r25, r1
    2276:	74 f4       	brge	.+28     	; 0x2294 <main+0xe56>
    2278:	80 91 3c 02 	lds	r24, 0x023C
    227c:	90 91 3d 02 	lds	r25, 0x023D
    2280:	89 37       	cpi	r24, 0x79	; 121
    2282:	91 05       	cpc	r25, r1
    2284:	3c f0       	brlt	.+14     	; 0x2294 <main+0xe56>
    2286:	86 ee       	ldi	r24, 0xE6	; 230
    2288:	95 e0       	ldi	r25, 0x05	; 5
    228a:	90 93 89 00 	sts	0x0089, r25
    228e:	80 93 88 00 	sts	0x0088, r24
    2292:	29 c0       	rjmp	.+82     	; 0x22e6 <main+0xea8>
						 else if(ctrl_in[rotary_knob]<150 && ctrl_in[rotary_knob]>135)	flap_setpoint = FLAP_1;
    2294:	80 91 3c 02 	lds	r24, 0x023C
    2298:	90 91 3d 02 	lds	r25, 0x023D
    229c:	86 39       	cpi	r24, 0x96	; 150
    229e:	91 05       	cpc	r25, r1
    22a0:	74 f4       	brge	.+28     	; 0x22be <main+0xe80>
    22a2:	80 91 3c 02 	lds	r24, 0x023C
    22a6:	90 91 3d 02 	lds	r25, 0x023D
    22aa:	88 38       	cpi	r24, 0x88	; 136
    22ac:	91 05       	cpc	r25, r1
    22ae:	3c f0       	brlt	.+14     	; 0x22be <main+0xe80>
    22b0:	8c e6       	ldi	r24, 0x6C	; 108
    22b2:	97 e0       	ldi	r25, 0x07	; 7
    22b4:	90 93 89 00 	sts	0x0089, r25
    22b8:	80 93 88 00 	sts	0x0088, r24
    22bc:	14 c0       	rjmp	.+40     	; 0x22e6 <main+0xea8>
						 else if(ctrl_in[rotary_knob]<160 && ctrl_in[rotary_knob]>150)	flap_setpoint = FLAP_FULL;
    22be:	80 91 3c 02 	lds	r24, 0x023C
    22c2:	90 91 3d 02 	lds	r25, 0x023D
    22c6:	80 3a       	cpi	r24, 0xA0	; 160
    22c8:	91 05       	cpc	r25, r1
    22ca:	6c f4       	brge	.+26     	; 0x22e6 <main+0xea8>
    22cc:	80 91 3c 02 	lds	r24, 0x023C
    22d0:	90 91 3d 02 	lds	r25, 0x023D
    22d4:	87 39       	cpi	r24, 0x97	; 151
    22d6:	91 05       	cpc	r25, r1
    22d8:	34 f0       	brlt	.+12     	; 0x22e6 <main+0xea8>
    22da:	8c ef       	ldi	r24, 0xFC	; 252
    22dc:	98 e0       	ldi	r25, 0x08	; 8
    22de:	90 93 89 00 	sts	0x0089, r25
    22e2:	80 93 88 00 	sts	0x0088, r24
						 
						 // drive flap with sample_time steps delay 
						 if(ctrl_out[flap] < flap_setpoint)		ctrl_out[flap]+= FLAP_DELTA;
    22e6:	a0 e7       	ldi	r26, 0x70	; 112
    22e8:	b0 e0       	ldi	r27, 0x00	; 0
    22ea:	4d 91       	ld	r20, X+
    22ec:	5d 91       	ld	r21, X+
    22ee:	6d 91       	ld	r22, X+
    22f0:	7c 91       	ld	r23, X
    22f2:	80 91 88 00 	lds	r24, 0x0088
    22f6:	90 91 89 00 	lds	r25, 0x0089
    22fa:	a0 e0       	ldi	r26, 0x00	; 0
    22fc:	b0 e0       	ldi	r27, 0x00	; 0
    22fe:	48 17       	cp	r20, r24
    2300:	59 07       	cpc	r21, r25
    2302:	6a 07       	cpc	r22, r26
    2304:	7b 07       	cpc	r23, r27
    2306:	74 f4       	brge	.+28     	; 0x2324 <main+0xee6>
    2308:	e0 e7       	ldi	r30, 0x70	; 112
    230a:	f0 e0       	ldi	r31, 0x00	; 0
    230c:	80 81       	ld	r24, Z
    230e:	91 81       	ldd	r25, Z+1	; 0x01
    2310:	a2 81       	ldd	r26, Z+2	; 0x02
    2312:	b3 81       	ldd	r27, Z+3	; 0x03
    2314:	0a 96       	adiw	r24, 0x0a	; 10
    2316:	a1 1d       	adc	r26, r1
    2318:	b1 1d       	adc	r27, r1
    231a:	80 83       	st	Z, r24
    231c:	91 83       	std	Z+1, r25	; 0x01
    231e:	a2 83       	std	Z+2, r26	; 0x02
    2320:	b3 83       	std	Z+3, r27	; 0x03
    2322:	1d c0       	rjmp	.+58     	; 0x235e <main+0xf20>
						 else if(ctrl_out[flap] > flap_setpoint)	ctrl_out[flap]-= FLAP_DELTA;
    2324:	e0 e7       	ldi	r30, 0x70	; 112
    2326:	f0 e0       	ldi	r31, 0x00	; 0
    2328:	40 81       	ld	r20, Z
    232a:	51 81       	ldd	r21, Z+1	; 0x01
    232c:	62 81       	ldd	r22, Z+2	; 0x02
    232e:	73 81       	ldd	r23, Z+3	; 0x03
    2330:	84 17       	cp	r24, r20
    2332:	95 07       	cpc	r25, r21
    2334:	a6 07       	cpc	r26, r22
    2336:	b7 07       	cpc	r27, r23
    2338:	64 f4       	brge	.+24     	; 0x2352 <main+0xf14>
    233a:	80 81       	ld	r24, Z
    233c:	91 81       	ldd	r25, Z+1	; 0x01
    233e:	a2 81       	ldd	r26, Z+2	; 0x02
    2340:	b3 81       	ldd	r27, Z+3	; 0x03
    2342:	0a 97       	sbiw	r24, 0x0a	; 10
    2344:	a1 09       	sbc	r26, r1
    2346:	b1 09       	sbc	r27, r1
    2348:	80 83       	st	Z, r24
    234a:	91 83       	std	Z+1, r25	; 0x01
    234c:	a2 83       	std	Z+2, r26	; 0x02
    234e:	b3 83       	std	Z+3, r27	; 0x03
    2350:	06 c0       	rjmp	.+12     	; 0x235e <main+0xf20>
						 else ctrl_out[flap] = flap_setpoint;
    2352:	e0 e7       	ldi	r30, 0x70	; 112
    2354:	f0 e0       	ldi	r31, 0x00	; 0
    2356:	80 83       	st	Z, r24
    2358:	91 83       	std	Z+1, r25	; 0x01
    235a:	a2 83       	std	Z+2, r26	; 0x02
    235c:	b3 83       	std	Z+3, r27	; 0x03
						 
						 // camera gimbal servo
						 ctrl_out[camera_y] = NEUTRAL;
    235e:	8a ec       	ldi	r24, 0xCA	; 202
    2360:	98 e0       	ldi	r25, 0x08	; 8
    2362:	a0 e0       	ldi	r26, 0x00	; 0
    2364:	b0 e0       	ldi	r27, 0x00	; 0
    2366:	80 93 74 00 	sts	0x0074, r24
    236a:	90 93 75 00 	sts	0x0075, r25
    236e:	a0 93 76 00 	sts	0x0076, r26
    2372:	b0 93 77 00 	sts	0x0077, r27
						 ctrl_out[camera_z] = SERVO_GIMB_Z_STOP;	// the z axis Servo is a hacked 360 deg Servo without position information
    2376:	85 e8       	ldi	r24, 0x85	; 133
    2378:	92 e0       	ldi	r25, 0x02	; 2
    237a:	a0 e0       	ldi	r26, 0x00	; 0
    237c:	b0 e0       	ldi	r27, 0x00	; 0
    237e:	80 93 78 00 	sts	0x0078, r24
    2382:	90 93 79 00 	sts	0x0079, r25
    2386:	a0 93 7a 00 	sts	0x007A, r26
    238a:	b0 93 7b 00 	sts	0x007B, r27
																	// There is no feedback from the servo on its position.	
																	// For leaving and reaching a new position, only time integration would work...
						 
					break;
    238e:	e8 c7       	rjmp	.+4048   	; 0x3360 <main+0x1f22>
						//###########################################
						// Tuning Longitudinal Mode Closed Loop Tuning
						if (mode == 3)
							{
						
							if(state_change == TRUE)
    2390:	80 91 af 02 	lds	r24, 0x02AF
    2394:	81 30       	cpi	r24, 0x01	; 1
    2396:	f1 f4       	brne	.+60     	; 0x23d4 <main+0xf96>
							{
								write_string_ln("*Speed Control*");
    2398:	8f e5       	ldi	r24, 0x5F	; 95
    239a:	91 e0       	ldi	r25, 0x01	; 1
    239c:	0e 94 f1 1b 	call	0x37e2	; 0x37e2 <write_string_ln>
								speed_error = 0;
								speed_error_sum = 0;
    23a0:	10 92 78 05 	sts	0x0578, r1
    23a4:	10 92 79 05 	sts	0x0579, r1
    23a8:	10 92 7a 05 	sts	0x057A, r1
    23ac:	10 92 7b 05 	sts	0x057B, r1
								speed_hold = speed_filt;
    23b0:	60 91 32 05 	lds	r22, 0x0532
    23b4:	70 91 33 05 	lds	r23, 0x0533
    23b8:	88 27       	eor	r24, r24
    23ba:	77 fd       	sbrc	r23, 7
    23bc:	80 95       	com	r24
    23be:	98 2f       	mov	r25, r24
    23c0:	0e 94 ab 1d 	call	0x3b56	; 0x3b56 <__floatsisf>
    23c4:	60 93 a0 05 	sts	0x05A0, r22
    23c8:	70 93 a1 05 	sts	0x05A1, r23
    23cc:	80 93 a2 05 	sts	0x05A2, r24
    23d0:	90 93 a3 05 	sts	0x05A3, r25
								
							}
							// Trying of Speed control
						
							ctrl_out[aileron]	=	NEUTRAL+((ctrl_in[stick_r_left_right]-SERVO_TRIM_AILERON)*SERVO_GAIN_AILERON);
    23d4:	a6 e3       	ldi	r26, 0x36	; 54
    23d6:	b2 e0       	ldi	r27, 0x02	; 2
    23d8:	2d 91       	ld	r18, X+
    23da:	3c 91       	ld	r19, X
    23dc:	4f e0       	ldi	r20, 0x0F	; 15
    23de:	42 9f       	mul	r20, r18
    23e0:	c0 01       	movw	r24, r0
    23e2:	43 9f       	mul	r20, r19
    23e4:	90 0d       	add	r25, r0
    23e6:	11 24       	eor	r1, r1
    23e8:	8a 56       	subi	r24, 0x6A	; 106
    23ea:	9f 4f       	sbci	r25, 0xFF	; 255
    23ec:	aa 27       	eor	r26, r26
    23ee:	97 fd       	sbrc	r25, 7
    23f0:	a0 95       	com	r26
    23f2:	ba 2f       	mov	r27, r26
    23f4:	e4 e6       	ldi	r30, 0x64	; 100
    23f6:	f0 e0       	ldi	r31, 0x00	; 0
    23f8:	80 83       	st	Z, r24
    23fa:	91 83       	std	Z+1, r25	; 0x01
    23fc:	a2 83       	std	Z+2, r26	; 0x02
    23fe:	b3 83       	std	Z+3, r27	; 0x03
							ctrl_out[elevator] =	NEUTRAL+((ctrl_in[stick_r_up_down]-SERVO_TRIM_ELEVATOR)*SERVO_GAIN_ELEVATOR);
    2400:	20 91 38 02 	lds	r18, 0x0238
    2404:	30 91 39 02 	lds	r19, 0x0239
    2408:	42 9f       	mul	r20, r18
    240a:	c0 01       	movw	r24, r0
    240c:	43 9f       	mul	r20, r19
    240e:	90 0d       	add	r25, r0
    2410:	11 24       	eor	r1, r1
    2412:	aa 27       	eor	r26, r26
    2414:	97 fd       	sbrc	r25, 7
    2416:	a0 95       	com	r26
    2418:	ba 2f       	mov	r27, r26
    241a:	e8 e6       	ldi	r30, 0x68	; 104
    241c:	f0 e0       	ldi	r31, 0x00	; 0
    241e:	80 83       	st	Z, r24
    2420:	91 83       	std	Z+1, r25	; 0x01
    2422:	a2 83       	std	Z+2, r26	; 0x02
    2424:	b3 83       	std	Z+3, r27	; 0x03
							ctrl_out[rudder]	=	NEUTRAL+((ctrl_in[stick_l_left_right]-SERVO_TRIM_RUDDER)*SERVO_GAIN_RUDDER);
    2426:	20 91 3a 02 	lds	r18, 0x023A
    242a:	30 91 3b 02 	lds	r19, 0x023B
    242e:	22 0f       	add	r18, r18
    2430:	33 1f       	adc	r19, r19
    2432:	c9 01       	movw	r24, r18
    2434:	88 0f       	add	r24, r24
    2436:	99 1f       	adc	r25, r25
    2438:	88 0f       	add	r24, r24
    243a:	99 1f       	adc	r25, r25
    243c:	88 0f       	add	r24, r24
    243e:	99 1f       	adc	r25, r25
    2440:	82 1b       	sub	r24, r18
    2442:	93 0b       	sbc	r25, r19
    2444:	8e 5d       	subi	r24, 0xDE	; 222
    2446:	9e 4f       	sbci	r25, 0xFE	; 254
    2448:	aa 27       	eor	r26, r26
    244a:	97 fd       	sbrc	r25, 7
    244c:	a0 95       	com	r26
    244e:	ba 2f       	mov	r27, r26
    2450:	ec e6       	ldi	r30, 0x6C	; 108
    2452:	f0 e0       	ldi	r31, 0x00	; 0
    2454:	80 83       	st	Z, r24
    2456:	91 83       	std	Z+1, r25	; 0x01
    2458:	a2 83       	std	Z+2, r26	; 0x02
    245a:	b3 83       	std	Z+3, r27	; 0x03
							
						//**********************************************
						// Speed control (PI only -> noisy signal) with motor
						speed_error = speed_hold - speed; // Positive Error (too slow) shall give positive input (motor increase)
    245c:	20 91 98 05 	lds	r18, 0x0598
    2460:	30 91 99 05 	lds	r19, 0x0599
    2464:	40 91 9a 05 	lds	r20, 0x059A
    2468:	50 91 9b 05 	lds	r21, 0x059B
    246c:	60 91 a0 05 	lds	r22, 0x05A0
    2470:	70 91 a1 05 	lds	r23, 0x05A1
    2474:	80 91 a2 05 	lds	r24, 0x05A2
    2478:	90 91 a3 05 	lds	r25, 0x05A3
    247c:	0e 94 45 1c 	call	0x388a	; 0x388a <__subsf3>
    2480:	66 2e       	mov	r6, r22
    2482:	77 2e       	mov	r7, r23
    2484:	08 2f       	mov	r16, r24
    2486:	19 2f       	mov	r17, r25
    2488:	86 2f       	mov	r24, r22
    248a:	97 2d       	mov	r25, r7
    248c:	a0 2f       	mov	r26, r16
    248e:	b1 2f       	mov	r27, r17
    2490:	80 93 44 05 	sts	0x0544, r24
    2494:	90 93 45 05 	sts	0x0545, r25
    2498:	a0 93 46 05 	sts	0x0546, r26
    249c:	b0 93 47 05 	sts	0x0547, r27
						speed_error_sum += speed_error;	
    24a0:	20 91 78 05 	lds	r18, 0x0578
    24a4:	30 91 79 05 	lds	r19, 0x0579
    24a8:	40 91 7a 05 	lds	r20, 0x057A
    24ac:	50 91 7b 05 	lds	r21, 0x057B
    24b0:	66 2d       	mov	r22, r6
    24b2:	77 2d       	mov	r23, r7
    24b4:	80 2f       	mov	r24, r16
    24b6:	91 2f       	mov	r25, r17
    24b8:	0e 94 46 1c 	call	0x388c	; 0x388c <__addsf3>
    24bc:	c6 2e       	mov	r12, r22
    24be:	d7 2e       	mov	r13, r23
    24c0:	e8 2e       	mov	r14, r24
    24c2:	f9 2e       	mov	r15, r25
    24c4:	98 2f       	mov	r25, r24
    24c6:	4c 2d       	mov	r20, r12
    24c8:	5d 2d       	mov	r21, r13
    24ca:	69 2f       	mov	r22, r25
    24cc:	7f 2d       	mov	r23, r15
    24ce:	40 93 78 05 	sts	0x0578, r20
    24d2:	50 93 79 05 	sts	0x0579, r21
    24d6:	60 93 7a 05 	sts	0x057A, r22
    24da:	70 93 7b 05 	sts	0x057B, r23
						// when too slow (bracket turns positive) the motor gets increased
						ctrl_out[motor] = trimmed_motor + (KP_SPEED*speed_error + KI_SPEED * speed_error_sum * sample_time);
    24de:	60 91 a6 02 	lds	r22, 0x02A6
    24e2:	70 91 a7 02 	lds	r23, 0x02A7
    24e6:	80 91 a8 02 	lds	r24, 0x02A8
    24ea:	90 91 a9 02 	lds	r25, 0x02A9
    24ee:	0e 94 ab 1d 	call	0x3b56	; 0x3b56 <__floatsisf>
    24f2:	4b 01       	movw	r8, r22
    24f4:	5c 01       	movw	r10, r24
    24f6:	20 91 46 02 	lds	r18, 0x0246
    24fa:	30 91 47 02 	lds	r19, 0x0247
    24fe:	40 91 48 02 	lds	r20, 0x0248
    2502:	50 91 49 02 	lds	r21, 0x0249
    2506:	6c 2d       	mov	r22, r12
    2508:	7d 2d       	mov	r23, r13
    250a:	8e 2d       	mov	r24, r14
    250c:	9f 2d       	mov	r25, r15
    250e:	0e 94 8b 1e 	call	0x3d16	; 0x3d16 <__mulsf3>
    2512:	9b 01       	movw	r18, r22
    2514:	ac 01       	movw	r20, r24
    2516:	66 2d       	mov	r22, r6
    2518:	77 2d       	mov	r23, r7
    251a:	80 2f       	mov	r24, r16
    251c:	91 2f       	mov	r25, r17
    251e:	0e 94 46 1c 	call	0x388c	; 0x388c <__addsf3>
    2522:	9b 01       	movw	r18, r22
    2524:	ac 01       	movw	r20, r24
    2526:	c5 01       	movw	r24, r10
    2528:	b4 01       	movw	r22, r8
    252a:	0e 94 46 1c 	call	0x388c	; 0x388c <__addsf3>
    252e:	0e 94 78 1d 	call	0x3af0	; 0x3af0 <__fixsfsi>
    2532:	a0 e6       	ldi	r26, 0x60	; 96
    2534:	b0 e0       	ldi	r27, 0x00	; 0
    2536:	6d 93       	st	X+, r22
    2538:	7d 93       	st	X+, r23
    253a:	8d 93       	st	X+, r24
    253c:	9c 93       	st	X, r25
    253e:	13 97       	sbiw	r26, 0x03	; 3
						if(ctrl_out[motor] > RIGHT) ctrl_out[motor] = RIGHT;
    2540:	8d 91       	ld	r24, X+
    2542:	9d 91       	ld	r25, X+
    2544:	0d 90       	ld	r0, X+
    2546:	bc 91       	ld	r27, X
    2548:	a0 2d       	mov	r26, r0
    254a:	89 3b       	cpi	r24, 0xB9	; 185
    254c:	9b 40       	sbci	r25, 0x0B	; 11
    254e:	a1 05       	cpc	r26, r1
    2550:	b1 05       	cpc	r27, r1
    2552:	5c f0       	brlt	.+22     	; 0x256a <main+0x112c>
    2554:	88 eb       	ldi	r24, 0xB8	; 184
    2556:	9b e0       	ldi	r25, 0x0B	; 11
    2558:	a0 e0       	ldi	r26, 0x00	; 0
    255a:	b0 e0       	ldi	r27, 0x00	; 0
    255c:	e0 e6       	ldi	r30, 0x60	; 96
    255e:	f0 e0       	ldi	r31, 0x00	; 0
    2560:	80 83       	st	Z, r24
    2562:	91 83       	std	Z+1, r25	; 0x01
    2564:	a2 83       	std	Z+2, r26	; 0x02
    2566:	b3 83       	std	Z+3, r27	; 0x03
    2568:	13 c0       	rjmp	.+38     	; 0x2590 <main+0x1152>
						else if (ctrl_out[motor] < LEFT) ctrl_out[motor] = LEFT;
    256a:	e0 e6       	ldi	r30, 0x60	; 96
    256c:	f0 e0       	ldi	r31, 0x00	; 0
    256e:	80 81       	ld	r24, Z
    2570:	91 81       	ldd	r25, Z+1	; 0x01
    2572:	a2 81       	ldd	r26, Z+2	; 0x02
    2574:	b3 81       	ldd	r27, Z+3	; 0x03
    2576:	88 3e       	cpi	r24, 0xE8	; 232
    2578:	93 40       	sbci	r25, 0x03	; 3
    257a:	a1 05       	cpc	r26, r1
    257c:	b1 05       	cpc	r27, r1
    257e:	44 f4       	brge	.+16     	; 0x2590 <main+0x1152>
    2580:	88 ee       	ldi	r24, 0xE8	; 232
    2582:	93 e0       	ldi	r25, 0x03	; 3
    2584:	a0 e0       	ldi	r26, 0x00	; 0
    2586:	b0 e0       	ldi	r27, 0x00	; 0
    2588:	80 83       	st	Z, r24
    258a:	91 83       	std	Z+1, r25	; 0x01
    258c:	a2 83       	std	Z+2, r26	; 0x02
    258e:	b3 83       	std	Z+3, r27	; 0x03
						speed_error_prev = speed_error;
    2590:	86 2d       	mov	r24, r6
    2592:	97 2d       	mov	r25, r7
    2594:	a0 2f       	mov	r26, r16
    2596:	b1 2f       	mov	r27, r17
    2598:	80 93 92 02 	sts	0x0292, r24
    259c:	90 93 93 02 	sts	0x0293, r25
    25a0:	a0 93 94 02 	sts	0x0294, r26
    25a4:	b0 93 95 02 	sts	0x0295, r27
    25a8:	db c6       	rjmp	.+3510   	; 0x3360 <main+0x1f22>
					break;
					
					case DAMPED_CTRL:
					// Heading control test
					// entry condition
						if(state_change == TRUE)
    25aa:	80 91 af 02 	lds	r24, 0x02AF
    25ae:	81 30       	cpi	r24, 0x01	; 1
    25b0:	09 f0       	breq	.+2      	; 0x25b4 <main+0x1176>
    25b2:	f0 c0       	rjmp	.+480    	; 0x2794 <main+0x1356>
						{
							write_string_ln("Damped CONTROL");
    25b4:	8f e6       	ldi	r24, 0x6F	; 111
    25b6:	91 e0       	ldi	r25, 0x01	; 1
    25b8:	0e 94 f1 1b 	call	0x37e2	; 0x37e2 <write_string_ln>
							// Setting current values as control values
							// High level loops
							//alt_hold = altitude_filt;		// controlling barometric altitude
							alt_hold = altitude_filt;
    25bc:	80 91 72 05 	lds	r24, 0x0572
    25c0:	90 91 73 05 	lds	r25, 0x0573
    25c4:	90 93 35 05 	sts	0x0535, r25
    25c8:	80 93 34 05 	sts	0x0534, r24
							alt_hold_0 = alt_hold;			// used for finding previous altitude again
    25cc:	90 93 9d 02 	sts	0x029D, r25
    25d0:	80 93 9c 02 	sts	0x029C, r24
							heading_hold = heading;	// controlling heading
    25d4:	80 91 a4 05 	lds	r24, 0x05A4
    25d8:	90 91 a5 05 	lds	r25, 0x05A5
    25dc:	90 93 96 05 	sts	0x0596, r25
    25e0:	80 93 95 05 	sts	0x0595, r24
							
							// middle loops (if required)
							Phi_hold_0 = Phi;			// using current phi as phi_0
    25e4:	60 91 8d 02 	lds	r22, 0x028D
    25e8:	70 91 8e 02 	lds	r23, 0x028E
    25ec:	88 27       	eor	r24, r24
    25ee:	77 fd       	sbrc	r23, 7
    25f0:	80 95       	com	r24
    25f2:	98 2f       	mov	r25, r24
    25f4:	0e 94 ab 1d 	call	0x3b56	; 0x3b56 <__floatsisf>
    25f8:	60 93 89 02 	sts	0x0289, r22
    25fc:	70 93 8a 02 	sts	0x028A, r23
    2600:	80 93 8b 02 	sts	0x028B, r24
    2604:	90 93 8c 02 	sts	0x028C, r25
							Phi_hold = Phi;				// using current phi as hold value
    2608:	60 93 36 05 	sts	0x0536, r22
    260c:	70 93 37 05 	sts	0x0537, r23
    2610:	80 93 38 05 	sts	0x0538, r24
    2614:	90 93 39 05 	sts	0x0539, r25
							Theta_hold = Theta;			// using current theta as theta_0
    2618:	80 91 83 05 	lds	r24, 0x0583
    261c:	90 91 84 05 	lds	r25, 0x0584
    2620:	90 93 4d 05 	sts	0x054D, r25
    2624:	80 93 4c 05 	sts	0x054C, r24
							speed_hold = speed_filt;	// current speed reading for speed control				
    2628:	60 91 32 05 	lds	r22, 0x0532
    262c:	70 91 33 05 	lds	r23, 0x0533
    2630:	88 27       	eor	r24, r24
    2632:	77 fd       	sbrc	r23, 7
    2634:	80 95       	com	r24
    2636:	98 2f       	mov	r25, r24
    2638:	0e 94 ab 1d 	call	0x3b56	; 0x3b56 <__floatsisf>
    263c:	60 93 a0 05 	sts	0x05A0, r22
    2640:	70 93 a1 05 	sts	0x05A1, r23
    2644:	80 93 a2 05 	sts	0x05A2, r24
    2648:	90 93 a3 05 	sts	0x05A3, r25
							
							// Setting current input as "trimmed input"
							trimmed_elevator = ctrl_out[elevator]; 
    264c:	e8 e6       	ldi	r30, 0x68	; 104
    264e:	f0 e0       	ldi	r31, 0x00	; 0
    2650:	80 81       	ld	r24, Z
    2652:	91 81       	ldd	r25, Z+1	; 0x01
    2654:	a2 81       	ldd	r26, Z+2	; 0x02
    2656:	b3 81       	ldd	r27, Z+3	; 0x03
    2658:	80 93 aa 02 	sts	0x02AA, r24
    265c:	90 93 ab 02 	sts	0x02AB, r25
    2660:	a0 93 ac 02 	sts	0x02AC, r26
    2664:	b0 93 ad 02 	sts	0x02AD, r27
							trimmed_aileron = ctrl_out[aileron];
    2668:	e4 e6       	ldi	r30, 0x64	; 100
    266a:	f0 e0       	ldi	r31, 0x00	; 0
    266c:	80 81       	ld	r24, Z
    266e:	91 81       	ldd	r25, Z+1	; 0x01
    2670:	a2 81       	ldd	r26, Z+2	; 0x02
    2672:	b3 81       	ldd	r27, Z+3	; 0x03
    2674:	80 93 a2 02 	sts	0x02A2, r24
    2678:	90 93 a3 02 	sts	0x02A3, r25
    267c:	a0 93 a4 02 	sts	0x02A4, r26
    2680:	b0 93 a5 02 	sts	0x02A5, r27
							trimmed_motor = ctrl_out[motor];
    2684:	e0 e6       	ldi	r30, 0x60	; 96
    2686:	f0 e0       	ldi	r31, 0x00	; 0
    2688:	80 81       	ld	r24, Z
    268a:	91 81       	ldd	r25, Z+1	; 0x01
    268c:	a2 81       	ldd	r26, Z+2	; 0x02
    268e:	b3 81       	ldd	r27, Z+3	; 0x03
    2690:	80 93 a6 02 	sts	0x02A6, r24
    2694:	90 93 a7 02 	sts	0x02A7, r25
    2698:	a0 93 a8 02 	sts	0x02A8, r26
    269c:	b0 93 a9 02 	sts	0x02A9, r27
							trimmed_rudder = ctrl_out[rudder];
    26a0:	ec e6       	ldi	r30, 0x6C	; 108
    26a2:	f0 e0       	ldi	r31, 0x00	; 0
    26a4:	80 81       	ld	r24, Z
    26a6:	91 81       	ldd	r25, Z+1	; 0x01
    26a8:	a2 81       	ldd	r26, Z+2	; 0x02
    26aa:	b3 81       	ldd	r27, Z+3	; 0x03
    26ac:	80 93 9e 02 	sts	0x029E, r24
    26b0:	90 93 9f 02 	sts	0x029F, r25
    26b4:	a0 93 a0 02 	sts	0x02A0, r26
    26b8:	b0 93 a1 02 	sts	0x02A1, r27
							
							//****************************
							// Resetting the errors
							// altitude
							alt_error = 0;
    26bc:	10 92 9b 02 	sts	0x029B, r1
    26c0:	10 92 9a 02 	sts	0x029A, r1
							alt_error_sum = 0;
    26c4:	10 92 99 02 	sts	0x0299, r1
    26c8:	10 92 98 02 	sts	0x0298, r1
							alt_error_prev = 0;
    26cc:	10 92 97 02 	sts	0x0297, r1
    26d0:	10 92 96 02 	sts	0x0296, r1
							// speed
							speed_error = 0;
    26d4:	10 92 44 05 	sts	0x0544, r1
    26d8:	10 92 45 05 	sts	0x0545, r1
    26dc:	10 92 46 05 	sts	0x0546, r1
    26e0:	10 92 47 05 	sts	0x0547, r1
							speed_error_sum = 0;
    26e4:	10 92 78 05 	sts	0x0578, r1
    26e8:	10 92 79 05 	sts	0x0579, r1
    26ec:	10 92 7a 05 	sts	0x057A, r1
    26f0:	10 92 7b 05 	sts	0x057B, r1
							// Theta
							Theta_error = 0;
    26f4:	10 92 3f 05 	sts	0x053F, r1
    26f8:	10 92 3e 05 	sts	0x053E, r1
							Theta_error_sum = 0;
    26fc:	10 92 71 05 	sts	0x0571, r1
    2700:	10 92 70 05 	sts	0x0570, r1
							Theta_error_prev = 0;
    2704:	10 92 90 02 	sts	0x0290, r1
    2708:	10 92 8f 02 	sts	0x028F, r1
							// Phi
							Phi_error = 0;
    270c:	10 92 85 02 	sts	0x0285, r1
    2710:	10 92 86 02 	sts	0x0286, r1
    2714:	10 92 87 02 	sts	0x0287, r1
    2718:	10 92 88 02 	sts	0x0288, r1
							Phi_error_sum = 0;
    271c:	10 92 81 02 	sts	0x0281, r1
    2720:	10 92 82 02 	sts	0x0282, r1
    2724:	10 92 83 02 	sts	0x0283, r1
    2728:	10 92 84 02 	sts	0x0284, r1
							Phi_error_prev = 0;
    272c:	10 92 7d 02 	sts	0x027D, r1
    2730:	10 92 7e 02 	sts	0x027E, r1
    2734:	10 92 7f 02 	sts	0x027F, r1
    2738:	10 92 80 02 	sts	0x0280, r1
							// *****************************
							write_string("Goal Alt - Heading - Speed: ");write_var(alt_hold);write_string(" - ");write_var(heading_hold);write_string(" - ");write_var_ln(speed_hold);
    273c:	8e e7       	ldi	r24, 0x7E	; 126
    273e:	91 e0       	ldi	r25, 0x01	; 1
    2740:	0e 94 e1 1b 	call	0x37c2	; 0x37c2 <write_string>
    2744:	60 91 34 05 	lds	r22, 0x0534
    2748:	70 91 35 05 	lds	r23, 0x0535
    274c:	88 27       	eor	r24, r24
    274e:	77 fd       	sbrc	r23, 7
    2750:	80 95       	com	r24
    2752:	98 2f       	mov	r25, r24
    2754:	0e 94 05 1c 	call	0x380a	; 0x380a <write_var>
    2758:	8b e9       	ldi	r24, 0x9B	; 155
    275a:	91 e0       	ldi	r25, 0x01	; 1
    275c:	0e 94 e1 1b 	call	0x37c2	; 0x37c2 <write_string>
    2760:	60 91 95 05 	lds	r22, 0x0595
    2764:	70 91 96 05 	lds	r23, 0x0596
    2768:	88 27       	eor	r24, r24
    276a:	77 fd       	sbrc	r23, 7
    276c:	80 95       	com	r24
    276e:	98 2f       	mov	r25, r24
    2770:	0e 94 05 1c 	call	0x380a	; 0x380a <write_var>
    2774:	8b e9       	ldi	r24, 0x9B	; 155
    2776:	91 e0       	ldi	r25, 0x01	; 1
    2778:	0e 94 e1 1b 	call	0x37c2	; 0x37c2 <write_string>
    277c:	60 91 a0 05 	lds	r22, 0x05A0
    2780:	70 91 a1 05 	lds	r23, 0x05A1
    2784:	80 91 a2 05 	lds	r24, 0x05A2
    2788:	90 91 a3 05 	lds	r25, 0x05A3
    278c:	0e 94 78 1d 	call	0x3af0	; 0x3af0 <__fixsfsi>
    2790:	0e 94 23 1c 	call	0x3846	; 0x3846 <write_var_ln>
 						// SPEED CONTROL AUTOPILOT
 						
 						//**********************************************
 						// speed control not yet established (keeping it as is)
 						//ctrl_out[motor] = trimmed_motor ;
 						ctrl_out[aileron]	=	NEUTRAL+((ctrl_in[stick_r_left_right]-SERVO_TRIM_AILERON)*SERVO_GAIN_AILERON);
    2794:	a6 e3       	ldi	r26, 0x36	; 54
    2796:	b2 e0       	ldi	r27, 0x02	; 2
    2798:	2d 91       	ld	r18, X+
    279a:	3c 91       	ld	r19, X
    279c:	4f e0       	ldi	r20, 0x0F	; 15
    279e:	42 9f       	mul	r20, r18
    27a0:	c0 01       	movw	r24, r0
    27a2:	43 9f       	mul	r20, r19
    27a4:	90 0d       	add	r25, r0
    27a6:	11 24       	eor	r1, r1
    27a8:	8a 56       	subi	r24, 0x6A	; 106
    27aa:	9f 4f       	sbci	r25, 0xFF	; 255
    27ac:	aa 27       	eor	r26, r26
    27ae:	97 fd       	sbrc	r25, 7
    27b0:	a0 95       	com	r26
    27b2:	ba 2f       	mov	r27, r26
    27b4:	e4 e6       	ldi	r30, 0x64	; 100
    27b6:	f0 e0       	ldi	r31, 0x00	; 0
    27b8:	80 83       	st	Z, r24
    27ba:	91 83       	std	Z+1, r25	; 0x01
    27bc:	a2 83       	std	Z+2, r26	; 0x02
    27be:	b3 83       	std	Z+3, r27	; 0x03
 						ctrl_out[elevator] =	NEUTRAL+((ctrl_in[stick_r_up_down]-SERVO_TRIM_ELEVATOR)*SERVO_GAIN_ELEVATOR);
    27c0:	20 91 38 02 	lds	r18, 0x0238
    27c4:	30 91 39 02 	lds	r19, 0x0239
    27c8:	42 9f       	mul	r20, r18
    27ca:	c0 01       	movw	r24, r0
    27cc:	43 9f       	mul	r20, r19
    27ce:	90 0d       	add	r25, r0
    27d0:	11 24       	eor	r1, r1
    27d2:	aa 27       	eor	r26, r26
    27d4:	97 fd       	sbrc	r25, 7
    27d6:	a0 95       	com	r26
    27d8:	ba 2f       	mov	r27, r26
    27da:	e8 e6       	ldi	r30, 0x68	; 104
    27dc:	f0 e0       	ldi	r31, 0x00	; 0
    27de:	80 83       	st	Z, r24
    27e0:	91 83       	std	Z+1, r25	; 0x01
    27e2:	a2 83       	std	Z+2, r26	; 0x02
    27e4:	b3 83       	std	Z+3, r27	; 0x03
 						ctrl_out[rudder]	=	NEUTRAL+((ctrl_in[stick_l_left_right]-SERVO_TRIM_RUDDER)*SERVO_GAIN_RUDDER);
    27e6:	20 91 3a 02 	lds	r18, 0x023A
    27ea:	30 91 3b 02 	lds	r19, 0x023B
    27ee:	22 0f       	add	r18, r18
    27f0:	33 1f       	adc	r19, r19
    27f2:	c9 01       	movw	r24, r18
    27f4:	88 0f       	add	r24, r24
    27f6:	99 1f       	adc	r25, r25
    27f8:	88 0f       	add	r24, r24
    27fa:	99 1f       	adc	r25, r25
    27fc:	88 0f       	add	r24, r24
    27fe:	99 1f       	adc	r25, r25
    2800:	82 1b       	sub	r24, r18
    2802:	93 0b       	sbc	r25, r19
    2804:	8e 5d       	subi	r24, 0xDE	; 222
    2806:	9e 4f       	sbci	r25, 0xFE	; 254
    2808:	aa 27       	eor	r26, r26
    280a:	97 fd       	sbrc	r25, 7
    280c:	a0 95       	com	r26
    280e:	ba 2f       	mov	r27, r26
    2810:	ec e6       	ldi	r30, 0x6C	; 108
    2812:	f0 e0       	ldi	r31, 0x00	; 0
    2814:	80 83       	st	Z, r24
    2816:	91 83       	std	Z+1, r25	; 0x01
    2818:	a2 83       	std	Z+2, r26	; 0x02
    281a:	b3 83       	std	Z+3, r27	; 0x03
 						// Speed control (PI only -> noisy signal) with motor
  						speed_error = speed_hold - speed_filt; // Positive Error (too slow) shall give positive input (motor increase)
    281c:	60 91 32 05 	lds	r22, 0x0532
    2820:	70 91 33 05 	lds	r23, 0x0533
    2824:	88 27       	eor	r24, r24
    2826:	77 fd       	sbrc	r23, 7
    2828:	80 95       	com	r24
    282a:	98 2f       	mov	r25, r24
    282c:	0e 94 ab 1d 	call	0x3b56	; 0x3b56 <__floatsisf>
    2830:	9b 01       	movw	r18, r22
    2832:	ac 01       	movw	r20, r24
    2834:	60 91 a0 05 	lds	r22, 0x05A0
    2838:	70 91 a1 05 	lds	r23, 0x05A1
    283c:	80 91 a2 05 	lds	r24, 0x05A2
    2840:	90 91 a3 05 	lds	r25, 0x05A3
    2844:	0e 94 45 1c 	call	0x388a	; 0x388a <__subsf3>
    2848:	a6 2e       	mov	r10, r22
    284a:	b7 2e       	mov	r11, r23
    284c:	08 2f       	mov	r16, r24
    284e:	19 2f       	mov	r17, r25
    2850:	86 2f       	mov	r24, r22
    2852:	9b 2d       	mov	r25, r11
    2854:	a0 2f       	mov	r26, r16
    2856:	b1 2f       	mov	r27, r17
    2858:	80 93 44 05 	sts	0x0544, r24
    285c:	90 93 45 05 	sts	0x0545, r25
    2860:	a0 93 46 05 	sts	0x0546, r26
    2864:	b0 93 47 05 	sts	0x0547, r27
  						speed_error_sum += speed_error;	
    2868:	20 91 78 05 	lds	r18, 0x0578
    286c:	30 91 79 05 	lds	r19, 0x0579
    2870:	40 91 7a 05 	lds	r20, 0x057A
    2874:	50 91 7b 05 	lds	r21, 0x057B
    2878:	6a 2d       	mov	r22, r10
    287a:	7b 2d       	mov	r23, r11
    287c:	80 2f       	mov	r24, r16
    287e:	91 2f       	mov	r25, r17
    2880:	0e 94 46 1c 	call	0x388c	; 0x388c <__addsf3>
    2884:	c6 2e       	mov	r12, r22
    2886:	d7 2e       	mov	r13, r23
    2888:	e8 2e       	mov	r14, r24
    288a:	f9 2e       	mov	r15, r25
    288c:	86 2f       	mov	r24, r22
    288e:	9d 2d       	mov	r25, r13
    2890:	ae 2d       	mov	r26, r14
    2892:	bf 2d       	mov	r27, r15
    2894:	80 93 78 05 	sts	0x0578, r24
    2898:	90 93 79 05 	sts	0x0579, r25
    289c:	a0 93 7a 05 	sts	0x057A, r26
    28a0:	b0 93 7b 05 	sts	0x057B, r27
  						// when too slow (bracket turns positive) the motor gets increased
  						ctrl_out[motor] = trimmed_motor + KP_SPEED*speed_error + (KI_SPEED * speed_error_sum * sample_time);
    28a4:	60 91 a6 02 	lds	r22, 0x02A6
    28a8:	70 91 a7 02 	lds	r23, 0x02A7
    28ac:	80 91 a8 02 	lds	r24, 0x02A8
    28b0:	90 91 a9 02 	lds	r25, 0x02A9
    28b4:	0e 94 ab 1d 	call	0x3b56	; 0x3b56 <__floatsisf>
    28b8:	9b 01       	movw	r18, r22
    28ba:	ac 01       	movw	r20, r24
    28bc:	6a 2d       	mov	r22, r10
    28be:	7b 2d       	mov	r23, r11
    28c0:	80 2f       	mov	r24, r16
    28c2:	91 2f       	mov	r25, r17
    28c4:	0e 94 46 1c 	call	0x388c	; 0x388c <__addsf3>
    28c8:	2b 01       	movw	r4, r22
    28ca:	3c 01       	movw	r6, r24
    28cc:	20 91 46 02 	lds	r18, 0x0246
    28d0:	30 91 47 02 	lds	r19, 0x0247
    28d4:	40 91 48 02 	lds	r20, 0x0248
    28d8:	50 91 49 02 	lds	r21, 0x0249
    28dc:	6c 2d       	mov	r22, r12
    28de:	7d 2d       	mov	r23, r13
    28e0:	8e 2d       	mov	r24, r14
    28e2:	9f 2d       	mov	r25, r15
    28e4:	0e 94 8b 1e 	call	0x3d16	; 0x3d16 <__mulsf3>
    28e8:	9b 01       	movw	r18, r22
    28ea:	ac 01       	movw	r20, r24
    28ec:	c3 01       	movw	r24, r6
    28ee:	b2 01       	movw	r22, r4
    28f0:	0e 94 46 1c 	call	0x388c	; 0x388c <__addsf3>
    28f4:	0e 94 78 1d 	call	0x3af0	; 0x3af0 <__fixsfsi>
    28f8:	a0 e6       	ldi	r26, 0x60	; 96
    28fa:	b0 e0       	ldi	r27, 0x00	; 0
    28fc:	6d 93       	st	X+, r22
    28fe:	7d 93       	st	X+, r23
    2900:	8d 93       	st	X+, r24
    2902:	9c 93       	st	X, r25
    2904:	13 97       	sbiw	r26, 0x03	; 3
 						//write_var(KI_SPEED * speed_error_sum * sample_time);write_string(";");
 						 if(ctrl_out[motor] > MOTOR_LIM_HI) 
    2906:	8d 91       	ld	r24, X+
    2908:	9d 91       	ld	r25, X+
    290a:	0d 90       	ld	r0, X+
    290c:	bc 91       	ld	r27, X
    290e:	a0 2d       	mov	r26, r0
    2910:	89 3b       	cpi	r24, 0xB9	; 185
    2912:	9b 40       	sbci	r25, 0x0B	; 11
    2914:	a1 05       	cpc	r26, r1
    2916:	b1 05       	cpc	r27, r1
    2918:	5c f0       	brlt	.+22     	; 0x2930 <main+0x14f2>
 						 {
 							 ctrl_out[motor] = MOTOR_LIM_HI;
    291a:	88 eb       	ldi	r24, 0xB8	; 184
    291c:	9b e0       	ldi	r25, 0x0B	; 11
    291e:	a0 e0       	ldi	r26, 0x00	; 0
    2920:	b0 e0       	ldi	r27, 0x00	; 0
    2922:	e0 e6       	ldi	r30, 0x60	; 96
    2924:	f0 e0       	ldi	r31, 0x00	; 0
    2926:	80 83       	st	Z, r24
    2928:	91 83       	std	Z+1, r25	; 0x01
    292a:	a2 83       	std	Z+2, r26	; 0x02
    292c:	b3 83       	std	Z+3, r27	; 0x03
    292e:	13 c0       	rjmp	.+38     	; 0x2956 <main+0x1518>
 							 //speed_error_sum -= speed_error; // to stop 
 						 }
  						else if (ctrl_out[motor] < MOTOR_LIM_LOW) 
    2930:	e0 e6       	ldi	r30, 0x60	; 96
    2932:	f0 e0       	ldi	r31, 0x00	; 0
    2934:	80 81       	ld	r24, Z
    2936:	91 81       	ldd	r25, Z+1	; 0x01
    2938:	a2 81       	ldd	r26, Z+2	; 0x02
    293a:	b3 81       	ldd	r27, Z+3	; 0x03
    293c:	8a 3e       	cpi	r24, 0xEA	; 234
    293e:	96 40       	sbci	r25, 0x06	; 6
    2940:	a1 05       	cpc	r26, r1
    2942:	b1 05       	cpc	r27, r1
    2944:	44 f4       	brge	.+16     	; 0x2956 <main+0x1518>
						 {
 							 ctrl_out[motor] = MOTOR_LIM_LOW;
    2946:	8a ee       	ldi	r24, 0xEA	; 234
    2948:	96 e0       	ldi	r25, 0x06	; 6
    294a:	a0 e0       	ldi	r26, 0x00	; 0
    294c:	b0 e0       	ldi	r27, 0x00	; 0
    294e:	80 83       	st	Z, r24
    2950:	91 83       	std	Z+1, r25	; 0x01
    2952:	a2 83       	std	Z+2, r26	; 0x02
    2954:	b3 83       	std	Z+3, r27	; 0x03
 							 //speed_error_sum -= speed_error;
 						 }
  						speed_error_prev = speed_error;
    2956:	8a 2d       	mov	r24, r10
    2958:	9b 2d       	mov	r25, r11
    295a:	a0 2f       	mov	r26, r16
    295c:	b1 2f       	mov	r27, r17
    295e:	80 93 92 02 	sts	0x0292, r24
    2962:	90 93 93 02 	sts	0x0293, r25
    2966:	a0 93 94 02 	sts	0x0294, r26
    296a:	b0 93 95 02 	sts	0x0295, r27
 						
						//***********************************************
 						

					break;
    296e:	f8 c4       	rjmp	.+2544   	; 0x3360 <main+0x1f22>
					
					case HOLD_CTRL:
						// entry condition
						if(state_change == TRUE)
    2970:	80 91 af 02 	lds	r24, 0x02AF
    2974:	81 30       	cpi	r24, 0x01	; 1
    2976:	09 f0       	breq	.+2      	; 0x297a <main+0x153c>
    2978:	fa c0       	rjmp	.+500    	; 0x2b6e <main+0x1730>
						{
							write_string_ln("HOLD CONTROL");
    297a:	8f e9       	ldi	r24, 0x9F	; 159
    297c:	91 e0       	ldi	r25, 0x01	; 1
    297e:	0e 94 f1 1b 	call	0x37e2	; 0x37e2 <write_string_ln>
							// Setting current values as control values
							// High level loops
							//alt_hold = altitude_filt;		// controlling barometric altitude
							alt_hold = altitude_filt;
    2982:	80 91 72 05 	lds	r24, 0x0572
    2986:	90 91 73 05 	lds	r25, 0x0573
    298a:	90 93 35 05 	sts	0x0535, r25
    298e:	80 93 34 05 	sts	0x0534, r24
							alt_hold_0 = alt_hold;			// used for finding previous altitude again
    2992:	90 93 9d 02 	sts	0x029D, r25
    2996:	80 93 9c 02 	sts	0x029C, r24
							heading_hold = heading_GPS;	// controlling heading
    299a:	80 91 5b 02 	lds	r24, 0x025B
    299e:	90 91 5c 02 	lds	r25, 0x025C
    29a2:	90 93 96 05 	sts	0x0596, r25
    29a6:	80 93 95 05 	sts	0x0595, r24
							
							// middle loops (if required)
							Phi_hold_0 = Phi;			// using current phi as phi_0
    29aa:	60 91 8d 02 	lds	r22, 0x028D
    29ae:	70 91 8e 02 	lds	r23, 0x028E
    29b2:	88 27       	eor	r24, r24
    29b4:	77 fd       	sbrc	r23, 7
    29b6:	80 95       	com	r24
    29b8:	98 2f       	mov	r25, r24
    29ba:	0e 94 ab 1d 	call	0x3b56	; 0x3b56 <__floatsisf>
    29be:	60 93 89 02 	sts	0x0289, r22
    29c2:	70 93 8a 02 	sts	0x028A, r23
    29c6:	80 93 8b 02 	sts	0x028B, r24
    29ca:	90 93 8c 02 	sts	0x028C, r25
							Phi_hold = Phi;				// using current phi as hold value
    29ce:	60 93 36 05 	sts	0x0536, r22
    29d2:	70 93 37 05 	sts	0x0537, r23
    29d6:	80 93 38 05 	sts	0x0538, r24
    29da:	90 93 39 05 	sts	0x0539, r25
							Theta_hold = Theta;			// using current theta as theta_0
    29de:	80 91 83 05 	lds	r24, 0x0583
    29e2:	90 91 84 05 	lds	r25, 0x0584
    29e6:	90 93 4d 05 	sts	0x054D, r25
    29ea:	80 93 4c 05 	sts	0x054C, r24
							speed_hold = speed;			// current speed reading for speed control				
    29ee:	80 91 98 05 	lds	r24, 0x0598
    29f2:	90 91 99 05 	lds	r25, 0x0599
    29f6:	a0 91 9a 05 	lds	r26, 0x059A
    29fa:	b0 91 9b 05 	lds	r27, 0x059B
    29fe:	80 93 a0 05 	sts	0x05A0, r24
    2a02:	90 93 a1 05 	sts	0x05A1, r25
    2a06:	a0 93 a2 05 	sts	0x05A2, r26
    2a0a:	b0 93 a3 05 	sts	0x05A3, r27
							
							// Setting current input as "trimmed input"
							trimmed_elevator = ctrl_out[elevator]; 
    2a0e:	e8 e6       	ldi	r30, 0x68	; 104
    2a10:	f0 e0       	ldi	r31, 0x00	; 0
    2a12:	80 81       	ld	r24, Z
    2a14:	91 81       	ldd	r25, Z+1	; 0x01
    2a16:	a2 81       	ldd	r26, Z+2	; 0x02
    2a18:	b3 81       	ldd	r27, Z+3	; 0x03
    2a1a:	80 93 aa 02 	sts	0x02AA, r24
    2a1e:	90 93 ab 02 	sts	0x02AB, r25
    2a22:	a0 93 ac 02 	sts	0x02AC, r26
    2a26:	b0 93 ad 02 	sts	0x02AD, r27
							trimmed_aileron = ctrl_out[aileron];
    2a2a:	e4 e6       	ldi	r30, 0x64	; 100
    2a2c:	f0 e0       	ldi	r31, 0x00	; 0
    2a2e:	80 81       	ld	r24, Z
    2a30:	91 81       	ldd	r25, Z+1	; 0x01
    2a32:	a2 81       	ldd	r26, Z+2	; 0x02
    2a34:	b3 81       	ldd	r27, Z+3	; 0x03
    2a36:	80 93 a2 02 	sts	0x02A2, r24
    2a3a:	90 93 a3 02 	sts	0x02A3, r25
    2a3e:	a0 93 a4 02 	sts	0x02A4, r26
    2a42:	b0 93 a5 02 	sts	0x02A5, r27
							trimmed_motor = ctrl_out[motor];
    2a46:	e0 e6       	ldi	r30, 0x60	; 96
    2a48:	f0 e0       	ldi	r31, 0x00	; 0
    2a4a:	80 81       	ld	r24, Z
    2a4c:	91 81       	ldd	r25, Z+1	; 0x01
    2a4e:	a2 81       	ldd	r26, Z+2	; 0x02
    2a50:	b3 81       	ldd	r27, Z+3	; 0x03
    2a52:	80 93 a6 02 	sts	0x02A6, r24
    2a56:	90 93 a7 02 	sts	0x02A7, r25
    2a5a:	a0 93 a8 02 	sts	0x02A8, r26
    2a5e:	b0 93 a9 02 	sts	0x02A9, r27
							trimmed_rudder = ctrl_out[rudder];
    2a62:	ec e6       	ldi	r30, 0x6C	; 108
    2a64:	f0 e0       	ldi	r31, 0x00	; 0
    2a66:	80 81       	ld	r24, Z
    2a68:	91 81       	ldd	r25, Z+1	; 0x01
    2a6a:	a2 81       	ldd	r26, Z+2	; 0x02
    2a6c:	b3 81       	ldd	r27, Z+3	; 0x03
    2a6e:	80 93 9e 02 	sts	0x029E, r24
    2a72:	90 93 9f 02 	sts	0x029F, r25
    2a76:	a0 93 a0 02 	sts	0x02A0, r26
    2a7a:	b0 93 a1 02 	sts	0x02A1, r27
							
							//****************************
							// Resetting the errors
							// altitude
							alt_error = 0;
    2a7e:	10 92 9b 02 	sts	0x029B, r1
    2a82:	10 92 9a 02 	sts	0x029A, r1
							alt_error_sum = 0;
    2a86:	10 92 99 02 	sts	0x0299, r1
    2a8a:	10 92 98 02 	sts	0x0298, r1
							alt_error_prev = 0;
    2a8e:	10 92 97 02 	sts	0x0297, r1
    2a92:	10 92 96 02 	sts	0x0296, r1
							// speed
							speed_error = 0;
    2a96:	10 92 44 05 	sts	0x0544, r1
    2a9a:	10 92 45 05 	sts	0x0545, r1
    2a9e:	10 92 46 05 	sts	0x0546, r1
    2aa2:	10 92 47 05 	sts	0x0547, r1
							speed_error_sum = 0;
    2aa6:	10 92 78 05 	sts	0x0578, r1
    2aaa:	10 92 79 05 	sts	0x0579, r1
    2aae:	10 92 7a 05 	sts	0x057A, r1
    2ab2:	10 92 7b 05 	sts	0x057B, r1
							// Theta
							Theta_error = 0;
    2ab6:	10 92 3f 05 	sts	0x053F, r1
    2aba:	10 92 3e 05 	sts	0x053E, r1
							Theta_error_sum = 0;
    2abe:	10 92 71 05 	sts	0x0571, r1
    2ac2:	10 92 70 05 	sts	0x0570, r1
							Theta_error_prev = 0;
    2ac6:	10 92 90 02 	sts	0x0290, r1
    2aca:	10 92 8f 02 	sts	0x028F, r1
							// Phi
							Phi_error = 0;
    2ace:	10 92 85 02 	sts	0x0285, r1
    2ad2:	10 92 86 02 	sts	0x0286, r1
    2ad6:	10 92 87 02 	sts	0x0287, r1
    2ada:	10 92 88 02 	sts	0x0288, r1
							Phi_error_sum = 0;
    2ade:	10 92 81 02 	sts	0x0281, r1
    2ae2:	10 92 82 02 	sts	0x0282, r1
    2ae6:	10 92 83 02 	sts	0x0283, r1
    2aea:	10 92 84 02 	sts	0x0284, r1
							Phi_error_prev = 0;
    2aee:	10 92 7d 02 	sts	0x027D, r1
    2af2:	10 92 7e 02 	sts	0x027E, r1
    2af6:	10 92 7f 02 	sts	0x027F, r1
    2afa:	10 92 80 02 	sts	0x0280, r1
							// *****************************
							OLED_set_position(5,3);
    2afe:	63 e0       	ldi	r22, 0x03	; 3
    2b00:	85 e0       	ldi	r24, 0x05	; 5
    2b02:	0e 94 3f 03 	call	0x67e	; 0x67e <OLED_set_position>
							OLED_send_char_H();
    2b06:	0e 94 cf 03 	call	0x79e	; 0x79e <OLED_send_char_H>
							OLED_send_char_O();
    2b0a:	0e 94 3d 04 	call	0x87a	; 0x87a <OLED_send_char_O>
							OLED_send_char_L();
    2b0e:	0e 94 fb 03 	call	0x7f6	; 0x7f6 <OLED_send_char_L>
							OLED_send_char_D();
    2b12:	0e 94 77 03 	call	0x6ee	; 0x6ee <OLED_send_char_D>
							
							write_string("Goal Alt - Heading - Speed: ");write_var(alt_hold);write_string(" - ");write_var(heading_hold);write_string(" - ");write_var_ln(speed_hold);
    2b16:	8e e7       	ldi	r24, 0x7E	; 126
    2b18:	91 e0       	ldi	r25, 0x01	; 1
    2b1a:	0e 94 e1 1b 	call	0x37c2	; 0x37c2 <write_string>
    2b1e:	60 91 34 05 	lds	r22, 0x0534
    2b22:	70 91 35 05 	lds	r23, 0x0535
    2b26:	88 27       	eor	r24, r24
    2b28:	77 fd       	sbrc	r23, 7
    2b2a:	80 95       	com	r24
    2b2c:	98 2f       	mov	r25, r24
    2b2e:	0e 94 05 1c 	call	0x380a	; 0x380a <write_var>
    2b32:	8b e9       	ldi	r24, 0x9B	; 155
    2b34:	91 e0       	ldi	r25, 0x01	; 1
    2b36:	0e 94 e1 1b 	call	0x37c2	; 0x37c2 <write_string>
    2b3a:	60 91 95 05 	lds	r22, 0x0595
    2b3e:	70 91 96 05 	lds	r23, 0x0596
    2b42:	88 27       	eor	r24, r24
    2b44:	77 fd       	sbrc	r23, 7
    2b46:	80 95       	com	r24
    2b48:	98 2f       	mov	r25, r24
    2b4a:	0e 94 05 1c 	call	0x380a	; 0x380a <write_var>
    2b4e:	8b e9       	ldi	r24, 0x9B	; 155
    2b50:	91 e0       	ldi	r25, 0x01	; 1
    2b52:	0e 94 e1 1b 	call	0x37c2	; 0x37c2 <write_string>
    2b56:	60 91 a0 05 	lds	r22, 0x05A0
    2b5a:	70 91 a1 05 	lds	r23, 0x05A1
    2b5e:	80 91 a2 05 	lds	r24, 0x05A2
    2b62:	90 91 a3 05 	lds	r25, 0x05A3
    2b66:	0e 94 78 1d 	call	0x3af0	; 0x3af0 <__fixsfsi>
    2b6a:	0e 94 23 1c 	call	0x3846	; 0x3846 <write_var_ln>
						}
						
						// Using Poti to change between two altitudes
						// direct poti value might be too noisy for altitude values
						if ((ctrl_in[poti]-155) < 30)
    2b6e:	80 91 40 02 	lds	r24, 0x0240
    2b72:	90 91 41 02 	lds	r25, 0x0241
    2b76:	8b 59       	subi	r24, 0x9B	; 155
    2b78:	91 09       	sbc	r25, r1
    2b7a:	4e 97       	sbiw	r24, 0x1e	; 30
    2b7c:	4c f4       	brge	.+18     	; 0x2b90 <main+0x1752>
						{
							alt_hold = alt_hold_0;
    2b7e:	80 91 9c 02 	lds	r24, 0x029C
    2b82:	90 91 9d 02 	lds	r25, 0x029D
    2b86:	90 93 35 05 	sts	0x0535, r25
    2b8a:	80 93 34 05 	sts	0x0534, r24
    2b8e:	09 c0       	rjmp	.+18     	; 0x2ba2 <main+0x1764>
						}
						else
						{
							alt_hold = alt_hold_0 + 10;
    2b90:	80 91 9c 02 	lds	r24, 0x029C
    2b94:	90 91 9d 02 	lds	r25, 0x029D
    2b98:	0a 96       	adiw	r24, 0x0a	; 10
    2b9a:	90 93 35 05 	sts	0x0535, r25
    2b9e:	80 93 34 05 	sts	0x0534, r24
 						//******************************************************
 						// Altitude hold
 						// Input: Altitude reading (poor 1Hz resolution of barometer)
 						// output: Theta_com (Pitch Angle command)
 						// Controller: P control (as per SCILAB the most efficient for Altitude hold outer loop)
 						alt_error = alt_hold - altitude_filt;
    2ba2:	80 91 34 05 	lds	r24, 0x0534
    2ba6:	90 91 35 05 	lds	r25, 0x0535
    2baa:	20 91 72 05 	lds	r18, 0x0572
    2bae:	30 91 73 05 	lds	r19, 0x0573
    2bb2:	82 1b       	sub	r24, r18
    2bb4:	93 0b       	sbc	r25, r19
    2bb6:	90 93 9b 02 	sts	0x029B, r25
    2bba:	80 93 9a 02 	sts	0x029A, r24
 						Theta_hold = KP_ALT*(alt_error);
 						// Limiting Theta Angle command to +20 -10 maximum (= Saturation)
 						int8_t pitch_limit = 20;
 						if (Theta_hold < -(pitch_limit/2)) Theta_hold = -(pitch_limit/2); // only 10 deg neg due to speed gaining
    2bbe:	86 3f       	cpi	r24, 0xF6	; 246
    2bc0:	ff ef       	ldi	r31, 0xFF	; 255
    2bc2:	9f 07       	cpc	r25, r31
    2bc4:	3c f4       	brge	.+14     	; 0x2bd4 <main+0x1796>
    2bc6:	86 ef       	ldi	r24, 0xF6	; 246
    2bc8:	9f ef       	ldi	r25, 0xFF	; 255
    2bca:	90 93 4d 05 	sts	0x054D, r25
    2bce:	80 93 4c 05 	sts	0x054C, r24
    2bd2:	0e c0       	rjmp	.+28     	; 0x2bf0 <main+0x17b2>
 						else if (Theta_hold > pitch_limit) Theta_hold = pitch_limit;
    2bd4:	85 31       	cpi	r24, 0x15	; 21
    2bd6:	91 05       	cpc	r25, r1
    2bd8:	2c f4       	brge	.+10     	; 0x2be4 <main+0x17a6>
 						// Altitude hold
 						// Input: Altitude reading (poor 1Hz resolution of barometer)
 						// output: Theta_com (Pitch Angle command)
 						// Controller: P control (as per SCILAB the most efficient for Altitude hold outer loop)
 						alt_error = alt_hold - altitude_filt;
 						Theta_hold = KP_ALT*(alt_error);
    2bda:	90 93 4d 05 	sts	0x054D, r25
    2bde:	80 93 4c 05 	sts	0x054C, r24
    2be2:	06 c0       	rjmp	.+12     	; 0x2bf0 <main+0x17b2>
 						// Limiting Theta Angle command to +20 -10 maximum (= Saturation)
 						int8_t pitch_limit = 20;
 						if (Theta_hold < -(pitch_limit/2)) Theta_hold = -(pitch_limit/2); // only 10 deg neg due to speed gaining
 						else if (Theta_hold > pitch_limit) Theta_hold = pitch_limit;
    2be4:	84 e1       	ldi	r24, 0x14	; 20
    2be6:	90 e0       	ldi	r25, 0x00	; 0
    2be8:	90 93 4d 05 	sts	0x054D, r25
    2bec:	80 93 4c 05 	sts	0x054C, r24
 						// Theta control with elevator
 						// Input: Theta command from Altitude Hold loop
 						// Output: elevator command pid loop
 						// Controller: PID Controller
						// Gains: K_p = 10 K_i = 10 K_d = 5
 						Theta_error = Theta - Theta_hold; // as per Simulation in SCILAB this convention is best
    2bf0:	00 91 83 05 	lds	r16, 0x0583
    2bf4:	10 91 84 05 	lds	r17, 0x0584
    2bf8:	80 91 4c 05 	lds	r24, 0x054C
    2bfc:	90 91 4d 05 	lds	r25, 0x054D
    2c00:	08 1b       	sub	r16, r24
    2c02:	19 0b       	sbc	r17, r25
    2c04:	10 93 3f 05 	sts	0x053F, r17
    2c08:	00 93 3e 05 	sts	0x053E, r16
 						Theta_error_sum += Theta_error;
    2c0c:	a0 90 70 05 	lds	r10, 0x0570
    2c10:	b0 90 71 05 	lds	r11, 0x0571
    2c14:	a0 0e       	add	r10, r16
    2c16:	b1 1e       	adc	r11, r17
    2c18:	b0 92 71 05 	sts	0x0571, r11
    2c1c:	a0 92 70 05 	sts	0x0570, r10
 						// controller formula for the necessary control change						 
 						ctrl_out_PID[elevator] = (KP_THETA*Theta_error + KI_THETA*Theta_error_sum*sample_time + KD_THETA*(Theta_error_prev - Theta_error)/sample_time);
    2c20:	c0 90 46 02 	lds	r12, 0x0246
    2c24:	d0 90 47 02 	lds	r13, 0x0247
    2c28:	e0 90 48 02 	lds	r14, 0x0248
    2c2c:	f0 90 49 02 	lds	r15, 0x0249
    2c30:	b8 01       	movw	r22, r16
    2c32:	66 0f       	add	r22, r22
    2c34:	77 1f       	adc	r23, r23
    2c36:	c8 01       	movw	r24, r16
    2c38:	88 0f       	add	r24, r24
    2c3a:	99 1f       	adc	r25, r25
    2c3c:	88 0f       	add	r24, r24
    2c3e:	99 1f       	adc	r25, r25
    2c40:	88 0f       	add	r24, r24
    2c42:	99 1f       	adc	r25, r25
    2c44:	68 0f       	add	r22, r24
    2c46:	79 1f       	adc	r23, r25
    2c48:	88 27       	eor	r24, r24
    2c4a:	77 fd       	sbrc	r23, 7
    2c4c:	80 95       	com	r24
    2c4e:	98 2f       	mov	r25, r24
    2c50:	0e 94 ab 1d 	call	0x3b56	; 0x3b56 <__floatsisf>
    2c54:	2b 01       	movw	r4, r22
    2c56:	3c 01       	movw	r6, r24
    2c58:	b5 01       	movw	r22, r10
    2c5a:	66 0f       	add	r22, r22
    2c5c:	77 1f       	adc	r23, r23
    2c5e:	aa 0c       	add	r10, r10
    2c60:	bb 1c       	adc	r11, r11
    2c62:	aa 0c       	add	r10, r10
    2c64:	bb 1c       	adc	r11, r11
    2c66:	aa 0c       	add	r10, r10
    2c68:	bb 1c       	adc	r11, r11
    2c6a:	6a 0d       	add	r22, r10
    2c6c:	7b 1d       	adc	r23, r11
    2c6e:	88 27       	eor	r24, r24
    2c70:	77 fd       	sbrc	r23, 7
    2c72:	80 95       	com	r24
    2c74:	98 2f       	mov	r25, r24
    2c76:	0e 94 ab 1d 	call	0x3b56	; 0x3b56 <__floatsisf>
    2c7a:	a7 01       	movw	r20, r14
    2c7c:	96 01       	movw	r18, r12
    2c7e:	0e 94 8b 1e 	call	0x3d16	; 0x3d16 <__mulsf3>
    2c82:	9b 01       	movw	r18, r22
    2c84:	ac 01       	movw	r20, r24
    2c86:	c3 01       	movw	r24, r6
    2c88:	b2 01       	movw	r22, r4
    2c8a:	0e 94 46 1c 	call	0x388c	; 0x388c <__addsf3>
    2c8e:	4b 01       	movw	r8, r22
    2c90:	5c 01       	movw	r10, r24
    2c92:	60 91 8f 02 	lds	r22, 0x028F
    2c96:	70 91 90 02 	lds	r23, 0x0290
    2c9a:	60 1b       	sub	r22, r16
    2c9c:	71 0b       	sbc	r23, r17
    2c9e:	88 27       	eor	r24, r24
    2ca0:	77 fd       	sbrc	r23, 7
    2ca2:	80 95       	com	r24
    2ca4:	98 2f       	mov	r25, r24
    2ca6:	0e 94 ab 1d 	call	0x3b56	; 0x3b56 <__floatsisf>
    2caa:	a7 01       	movw	r20, r14
    2cac:	96 01       	movw	r18, r12
    2cae:	0e 94 10 1d 	call	0x3a20	; 0x3a20 <__divsf3>
    2cb2:	9b 01       	movw	r18, r22
    2cb4:	ac 01       	movw	r20, r24
    2cb6:	c5 01       	movw	r24, r10
    2cb8:	b4 01       	movw	r22, r8
    2cba:	0e 94 46 1c 	call	0x388c	; 0x388c <__addsf3>
    2cbe:	0e 94 78 1d 	call	0x3af0	; 0x3af0 <__fixsfsi>
    2cc2:	20 e2       	ldi	r18, 0x20	; 32
    2cc4:	32 e0       	ldi	r19, 0x02	; 2
    2cc6:	d9 01       	movw	r26, r18
    2cc8:	6d 93       	st	X+, r22
    2cca:	7d 93       	st	X+, r23
    2ccc:	8d 93       	st	X+, r24
    2cce:	9c 93       	st	X, r25
    2cd0:	13 97       	sbiw	r26, 0x03	; 3
  						Theta_error_prev = Theta_error;
    2cd2:	10 93 90 02 	sts	0x0290, r17
    2cd6:	00 93 8f 02 	sts	0x028F, r16
						//******************************************************
						// Pitch damping
						// Input: turn rate q
						// Output: elevator command damping
						// Gains: K_p_q = 9
						ctrl_out_DAMP[elevator] = K_P_Q * (q_filt);
    2cda:	80 91 6f 05 	lds	r24, 0x056F
    2cde:	99 27       	eor	r25, r25
    2ce0:	87 fd       	sbrc	r24, 7
    2ce2:	90 95       	com	r25
    2ce4:	ac 01       	movw	r20, r24
    2ce6:	44 0f       	add	r20, r20
    2ce8:	55 1f       	adc	r21, r21
    2cea:	44 0f       	add	r20, r20
    2cec:	55 1f       	adc	r21, r21
    2cee:	44 0f       	add	r20, r20
    2cf0:	55 1f       	adc	r21, r21
    2cf2:	84 0f       	add	r24, r20
    2cf4:	95 1f       	adc	r25, r21
    2cf6:	aa 27       	eor	r26, r26
    2cf8:	97 fd       	sbrc	r25, 7
    2cfa:	a0 95       	com	r26
    2cfc:	ba 2f       	mov	r27, r26
    2cfe:	e4 e0       	ldi	r30, 0x04	; 4
    2d00:	f2 e0       	ldi	r31, 0x02	; 2
    2d02:	80 83       	st	Z, r24
    2d04:	91 83       	std	Z+1, r25	; 0x01
    2d06:	a2 83       	std	Z+2, r26	; 0x02
    2d08:	b3 83       	std	Z+3, r27	; 0x03
						//******************************************************
						
						//******************************************************
						// Combining the calculated inputs elevator and limiting elevator command
						ctrl_out[elevator] = trimmed_elevator + ctrl_out_PID[elevator] - ctrl_out_DAMP[elevator];
    2d0a:	d9 01       	movw	r26, r18
    2d0c:	0d 91       	ld	r16, X+
    2d0e:	1d 91       	ld	r17, X+
    2d10:	2d 91       	ld	r18, X+
    2d12:	3c 91       	ld	r19, X
    2d14:	40 81       	ld	r20, Z
    2d16:	51 81       	ldd	r21, Z+1	; 0x01
    2d18:	62 81       	ldd	r22, Z+2	; 0x02
    2d1a:	73 81       	ldd	r23, Z+3	; 0x03
    2d1c:	80 91 aa 02 	lds	r24, 0x02AA
    2d20:	90 91 ab 02 	lds	r25, 0x02AB
    2d24:	a0 91 ac 02 	lds	r26, 0x02AC
    2d28:	b0 91 ad 02 	lds	r27, 0x02AD
    2d2c:	80 0f       	add	r24, r16
    2d2e:	91 1f       	adc	r25, r17
    2d30:	a2 1f       	adc	r26, r18
    2d32:	b3 1f       	adc	r27, r19
    2d34:	84 1b       	sub	r24, r20
    2d36:	95 0b       	sbc	r25, r21
    2d38:	a6 0b       	sbc	r26, r22
    2d3a:	b7 0b       	sbc	r27, r23
    2d3c:	e8 e6       	ldi	r30, 0x68	; 104
    2d3e:	f0 e0       	ldi	r31, 0x00	; 0
    2d40:	80 83       	st	Z, r24
    2d42:	91 83       	std	Z+1, r25	; 0x01
    2d44:	a2 83       	std	Z+2, r26	; 0x02
    2d46:	b3 83       	std	Z+3, r27	; 0x03
						if(ctrl_out[elevator] > RIGHT) ctrl_out[elevator] = RIGHT;
    2d48:	80 81       	ld	r24, Z
    2d4a:	91 81       	ldd	r25, Z+1	; 0x01
    2d4c:	a2 81       	ldd	r26, Z+2	; 0x02
    2d4e:	b3 81       	ldd	r27, Z+3	; 0x03
    2d50:	89 3b       	cpi	r24, 0xB9	; 185
    2d52:	9b 40       	sbci	r25, 0x0B	; 11
    2d54:	a1 05       	cpc	r26, r1
    2d56:	b1 05       	cpc	r27, r1
    2d58:	4c f0       	brlt	.+18     	; 0x2d6c <main+0x192e>
    2d5a:	88 eb       	ldi	r24, 0xB8	; 184
    2d5c:	9b e0       	ldi	r25, 0x0B	; 11
    2d5e:	a0 e0       	ldi	r26, 0x00	; 0
    2d60:	b0 e0       	ldi	r27, 0x00	; 0
    2d62:	80 83       	st	Z, r24
    2d64:	91 83       	std	Z+1, r25	; 0x01
    2d66:	a2 83       	std	Z+2, r26	; 0x02
    2d68:	b3 83       	std	Z+3, r27	; 0x03
    2d6a:	13 c0       	rjmp	.+38     	; 0x2d92 <main+0x1954>
						else if (ctrl_out[elevator] < LEFT) ctrl_out[elevator] = LEFT;
    2d6c:	e8 e6       	ldi	r30, 0x68	; 104
    2d6e:	f0 e0       	ldi	r31, 0x00	; 0
    2d70:	80 81       	ld	r24, Z
    2d72:	91 81       	ldd	r25, Z+1	; 0x01
    2d74:	a2 81       	ldd	r26, Z+2	; 0x02
    2d76:	b3 81       	ldd	r27, Z+3	; 0x03
    2d78:	88 3e       	cpi	r24, 0xE8	; 232
    2d7a:	93 40       	sbci	r25, 0x03	; 3
    2d7c:	a1 05       	cpc	r26, r1
    2d7e:	b1 05       	cpc	r27, r1
    2d80:	44 f4       	brge	.+16     	; 0x2d92 <main+0x1954>
    2d82:	88 ee       	ldi	r24, 0xE8	; 232
    2d84:	93 e0       	ldi	r25, 0x03	; 3
    2d86:	a0 e0       	ldi	r26, 0x00	; 0
    2d88:	b0 e0       	ldi	r27, 0x00	; 0
    2d8a:	80 83       	st	Z, r24
    2d8c:	91 83       	std	Z+1, r25	; 0x01
    2d8e:	a2 83       	std	Z+2, r26	; 0x02
    2d90:	b3 83       	std	Z+3, r27	; 0x03
						// Heading solution: Using GPS heading information (GPS_RMC[GPS_RMC_PATH])
						
						//**********************************************
						// GPS GOAL control
						// Using Rotary knob for GPS and hold control (testing)
						if(ctrl_in[rotary_knob]<135 && ctrl_in[rotary_knob]>120 && knob_flag == 1)	// NEUTRAL (Up Middle
    2d92:	80 91 3c 02 	lds	r24, 0x023C
    2d96:	90 91 3d 02 	lds	r25, 0x023D
    2d9a:	87 38       	cpi	r24, 0x87	; 135
    2d9c:	91 05       	cpc	r25, r1
    2d9e:	84 f5       	brge	.+96     	; 0x2e00 <main+0x19c2>
    2da0:	80 91 3c 02 	lds	r24, 0x023C
    2da4:	90 91 3d 02 	lds	r25, 0x023D
    2da8:	89 37       	cpi	r24, 0x79	; 121
    2daa:	91 05       	cpc	r25, r1
    2dac:	4c f1       	brlt	.+82     	; 0x2e00 <main+0x19c2>
    2dae:	80 91 ae 02 	lds	r24, 0x02AE
    2db2:	81 30       	cpi	r24, 0x01	; 1
    2db4:	29 f5       	brne	.+74     	; 0x2e00 <main+0x19c2>
						{
							knob_flag = 0;
    2db6:	10 92 ae 02 	sts	0x02AE, r1
							// normal position -> normal hold control of actual course
							heading_hold = heading_GPS;
    2dba:	80 91 5b 02 	lds	r24, 0x025B
    2dbe:	90 91 5c 02 	lds	r25, 0x025C
    2dc2:	90 93 96 05 	sts	0x0596, r25
    2dc6:	80 93 95 05 	sts	0x0595, r24

							write_string("Heading Hold ");write_var_ln(heading_hold);
    2dca:	8c ea       	ldi	r24, 0xAC	; 172
    2dcc:	91 e0       	ldi	r25, 0x01	; 1
    2dce:	0e 94 e1 1b 	call	0x37c2	; 0x37c2 <write_string>
    2dd2:	60 91 95 05 	lds	r22, 0x0595
    2dd6:	70 91 96 05 	lds	r23, 0x0596
    2dda:	88 27       	eor	r24, r24
    2ddc:	77 fd       	sbrc	r23, 7
    2dde:	80 95       	com	r24
    2de0:	98 2f       	mov	r25, r24
    2de2:	0e 94 23 1c 	call	0x3846	; 0x3846 <write_var_ln>
							OLED_set_position(5,3);
    2de6:	63 e0       	ldi	r22, 0x03	; 3
    2de8:	85 e0       	ldi	r24, 0x05	; 5
    2dea:	0e 94 3f 03 	call	0x67e	; 0x67e <OLED_set_position>
							OLED_send_char_H();
    2dee:	0e 94 cf 03 	call	0x79e	; 0x79e <OLED_send_char_H>
							OLED_send_char_O();
    2df2:	0e 94 3d 04 	call	0x87a	; 0x87a <OLED_send_char_O>
							OLED_send_char_L();
    2df6:	0e 94 fb 03 	call	0x7f6	; 0x7f6 <OLED_send_char_L>
							OLED_send_char_D();
    2dfa:	0e 94 77 03 	call	0x6ee	; 0x6ee <OLED_send_char_D>
    2dfe:	a4 c0       	rjmp	.+328    	; 0x2f48 <main+0x1b0a>

						}
						else if(ctrl_in[rotary_knob]<160 && ctrl_in[rotary_knob]>150 && knob_flag == 0) // Left One Click
    2e00:	80 91 3c 02 	lds	r24, 0x023C
    2e04:	90 91 3d 02 	lds	r25, 0x023D
    2e08:	80 3a       	cpi	r24, 0xA0	; 160
    2e0a:	91 05       	cpc	r25, r1
    2e0c:	0c f0       	brlt	.+2      	; 0x2e10 <main+0x19d2>
    2e0e:	9c c0       	rjmp	.+312    	; 0x2f48 <main+0x1b0a>
    2e10:	80 91 3c 02 	lds	r24, 0x023C
    2e14:	90 91 3d 02 	lds	r25, 0x023D
    2e18:	87 39       	cpi	r24, 0x97	; 151
    2e1a:	91 05       	cpc	r25, r1
    2e1c:	0c f4       	brge	.+2      	; 0x2e20 <main+0x19e2>
    2e1e:	94 c0       	rjmp	.+296    	; 0x2f48 <main+0x1b0a>
    2e20:	80 91 ae 02 	lds	r24, 0x02AE
    2e24:	81 11       	cpse	r24, r1
    2e26:	90 c0       	rjmp	.+288    	; 0x2f48 <main+0x1b0a>
						{
							knob_flag = 1;
    2e28:	81 e0       	ldi	r24, 0x01	; 1
    2e2a:	80 93 ae 02 	sts	0x02AE, r24
							// when knob turned -> GPS -> Return to home -> Home Position needs to be defined before (see above)
							GPS_POS_GOAL_X = GPS_POS_HOME_X;
    2e2e:	c0 90 1e 05 	lds	r12, 0x051E
    2e32:	d0 90 1f 05 	lds	r13, 0x051F
    2e36:	e0 90 20 05 	lds	r14, 0x0520
    2e3a:	f0 90 21 05 	lds	r15, 0x0521
    2e3e:	c0 92 22 05 	sts	0x0522, r12
    2e42:	d0 92 23 05 	sts	0x0523, r13
    2e46:	e0 92 24 05 	sts	0x0524, r14
    2e4a:	f0 92 25 05 	sts	0x0525, r15
							GPS_POS_GOAL_Y = GPS_POS_HOME_Y;
    2e4e:	80 91 40 05 	lds	r24, 0x0540
    2e52:	90 91 41 05 	lds	r25, 0x0541
    2e56:	a0 91 42 05 	lds	r26, 0x0542
    2e5a:	b0 91 43 05 	lds	r27, 0x0543
    2e5e:	80 93 6b 05 	sts	0x056B, r24
    2e62:	90 93 6c 05 	sts	0x056C, r25
    2e66:	a0 93 6d 05 	sts	0x056D, r26
    2e6a:	b0 93 6e 05 	sts	0x056E, r27
							

							//write_var(GPS_POS_CURRENT_X);write_string(";");write_var(GPS_POS_CURRENT_Y);write_string(";");
							GPS_POS_DIF_X = GPS_POS_GOAL_X - GPS_POS_CURRENT_X;	// define errors in such way that the course is correct!
    2e6e:	00 91 74 05 	lds	r16, 0x0574
    2e72:	10 91 75 05 	lds	r17, 0x0575
    2e76:	20 91 76 05 	lds	r18, 0x0576
    2e7a:	30 91 77 05 	lds	r19, 0x0577
    2e7e:	c0 1a       	sub	r12, r16
    2e80:	d1 0a       	sbc	r13, r17
    2e82:	e2 0a       	sbc	r14, r18
    2e84:	f3 0a       	sbc	r15, r19
    2e86:	c0 92 1a 05 	sts	0x051A, r12
    2e8a:	d0 92 1b 05 	sts	0x051B, r13
    2e8e:	e0 92 1c 05 	sts	0x051C, r14
    2e92:	f0 92 1d 05 	sts	0x051D, r15
							GPS_POS_DIF_Y = GPS_POS_GOAL_Y - GPS_POS_CURRENT_Y;
    2e96:	00 91 60 05 	lds	r16, 0x0560
    2e9a:	10 91 61 05 	lds	r17, 0x0561
    2e9e:	20 91 62 05 	lds	r18, 0x0562
    2ea2:	30 91 63 05 	lds	r19, 0x0563
    2ea6:	bc 01       	movw	r22, r24
    2ea8:	cd 01       	movw	r24, r26
    2eaa:	60 1b       	sub	r22, r16
    2eac:	71 0b       	sbc	r23, r17
    2eae:	82 0b       	sbc	r24, r18
    2eb0:	93 0b       	sbc	r25, r19
    2eb2:	60 93 53 02 	sts	0x0253, r22
    2eb6:	70 93 54 02 	sts	0x0254, r23
    2eba:	80 93 55 02 	sts	0x0255, r24
    2ebe:	90 93 56 02 	sts	0x0256, r25
							
							// Test Goal coordinates: Berlin
							//GPS_POS_GOAL_X = 132400290;	// 10 Latitude digits
							//GPS_POS_GOAL_Y = 523138036;	// 10 Longitude digits
							
							heading_goal = atan2((GPS_POS_DIF_X),(GPS_POS_DIF_Y))*(180/PI);
    2ec2:	0e 94 ab 1d 	call	0x3b56	; 0x3b56 <__floatsisf>
    2ec6:	4b 01       	movw	r8, r22
    2ec8:	5c 01       	movw	r10, r24
    2eca:	c7 01       	movw	r24, r14
    2ecc:	b6 01       	movw	r22, r12
    2ece:	0e 94 ab 1d 	call	0x3b56	; 0x3b56 <__floatsisf>
    2ed2:	a5 01       	movw	r20, r10
    2ed4:	94 01       	movw	r18, r8
    2ed6:	0e 94 b9 1c 	call	0x3972	; 0x3972 <atan2>
    2eda:	20 ee       	ldi	r18, 0xE0	; 224
    2edc:	3e e2       	ldi	r19, 0x2E	; 46
    2ede:	45 e6       	ldi	r20, 0x65	; 101
    2ee0:	52 e4       	ldi	r21, 0x42	; 66
    2ee2:	0e 94 8b 1e 	call	0x3d16	; 0x3d16 <__mulsf3>
    2ee6:	0e 94 78 1d 	call	0x3af0	; 0x3af0 <__fixsfsi>
							if (heading_goal < 0)
    2eea:	77 23       	and	r23, r23
    2eec:	2c f0       	brlt	.+10     	; 0x2ef8 <main+0x1aba>
							
							// Test Goal coordinates: Berlin
							//GPS_POS_GOAL_X = 132400290;	// 10 Latitude digits
							//GPS_POS_GOAL_Y = 523138036;	// 10 Longitude digits
							
							heading_goal = atan2((GPS_POS_DIF_X),(GPS_POS_DIF_Y))*(180/PI);
    2eee:	70 93 5a 02 	sts	0x025A, r23
    2ef2:	60 93 59 02 	sts	0x0259, r22
    2ef6:	06 c0       	rjmp	.+12     	; 0x2f04 <main+0x1ac6>
							if (heading_goal < 0)
							{
								heading_goal += 360;
    2ef8:	68 59       	subi	r22, 0x98	; 152
    2efa:	7e 4f       	sbci	r23, 0xFE	; 254
    2efc:	70 93 5a 02 	sts	0x025A, r23
    2f00:	60 93 59 02 	sts	0x0259, r22
							}
							
							heading_hold = heading_goal;
    2f04:	80 91 59 02 	lds	r24, 0x0259
    2f08:	90 91 5a 02 	lds	r25, 0x025A
    2f0c:	90 93 96 05 	sts	0x0596, r25
    2f10:	80 93 95 05 	sts	0x0595, r24

							write_string("Return Home Head ");write_var_ln(heading_hold);
    2f14:	8a eb       	ldi	r24, 0xBA	; 186
    2f16:	91 e0       	ldi	r25, 0x01	; 1
    2f18:	0e 94 e1 1b 	call	0x37c2	; 0x37c2 <write_string>
    2f1c:	60 91 95 05 	lds	r22, 0x0595
    2f20:	70 91 96 05 	lds	r23, 0x0596
    2f24:	88 27       	eor	r24, r24
    2f26:	77 fd       	sbrc	r23, 7
    2f28:	80 95       	com	r24
    2f2a:	98 2f       	mov	r25, r24
    2f2c:	0e 94 23 1c 	call	0x3846	; 0x3846 <write_var_ln>
							OLED_set_position(5,3);
    2f30:	63 e0       	ldi	r22, 0x03	; 3
    2f32:	85 e0       	ldi	r24, 0x05	; 5
    2f34:	0e 94 3f 03 	call	0x67e	; 0x67e <OLED_set_position>
							OLED_send_char_H();
    2f38:	0e 94 cf 03 	call	0x79e	; 0x79e <OLED_send_char_H>
							OLED_send_char_O();
    2f3c:	0e 94 3d 04 	call	0x87a	; 0x87a <OLED_send_char_O>
							OLED_send_char_M();
    2f40:	0e 94 11 04 	call	0x822	; 0x822 <OLED_send_char_M>
							OLED_send_char_E();
    2f44:	0e 94 8d 03 	call	0x71a	; 0x71a <OLED_send_char_E>
 						// Heading hold control	
 						// input: current heading, heading_command
 						// control: Phi	
 						// controller: PD control (as per Scilab the most efficient controller)
 						// when Phi positive we do a right turn, when Phi negative, we do a left turn
 						heading_error = heading_GPS - heading_hold;	// as per Simulation
    2f48:	20 91 5b 02 	lds	r18, 0x025B
    2f4c:	30 91 5c 02 	lds	r19, 0x025C
    2f50:	80 91 95 05 	lds	r24, 0x0595
    2f54:	90 91 96 05 	lds	r25, 0x0596
    2f58:	28 1b       	sub	r18, r24
    2f5a:	39 0b       	sbc	r19, r25
 						// to identify which way to go we calculate commanded heading (do not travel 270 deg left, when shortest is 90 deg right)
 						int16_t heading_ctrl = 360 + heading_error;
    2f5c:	c9 01       	movw	r24, r18
    2f5e:	88 59       	subi	r24, 0x98	; 152
    2f60:	9e 4f       	sbci	r25, 0xFE	; 254
						if (heading_ctrl < 180) heading_error = heading_ctrl;
    2f62:	84 3b       	cpi	r24, 0xB4	; 180
    2f64:	91 05       	cpc	r25, r1
    2f66:	2c f0       	brlt	.+10     	; 0x2f72 <main+0x1b34>
 						// Heading hold control	
 						// input: current heading, heading_command
 						// control: Phi	
 						// controller: PD control (as per Scilab the most efficient controller)
 						// when Phi positive we do a right turn, when Phi negative, we do a left turn
 						heading_error = heading_GPS - heading_hold;	// as per Simulation
    2f68:	30 93 31 05 	sts	0x0531, r19
    2f6c:	20 93 30 05 	sts	0x0530, r18
    2f70:	04 c0       	rjmp	.+8      	; 0x2f7a <main+0x1b3c>
 						// to identify which way to go we calculate commanded heading (do not travel 270 deg left, when shortest is 90 deg right)
 						int16_t heading_ctrl = 360 + heading_error;
						if (heading_ctrl < 180) heading_error = heading_ctrl;
    2f72:	90 93 31 05 	sts	0x0531, r25
    2f76:	80 93 30 05 	sts	0x0530, r24
 						heading_error_sum += heading_error;
    2f7a:	00 91 30 05 	lds	r16, 0x0530
    2f7e:	10 91 31 05 	lds	r17, 0x0531
    2f82:	80 91 57 02 	lds	r24, 0x0257
    2f86:	90 91 58 02 	lds	r25, 0x0258
    2f8a:	80 0f       	add	r24, r16
    2f8c:	91 1f       	adc	r25, r17
    2f8e:	90 93 58 02 	sts	0x0258, r25
    2f92:	80 93 57 02 	sts	0x0257, r24
 						// The Phi_hold 0 does make sense when the sensor is not properly installed. 
 						// Otherwise it does not make sense!
 						Phi_hold = -(KP_HEAD*heading_error + KD_HEAD*(heading_error-heading_error_prev)*sample_time);
    2f96:	c0 90 46 02 	lds	r12, 0x0246
    2f9a:	d0 90 47 02 	lds	r13, 0x0247
    2f9e:	e0 90 48 02 	lds	r14, 0x0248
    2fa2:	f0 90 49 02 	lds	r15, 0x0249
    2fa6:	b8 01       	movw	r22, r16
    2fa8:	88 27       	eor	r24, r24
    2faa:	77 fd       	sbrc	r23, 7
    2fac:	80 95       	com	r24
    2fae:	98 2f       	mov	r25, r24
    2fb0:	0e 94 ab 1d 	call	0x3b56	; 0x3b56 <__floatsisf>
    2fb4:	4b 01       	movw	r8, r22
    2fb6:	5c 01       	movw	r10, r24
    2fb8:	80 91 52 05 	lds	r24, 0x0552
    2fbc:	90 91 53 05 	lds	r25, 0x0553
    2fc0:	b8 01       	movw	r22, r16
    2fc2:	68 1b       	sub	r22, r24
    2fc4:	79 0b       	sbc	r23, r25
    2fc6:	88 27       	eor	r24, r24
    2fc8:	77 fd       	sbrc	r23, 7
    2fca:	80 95       	com	r24
    2fcc:	98 2f       	mov	r25, r24
    2fce:	0e 94 ab 1d 	call	0x3b56	; 0x3b56 <__floatsisf>
    2fd2:	a7 01       	movw	r20, r14
    2fd4:	96 01       	movw	r18, r12
    2fd6:	0e 94 8b 1e 	call	0x3d16	; 0x3d16 <__mulsf3>
    2fda:	9b 01       	movw	r18, r22
    2fdc:	ac 01       	movw	r20, r24
    2fde:	c5 01       	movw	r24, r10
    2fe0:	b4 01       	movw	r22, r8
    2fe2:	0e 94 46 1c 	call	0x388c	; 0x388c <__addsf3>
    2fe6:	4b 01       	movw	r8, r22
    2fe8:	5c 01       	movw	r10, r24
    2fea:	b7 fa       	bst	r11, 7
    2fec:	b0 94       	com	r11
    2fee:	b7 f8       	bld	r11, 7
    2ff0:	b0 94       	com	r11
    2ff2:	80 92 36 05 	sts	0x0536, r8
    2ff6:	90 92 37 05 	sts	0x0537, r9
    2ffa:	a0 92 38 05 	sts	0x0538, r10
    2ffe:	b0 92 39 05 	sts	0x0539, r11
 						heading_error_prev = heading_error;
    3002:	10 93 53 05 	sts	0x0553, r17
    3006:	00 93 52 05 	sts	0x0552, r16
 						// Limiting the Bank Angle command to +- 10 maximum (= Saturation)
 						int8_t bank_limit = 10;
 						if (Phi_hold < -bank_limit) Phi_hold = -bank_limit;
    300a:	20 e0       	ldi	r18, 0x00	; 0
    300c:	30 e0       	ldi	r19, 0x00	; 0
    300e:	40 e2       	ldi	r20, 0x20	; 32
    3010:	51 ec       	ldi	r21, 0xC1	; 193
    3012:	c5 01       	movw	r24, r10
    3014:	b4 01       	movw	r22, r8
    3016:	0e 94 0c 1d 	call	0x3a18	; 0x3a18 <__cmpsf2>
    301a:	88 23       	and	r24, r24
    301c:	6c f4       	brge	.+26     	; 0x3038 <main+0x1bfa>
    301e:	80 e0       	ldi	r24, 0x00	; 0
    3020:	90 e0       	ldi	r25, 0x00	; 0
    3022:	a0 e2       	ldi	r26, 0x20	; 32
    3024:	b1 ec       	ldi	r27, 0xC1	; 193
    3026:	80 93 36 05 	sts	0x0536, r24
    302a:	90 93 37 05 	sts	0x0537, r25
    302e:	a0 93 38 05 	sts	0x0538, r26
    3032:	b0 93 39 05 	sts	0x0539, r27
    3036:	16 c0       	rjmp	.+44     	; 0x3064 <main+0x1c26>
 						else if (Phi_hold > bank_limit) Phi_hold = bank_limit;
    3038:	20 e0       	ldi	r18, 0x00	; 0
    303a:	30 e0       	ldi	r19, 0x00	; 0
    303c:	40 e2       	ldi	r20, 0x20	; 32
    303e:	51 e4       	ldi	r21, 0x41	; 65
    3040:	c5 01       	movw	r24, r10
    3042:	b4 01       	movw	r22, r8
    3044:	0e 94 80 1e 	call	0x3d00	; 0x3d00 <__gesf2>
    3048:	18 16       	cp	r1, r24
    304a:	64 f4       	brge	.+24     	; 0x3064 <main+0x1c26>
    304c:	80 e0       	ldi	r24, 0x00	; 0
    304e:	90 e0       	ldi	r25, 0x00	; 0
    3050:	a0 e2       	ldi	r26, 0x20	; 32
    3052:	b1 e4       	ldi	r27, 0x41	; 65
    3054:	80 93 36 05 	sts	0x0536, r24
    3058:	90 93 37 05 	sts	0x0537, r25
    305c:	a0 93 38 05 	sts	0x0538, r26
    3060:	b0 93 39 05 	sts	0x0539, r27
						// *********************************************	
						// Bank angle control with aileron
						// Input: Phi_hold = Phi_command
						// Output: Aileron Command

						Phi_error =  Phi_hold - Phi;		// as per Simulation in Scilab
    3064:	60 91 8d 02 	lds	r22, 0x028D
    3068:	70 91 8e 02 	lds	r23, 0x028E
    306c:	88 27       	eor	r24, r24
    306e:	77 fd       	sbrc	r23, 7
    3070:	80 95       	com	r24
    3072:	98 2f       	mov	r25, r24
    3074:	0e 94 ab 1d 	call	0x3b56	; 0x3b56 <__floatsisf>
    3078:	9b 01       	movw	r18, r22
    307a:	ac 01       	movw	r20, r24
    307c:	60 91 36 05 	lds	r22, 0x0536
    3080:	70 91 37 05 	lds	r23, 0x0537
    3084:	80 91 38 05 	lds	r24, 0x0538
    3088:	90 91 39 05 	lds	r25, 0x0539
    308c:	0e 94 45 1c 	call	0x388a	; 0x388a <__subsf3>
    3090:	26 2e       	mov	r2, r22
    3092:	37 2e       	mov	r3, r23
    3094:	08 2f       	mov	r16, r24
    3096:	19 2f       	mov	r17, r25
    3098:	86 2f       	mov	r24, r22
    309a:	93 2d       	mov	r25, r3
    309c:	a0 2f       	mov	r26, r16
    309e:	b1 2f       	mov	r27, r17
    30a0:	80 93 85 02 	sts	0x0285, r24
    30a4:	90 93 86 02 	sts	0x0286, r25
    30a8:	a0 93 87 02 	sts	0x0287, r26
    30ac:	b0 93 88 02 	sts	0x0288, r27
						Phi_error_sum += Phi_error;
    30b0:	20 91 81 02 	lds	r18, 0x0281
    30b4:	30 91 82 02 	lds	r19, 0x0282
    30b8:	40 91 83 02 	lds	r20, 0x0283
    30bc:	50 91 84 02 	lds	r21, 0x0284
    30c0:	62 2d       	mov	r22, r2
    30c2:	73 2d       	mov	r23, r3
    30c4:	80 2f       	mov	r24, r16
    30c6:	91 2f       	mov	r25, r17
    30c8:	0e 94 46 1c 	call	0x388c	; 0x388c <__addsf3>
    30cc:	6d a3       	std	Y+37, r22	; 0x25
    30ce:	7e a3       	std	Y+38, r23	; 0x26
    30d0:	8f a3       	std	Y+39, r24	; 0x27
    30d2:	98 a7       	std	Y+40, r25	; 0x28
    30d4:	47 2f       	mov	r20, r23
    30d6:	38 2f       	mov	r19, r24
    30d8:	29 2f       	mov	r18, r25
    30da:	86 2f       	mov	r24, r22
    30dc:	94 2f       	mov	r25, r20
    30de:	a3 2f       	mov	r26, r19
    30e0:	b2 2f       	mov	r27, r18
    30e2:	80 93 81 02 	sts	0x0281, r24
    30e6:	90 93 82 02 	sts	0x0282, r25
    30ea:	a0 93 83 02 	sts	0x0283, r26
    30ee:	b0 93 84 02 	sts	0x0284, r27
						ctrl_out[aileron] = (trimmed_aileron + (KP_PHI*Phi_error + KI_PHI*Phi_error_sum*sample_time) + KD_PHI*(Phi_error_prev - Phi_error)/sample_time);
    30f2:	60 91 a2 02 	lds	r22, 0x02A2
    30f6:	70 91 a3 02 	lds	r23, 0x02A3
    30fa:	80 91 a4 02 	lds	r24, 0x02A4
    30fe:	90 91 a5 02 	lds	r25, 0x02A5
    3102:	0e 94 ab 1d 	call	0x3b56	; 0x3b56 <__floatsisf>
    3106:	4b 01       	movw	r8, r22
    3108:	5c 01       	movw	r10, r24
    310a:	20 e0       	ldi	r18, 0x00	; 0
    310c:	30 e0       	ldi	r19, 0x00	; 0
    310e:	40 ea       	ldi	r20, 0xA0	; 160
    3110:	51 e4       	ldi	r21, 0x41	; 65
    3112:	62 2d       	mov	r22, r2
    3114:	73 2d       	mov	r23, r3
    3116:	80 2f       	mov	r24, r16
    3118:	91 2f       	mov	r25, r17
    311a:	0e 94 8b 1e 	call	0x3d16	; 0x3d16 <__mulsf3>
    311e:	2b 01       	movw	r4, r22
    3120:	3c 01       	movw	r6, r24
    3122:	20 e0       	ldi	r18, 0x00	; 0
    3124:	30 e0       	ldi	r19, 0x00	; 0
    3126:	40 e2       	ldi	r20, 0x20	; 32
    3128:	51 e4       	ldi	r21, 0x41	; 65
    312a:	bd a1       	ldd	r27, Y+37	; 0x25
    312c:	ae a1       	ldd	r26, Y+38	; 0x26
    312e:	ff a1       	ldd	r31, Y+39	; 0x27
    3130:	e8 a5       	ldd	r30, Y+40	; 0x28
    3132:	6b 2f       	mov	r22, r27
    3134:	7a 2f       	mov	r23, r26
    3136:	8f 2f       	mov	r24, r31
    3138:	9e 2f       	mov	r25, r30
    313a:	0e 94 8b 1e 	call	0x3d16	; 0x3d16 <__mulsf3>
    313e:	9b 01       	movw	r18, r22
    3140:	ac 01       	movw	r20, r24
    3142:	c7 01       	movw	r24, r14
    3144:	b6 01       	movw	r22, r12
    3146:	0e 94 8b 1e 	call	0x3d16	; 0x3d16 <__mulsf3>
    314a:	9b 01       	movw	r18, r22
    314c:	ac 01       	movw	r20, r24
    314e:	c3 01       	movw	r24, r6
    3150:	b2 01       	movw	r22, r4
    3152:	0e 94 46 1c 	call	0x388c	; 0x388c <__addsf3>
    3156:	9b 01       	movw	r18, r22
    3158:	ac 01       	movw	r20, r24
    315a:	c5 01       	movw	r24, r10
    315c:	b4 01       	movw	r22, r8
    315e:	0e 94 46 1c 	call	0x388c	; 0x388c <__addsf3>
    3162:	4b 01       	movw	r8, r22
    3164:	5c 01       	movw	r10, r24
    3166:	22 2d       	mov	r18, r2
    3168:	33 2d       	mov	r19, r3
    316a:	40 2f       	mov	r20, r16
    316c:	51 2f       	mov	r21, r17
    316e:	60 91 7d 02 	lds	r22, 0x027D
    3172:	70 91 7e 02 	lds	r23, 0x027E
    3176:	80 91 7f 02 	lds	r24, 0x027F
    317a:	90 91 80 02 	lds	r25, 0x0280
    317e:	0e 94 45 1c 	call	0x388a	; 0x388a <__subsf3>
    3182:	20 e0       	ldi	r18, 0x00	; 0
    3184:	30 e0       	ldi	r19, 0x00	; 0
    3186:	40 e4       	ldi	r20, 0x40	; 64
    3188:	50 e4       	ldi	r21, 0x40	; 64
    318a:	0e 94 8b 1e 	call	0x3d16	; 0x3d16 <__mulsf3>
    318e:	a7 01       	movw	r20, r14
    3190:	96 01       	movw	r18, r12
    3192:	0e 94 10 1d 	call	0x3a20	; 0x3a20 <__divsf3>
    3196:	9b 01       	movw	r18, r22
    3198:	ac 01       	movw	r20, r24
    319a:	c5 01       	movw	r24, r10
    319c:	b4 01       	movw	r22, r8
    319e:	0e 94 46 1c 	call	0x388c	; 0x388c <__addsf3>
    31a2:	0e 94 78 1d 	call	0x3af0	; 0x3af0 <__fixsfsi>
    31a6:	a4 e6       	ldi	r26, 0x64	; 100
    31a8:	b0 e0       	ldi	r27, 0x00	; 0
    31aa:	6d 93       	st	X+, r22
    31ac:	7d 93       	st	X+, r23
    31ae:	8d 93       	st	X+, r24
    31b0:	9c 93       	st	X, r25
    31b2:	13 97       	sbiw	r26, 0x03	; 3
						Phi_error_prev = Phi_error;
    31b4:	82 2d       	mov	r24, r2
    31b6:	93 2d       	mov	r25, r3
    31b8:	a0 2f       	mov	r26, r16
    31ba:	b1 2f       	mov	r27, r17
    31bc:	80 93 7d 02 	sts	0x027D, r24
    31c0:	90 93 7e 02 	sts	0x027E, r25
    31c4:	a0 93 7f 02 	sts	0x027F, r26
    31c8:	b0 93 80 02 	sts	0x0280, r27
						if(ctrl_out[aileron] > RIGHT) ctrl_out[aileron] = RIGHT;
    31cc:	e4 e6       	ldi	r30, 0x64	; 100
    31ce:	f0 e0       	ldi	r31, 0x00	; 0
    31d0:	80 81       	ld	r24, Z
    31d2:	91 81       	ldd	r25, Z+1	; 0x01
    31d4:	a2 81       	ldd	r26, Z+2	; 0x02
    31d6:	b3 81       	ldd	r27, Z+3	; 0x03
    31d8:	89 3b       	cpi	r24, 0xB9	; 185
    31da:	9b 40       	sbci	r25, 0x0B	; 11
    31dc:	a1 05       	cpc	r26, r1
    31de:	b1 05       	cpc	r27, r1
    31e0:	4c f0       	brlt	.+18     	; 0x31f4 <main+0x1db6>
    31e2:	88 eb       	ldi	r24, 0xB8	; 184
    31e4:	9b e0       	ldi	r25, 0x0B	; 11
    31e6:	a0 e0       	ldi	r26, 0x00	; 0
    31e8:	b0 e0       	ldi	r27, 0x00	; 0
    31ea:	80 83       	st	Z, r24
    31ec:	91 83       	std	Z+1, r25	; 0x01
    31ee:	a2 83       	std	Z+2, r26	; 0x02
    31f0:	b3 83       	std	Z+3, r27	; 0x03
    31f2:	13 c0       	rjmp	.+38     	; 0x321a <main+0x1ddc>
						else if (ctrl_out[aileron] < LEFT) ctrl_out[aileron] = LEFT;	
    31f4:	e4 e6       	ldi	r30, 0x64	; 100
    31f6:	f0 e0       	ldi	r31, 0x00	; 0
    31f8:	80 81       	ld	r24, Z
    31fa:	91 81       	ldd	r25, Z+1	; 0x01
    31fc:	a2 81       	ldd	r26, Z+2	; 0x02
    31fe:	b3 81       	ldd	r27, Z+3	; 0x03
    3200:	88 3e       	cpi	r24, 0xE8	; 232
    3202:	93 40       	sbci	r25, 0x03	; 3
    3204:	a1 05       	cpc	r26, r1
    3206:	b1 05       	cpc	r27, r1
    3208:	44 f4       	brge	.+16     	; 0x321a <main+0x1ddc>
    320a:	88 ee       	ldi	r24, 0xE8	; 232
    320c:	93 e0       	ldi	r25, 0x03	; 3
    320e:	a0 e0       	ldi	r26, 0x00	; 0
    3210:	b0 e0       	ldi	r27, 0x00	; 0
    3212:	80 83       	st	Z, r24
    3214:	91 83       	std	Z+1, r25	; 0x01
    3216:	a2 83       	std	Z+2, r26	; 0x02
    3218:	b3 83       	std	Z+3, r27	; 0x03
						
						//**********************************************
						// SPEED CONTROL AUTOPILOT
						
 						// Speed control (PI only -> noisy signal) with motor
 						speed_error = speed_hold - speed_filt; // Positive Error (too slow) shall give positive input (motor increase)
    321a:	60 91 32 05 	lds	r22, 0x0532
    321e:	70 91 33 05 	lds	r23, 0x0533
    3222:	88 27       	eor	r24, r24
    3224:	77 fd       	sbrc	r23, 7
    3226:	80 95       	com	r24
    3228:	98 2f       	mov	r25, r24
    322a:	0e 94 ab 1d 	call	0x3b56	; 0x3b56 <__floatsisf>
    322e:	9b 01       	movw	r18, r22
    3230:	ac 01       	movw	r20, r24
    3232:	60 91 a0 05 	lds	r22, 0x05A0
    3236:	70 91 a1 05 	lds	r23, 0x05A1
    323a:	80 91 a2 05 	lds	r24, 0x05A2
    323e:	90 91 a3 05 	lds	r25, 0x05A3
    3242:	0e 94 45 1c 	call	0x388a	; 0x388a <__subsf3>
    3246:	66 2e       	mov	r6, r22
    3248:	77 2e       	mov	r7, r23
    324a:	08 2f       	mov	r16, r24
    324c:	19 2f       	mov	r17, r25
    324e:	86 2f       	mov	r24, r22
    3250:	97 2d       	mov	r25, r7
    3252:	a0 2f       	mov	r26, r16
    3254:	b1 2f       	mov	r27, r17
    3256:	80 93 44 05 	sts	0x0544, r24
    325a:	90 93 45 05 	sts	0x0545, r25
    325e:	a0 93 46 05 	sts	0x0546, r26
    3262:	b0 93 47 05 	sts	0x0547, r27
 						speed_error_sum += speed_error;
    3266:	20 91 78 05 	lds	r18, 0x0578
    326a:	30 91 79 05 	lds	r19, 0x0579
    326e:	40 91 7a 05 	lds	r20, 0x057A
    3272:	50 91 7b 05 	lds	r21, 0x057B
    3276:	66 2d       	mov	r22, r6
    3278:	77 2d       	mov	r23, r7
    327a:	80 2f       	mov	r24, r16
    327c:	91 2f       	mov	r25, r17
    327e:	0e 94 46 1c 	call	0x388c	; 0x388c <__addsf3>
    3282:	26 2e       	mov	r2, r22
    3284:	37 2e       	mov	r3, r23
    3286:	48 2e       	mov	r4, r24
    3288:	59 2e       	mov	r5, r25
    328a:	86 2f       	mov	r24, r22
    328c:	93 2d       	mov	r25, r3
    328e:	a4 2d       	mov	r26, r4
    3290:	b5 2d       	mov	r27, r5
    3292:	80 93 78 05 	sts	0x0578, r24
    3296:	90 93 79 05 	sts	0x0579, r25
    329a:	a0 93 7a 05 	sts	0x057A, r26
    329e:	b0 93 7b 05 	sts	0x057B, r27
 						// when too slow (bracket turns positive) the motor gets increased
 						ctrl_out[motor] = trimmed_motor + KP_SPEED*speed_error + (KI_SPEED * speed_error_sum * sample_time);
    32a2:	60 91 a6 02 	lds	r22, 0x02A6
    32a6:	70 91 a7 02 	lds	r23, 0x02A7
    32aa:	80 91 a8 02 	lds	r24, 0x02A8
    32ae:	90 91 a9 02 	lds	r25, 0x02A9
    32b2:	0e 94 ab 1d 	call	0x3b56	; 0x3b56 <__floatsisf>
    32b6:	9b 01       	movw	r18, r22
    32b8:	ac 01       	movw	r20, r24
    32ba:	66 2d       	mov	r22, r6
    32bc:	77 2d       	mov	r23, r7
    32be:	80 2f       	mov	r24, r16
    32c0:	91 2f       	mov	r25, r17
    32c2:	0e 94 46 1c 	call	0x388c	; 0x388c <__addsf3>
    32c6:	4b 01       	movw	r8, r22
    32c8:	5c 01       	movw	r10, r24
    32ca:	22 2d       	mov	r18, r2
    32cc:	33 2d       	mov	r19, r3
    32ce:	44 2d       	mov	r20, r4
    32d0:	55 2d       	mov	r21, r5
    32d2:	c7 01       	movw	r24, r14
    32d4:	b6 01       	movw	r22, r12
    32d6:	0e 94 8b 1e 	call	0x3d16	; 0x3d16 <__mulsf3>
    32da:	9b 01       	movw	r18, r22
    32dc:	ac 01       	movw	r20, r24
    32de:	c5 01       	movw	r24, r10
    32e0:	b4 01       	movw	r22, r8
    32e2:	0e 94 46 1c 	call	0x388c	; 0x388c <__addsf3>
    32e6:	0e 94 78 1d 	call	0x3af0	; 0x3af0 <__fixsfsi>
    32ea:	a0 e6       	ldi	r26, 0x60	; 96
    32ec:	b0 e0       	ldi	r27, 0x00	; 0
    32ee:	6d 93       	st	X+, r22
    32f0:	7d 93       	st	X+, r23
    32f2:	8d 93       	st	X+, r24
    32f4:	9c 93       	st	X, r25
    32f6:	13 97       	sbiw	r26, 0x03	; 3
 						//write_var(KI_SPEED * speed_error_sum * sample_time);write_string(";");
 						if(ctrl_out[motor] > MOTOR_LIM_HI)
    32f8:	8d 91       	ld	r24, X+
    32fa:	9d 91       	ld	r25, X+
    32fc:	0d 90       	ld	r0, X+
    32fe:	bc 91       	ld	r27, X
    3300:	a0 2d       	mov	r26, r0
    3302:	89 3b       	cpi	r24, 0xB9	; 185
    3304:	9b 40       	sbci	r25, 0x0B	; 11
    3306:	a1 05       	cpc	r26, r1
    3308:	b1 05       	cpc	r27, r1
    330a:	5c f0       	brlt	.+22     	; 0x3322 <main+0x1ee4>
 						{
	 						ctrl_out[motor] = MOTOR_LIM_HI;
    330c:	88 eb       	ldi	r24, 0xB8	; 184
    330e:	9b e0       	ldi	r25, 0x0B	; 11
    3310:	a0 e0       	ldi	r26, 0x00	; 0
    3312:	b0 e0       	ldi	r27, 0x00	; 0
    3314:	e0 e6       	ldi	r30, 0x60	; 96
    3316:	f0 e0       	ldi	r31, 0x00	; 0
    3318:	80 83       	st	Z, r24
    331a:	91 83       	std	Z+1, r25	; 0x01
    331c:	a2 83       	std	Z+2, r26	; 0x02
    331e:	b3 83       	std	Z+3, r27	; 0x03
    3320:	13 c0       	rjmp	.+38     	; 0x3348 <main+0x1f0a>
	 						//speed_error_sum -= speed_error; // to stop
 						}
 						else if (ctrl_out[motor] < MOTOR_LIM_LOW)
    3322:	e0 e6       	ldi	r30, 0x60	; 96
    3324:	f0 e0       	ldi	r31, 0x00	; 0
    3326:	80 81       	ld	r24, Z
    3328:	91 81       	ldd	r25, Z+1	; 0x01
    332a:	a2 81       	ldd	r26, Z+2	; 0x02
    332c:	b3 81       	ldd	r27, Z+3	; 0x03
    332e:	8a 3e       	cpi	r24, 0xEA	; 234
    3330:	96 40       	sbci	r25, 0x06	; 6
    3332:	a1 05       	cpc	r26, r1
    3334:	b1 05       	cpc	r27, r1
    3336:	44 f4       	brge	.+16     	; 0x3348 <main+0x1f0a>
 						{
	 						ctrl_out[motor] = MOTOR_LIM_LOW;
    3338:	8a ee       	ldi	r24, 0xEA	; 234
    333a:	96 e0       	ldi	r25, 0x06	; 6
    333c:	a0 e0       	ldi	r26, 0x00	; 0
    333e:	b0 e0       	ldi	r27, 0x00	; 0
    3340:	80 83       	st	Z, r24
    3342:	91 83       	std	Z+1, r25	; 0x01
    3344:	a2 83       	std	Z+2, r26	; 0x02
    3346:	b3 83       	std	Z+3, r27	; 0x03
	 						//speed_error_sum -= speed_error;
 						}
 						speed_error_prev = speed_error;
    3348:	86 2d       	mov	r24, r6
    334a:	97 2d       	mov	r25, r7
    334c:	a0 2f       	mov	r26, r16
    334e:	b1 2f       	mov	r27, r17
    3350:	80 93 92 02 	sts	0x0292, r24
    3354:	90 93 93 02 	sts	0x0293, r25
    3358:	a0 93 94 02 	sts	0x0294, r26
    335c:	b0 93 95 02 	sts	0x0295, r27
				}
				
				// Writing to OLED
				if (TASK_OLED == TRUE)
				{
					send_cnt++;
    3360:	80 91 4c 02 	lds	r24, 0x024C
    3364:	8f 5f       	subi	r24, 0xFF	; 255

					if (send_cnt==33)
    3366:	81 32       	cpi	r24, 0x21	; 33
    3368:	19 f0       	breq	.+6      	; 0x3370 <main+0x1f32>
				}
				
				// Writing to OLED
				if (TASK_OLED == TRUE)
				{
					send_cnt++;
    336a:	80 93 4c 02 	sts	0x024C, r24
    336e:	af c0       	rjmp	.+350    	; 0x34ce <main+0x2090>

					if (send_cnt==33)
					{
						send_cnt = 0;	// Reset the counter
    3370:	10 92 4c 02 	sts	0x024C, r1
						
						if (GPS_home_set == TRUE)
    3374:	80 91 52 02 	lds	r24, 0x0252
    3378:	81 30       	cpi	r24, 0x01	; 1
    337a:	59 f4       	brne	.+22     	; 0x3392 <main+0x1f54>
						{
							OLED_set_position(5,1);
    337c:	61 e0       	ldi	r22, 0x01	; 1
    337e:	85 e0       	ldi	r24, 0x05	; 5
    3380:	0e 94 3f 03 	call	0x67e	; 0x67e <OLED_set_position>
							OLED_send_char_S();
    3384:	0e 94 7f 04 	call	0x8fe	; 0x8fe <OLED_send_char_S>
							OLED_send_char_E();
    3388:	0e 94 8d 03 	call	0x71a	; 0x71a <OLED_send_char_E>
							OLED_send_char_T();
    338c:	0e 94 95 04 	call	0x92a	; 0x92a <OLED_send_char_T>
    3390:	0a c0       	rjmp	.+20     	; 0x33a6 <main+0x1f68>
						}
						else
						{
							OLED_set_position(5,1);
    3392:	61 e0       	ldi	r22, 0x01	; 1
    3394:	85 e0       	ldi	r24, 0x05	; 5
    3396:	0e 94 3f 03 	call	0x67e	; 0x67e <OLED_set_position>
							OLED_send_char_N();
    339a:	0e 94 27 04 	call	0x84e	; 0x84e <OLED_send_char_N>
							OLED_send_char_O();
    339e:	0e 94 3d 04 	call	0x87a	; 0x87a <OLED_send_char_O>
							OLED_send_char_SP();
    33a2:	0e 94 de 04 	call	0x9bc	; 0x9bc <OLED_send_char_SP>
						}

						if (lights_enabled == TRUE)
    33a6:	80 91 50 02 	lds	r24, 0x0250
    33aa:	81 30       	cpi	r24, 0x01	; 1
    33ac:	59 f4       	brne	.+22     	; 0x33c4 <main+0x1f86>
						{
							OLED_set_position(5,0);
    33ae:	60 e0       	ldi	r22, 0x00	; 0
    33b0:	85 e0       	ldi	r24, 0x05	; 5
    33b2:	0e 94 3f 03 	call	0x67e	; 0x67e <OLED_set_position>
							OLED_send_char_O();
    33b6:	0e 94 3d 04 	call	0x87a	; 0x87a <OLED_send_char_O>
							OLED_send_char_N();
    33ba:	0e 94 27 04 	call	0x84e	; 0x84e <OLED_send_char_N>
							OLED_send_char_SP();
    33be:	0e 94 de 04 	call	0x9bc	; 0x9bc <OLED_send_char_SP>
    33c2:	0a c0       	rjmp	.+20     	; 0x33d8 <main+0x1f9a>
						}
						else
						{
							OLED_set_position(5,0);
    33c4:	60 e0       	ldi	r22, 0x00	; 0
    33c6:	85 e0       	ldi	r24, 0x05	; 5
    33c8:	0e 94 3f 03 	call	0x67e	; 0x67e <OLED_set_position>
							OLED_send_char_O();
    33cc:	0e 94 3d 04 	call	0x87a	; 0x87a <OLED_send_char_O>
							OLED_send_char_F();
    33d0:	0e 94 a3 03 	call	0x746	; 0x746 <OLED_send_char_F>
							OLED_send_char_F();
    33d4:	0e 94 a3 03 	call	0x746	; 0x746 <OLED_send_char_F>
						}
						
						if (battery > 80) OLED_battery_100(14,1);
    33d8:	80 91 4d 02 	lds	r24, 0x024D
    33dc:	81 35       	cpi	r24, 0x51	; 81
    33de:	38 f0       	brcs	.+14     	; 0x33ee <main+0x1fb0>
    33e0:	61 e0       	ldi	r22, 0x01	; 1
    33e2:	70 e0       	ldi	r23, 0x00	; 0
    33e4:	8e e0       	ldi	r24, 0x0E	; 14
    33e6:	90 e0       	ldi	r25, 0x00	; 0
    33e8:	0e 94 f4 04 	call	0x9e8	; 0x9e8 <OLED_battery_100>
    33ec:	2a c0       	rjmp	.+84     	; 0x3442 <main+0x2004>
						else if(battery > 60) OLED_battery_80(14,1);
    33ee:	8d 33       	cpi	r24, 0x3D	; 61
    33f0:	38 f0       	brcs	.+14     	; 0x3400 <main+0x1fc2>
    33f2:	61 e0       	ldi	r22, 0x01	; 1
    33f4:	70 e0       	ldi	r23, 0x00	; 0
    33f6:	8e e0       	ldi	r24, 0x0E	; 14
    33f8:	90 e0       	ldi	r25, 0x00	; 0
    33fa:	0e 94 60 05 	call	0xac0	; 0xac0 <OLED_battery_80>
    33fe:	21 c0       	rjmp	.+66     	; 0x3442 <main+0x2004>
						else if (battery > 40) OLED_battery_60(14,1);
    3400:	89 32       	cpi	r24, 0x29	; 41
    3402:	38 f0       	brcs	.+14     	; 0x3412 <main+0x1fd4>
    3404:	61 e0       	ldi	r22, 0x01	; 1
    3406:	70 e0       	ldi	r23, 0x00	; 0
    3408:	8e e0       	ldi	r24, 0x0E	; 14
    340a:	90 e0       	ldi	r25, 0x00	; 0
    340c:	0e 94 cc 05 	call	0xb98	; 0xb98 <OLED_battery_60>
    3410:	18 c0       	rjmp	.+48     	; 0x3442 <main+0x2004>
						else if (battery > 30) OLED_battery_40(14,1);
    3412:	8f 31       	cpi	r24, 0x1F	; 31
    3414:	38 f0       	brcs	.+14     	; 0x3424 <main+0x1fe6>
    3416:	61 e0       	ldi	r22, 0x01	; 1
    3418:	70 e0       	ldi	r23, 0x00	; 0
    341a:	8e e0       	ldi	r24, 0x0E	; 14
    341c:	90 e0       	ldi	r25, 0x00	; 0
    341e:	0e 94 38 06 	call	0xc70	; 0xc70 <OLED_battery_40>
    3422:	0f c0       	rjmp	.+30     	; 0x3442 <main+0x2004>
						else if (battery > 15) OLED_battery_30(14,1);
    3424:	80 31       	cpi	r24, 0x10	; 16
    3426:	38 f0       	brcs	.+14     	; 0x3436 <main+0x1ff8>
    3428:	61 e0       	ldi	r22, 0x01	; 1
    342a:	70 e0       	ldi	r23, 0x00	; 0
    342c:	8e e0       	ldi	r24, 0x0E	; 14
    342e:	90 e0       	ldi	r25, 0x00	; 0
    3430:	0e 94 a4 06 	call	0xd48	; 0xd48 <OLED_battery_30>
    3434:	06 c0       	rjmp	.+12     	; 0x3442 <main+0x2004>
						else OLED_battery_0(14,1);
    3436:	61 e0       	ldi	r22, 0x01	; 1
    3438:	70 e0       	ldi	r23, 0x00	; 0
    343a:	8e e0       	ldi	r24, 0x0E	; 14
    343c:	90 e0       	ldi	r25, 0x00	; 0
    343e:	0e 94 10 07 	call	0xe20	; 0xe20 <OLED_battery_0>
						
						if (Ctrl_Mode == DIRECT_CTRL)
    3442:	80 91 b1 02 	lds	r24, 0x02B1
    3446:	81 11       	cpse	r24, r1
    3448:	19 c0       	rjmp	.+50     	; 0x347c <main+0x203e>
						{
							OLED_set_position(5,2);
    344a:	62 e0       	ldi	r22, 0x02	; 2
    344c:	85 e0       	ldi	r24, 0x05	; 5
    344e:	0e 94 3f 03 	call	0x67e	; 0x67e <OLED_set_position>
							OLED_send_char_D();
    3452:	0e 94 77 03 	call	0x6ee	; 0x6ee <OLED_send_char_D>
							OLED_send_char_I();
    3456:	0e 94 e5 03 	call	0x7ca	; 0x7ca <OLED_send_char_I>
							OLED_send_char_R();
    345a:	0e 94 69 04 	call	0x8d2	; 0x8d2 <OLED_send_char_R>
							OLED_send_char_SP();
    345e:	0e 94 de 04 	call	0x9bc	; 0x9bc <OLED_send_char_SP>
							
							OLED_set_position(5,3);	// Resetting the Display that matters only in hold mode
    3462:	63 e0       	ldi	r22, 0x03	; 3
    3464:	85 e0       	ldi	r24, 0x05	; 5
    3466:	0e 94 3f 03 	call	0x67e	; 0x67e <OLED_set_position>
							OLED_send_char_SP();
    346a:	0e 94 de 04 	call	0x9bc	; 0x9bc <OLED_send_char_SP>
							OLED_send_char_SP();
    346e:	0e 94 de 04 	call	0x9bc	; 0x9bc <OLED_send_char_SP>
							OLED_send_char_SP();
    3472:	0e 94 de 04 	call	0x9bc	; 0x9bc <OLED_send_char_SP>
							OLED_send_char_SP();
    3476:	0e 94 de 04 	call	0x9bc	; 0x9bc <OLED_send_char_SP>
    347a:	29 c0       	rjmp	.+82     	; 0x34ce <main+0x2090>
													
						}
						else if (Ctrl_Mode == HOLD_CTRL)
    347c:	83 30       	cpi	r24, 0x03	; 3
    347e:	69 f4       	brne	.+26     	; 0x349a <main+0x205c>
						{
							OLED_set_position(5,2);
    3480:	62 e0       	ldi	r22, 0x02	; 2
    3482:	85 e0       	ldi	r24, 0x05	; 5
    3484:	0e 94 3f 03 	call	0x67e	; 0x67e <OLED_set_position>
							OLED_send_char_H();
    3488:	0e 94 cf 03 	call	0x79e	; 0x79e <OLED_send_char_H>
							OLED_send_char_O();
    348c:	0e 94 3d 04 	call	0x87a	; 0x87a <OLED_send_char_O>
							OLED_send_char_L();
    3490:	0e 94 fb 03 	call	0x7f6	; 0x7f6 <OLED_send_char_L>
							OLED_send_char_D();
    3494:	0e 94 77 03 	call	0x6ee	; 0x6ee <OLED_send_char_D>
    3498:	1a c0       	rjmp	.+52     	; 0x34ce <main+0x2090>
						}
						else if (Ctrl_Mode == DAMPED_CTRL)
    349a:	82 30       	cpi	r24, 0x02	; 2
    349c:	c1 f4       	brne	.+48     	; 0x34ce <main+0x2090>
						{
							OLED_set_position(5,2);
    349e:	62 e0       	ldi	r22, 0x02	; 2
    34a0:	85 e0       	ldi	r24, 0x05	; 5
    34a2:	0e 94 3f 03 	call	0x67e	; 0x67e <OLED_set_position>
							OLED_send_char_D();
    34a6:	0e 94 77 03 	call	0x6ee	; 0x6ee <OLED_send_char_D>
							OLED_send_char_A();
    34aa:	0e 94 61 03 	call	0x6c2	; 0x6c2 <OLED_send_char_A>
							OLED_send_char_M();
    34ae:	0e 94 11 04 	call	0x822	; 0x822 <OLED_send_char_M>
							OLED_send_char_P();
    34b2:	0e 94 53 04 	call	0x8a6	; 0x8a6 <OLED_send_char_P>
							
							OLED_set_position(5,3);	// Resetting the Display that matters only in hold mode
    34b6:	63 e0       	ldi	r22, 0x03	; 3
    34b8:	85 e0       	ldi	r24, 0x05	; 5
    34ba:	0e 94 3f 03 	call	0x67e	; 0x67e <OLED_set_position>
							OLED_send_char_SP();
    34be:	0e 94 de 04 	call	0x9bc	; 0x9bc <OLED_send_char_SP>
							OLED_send_char_SP();
    34c2:	0e 94 de 04 	call	0x9bc	; 0x9bc <OLED_send_char_SP>
							OLED_send_char_SP();
    34c6:	0e 94 de 04 	call	0x9bc	; 0x9bc <OLED_send_char_SP>
							OLED_send_char_SP();
    34ca:	0e 94 de 04 	call	0x9bc	; 0x9bc <OLED_send_char_SP>
				
					// writing all data to serial port if enabled
					if(SERIAL_LOG == TRUE)	// set serial log variable to enable / disable output
					{
						
						write_var(ctrl_out[motor]);write_string(";");
    34ce:	a0 e6       	ldi	r26, 0x60	; 96
    34d0:	b0 e0       	ldi	r27, 0x00	; 0
    34d2:	6d 91       	ld	r22, X+
    34d4:	7d 91       	ld	r23, X+
    34d6:	8d 91       	ld	r24, X+
    34d8:	9c 91       	ld	r25, X
    34da:	0e 94 05 1c 	call	0x380a	; 0x380a <write_var>
    34de:	8c ec       	ldi	r24, 0xCC	; 204
    34e0:	91 e0       	ldi	r25, 0x01	; 1
    34e2:	0e 94 e1 1b 	call	0x37c2	; 0x37c2 <write_string>
						write_var(ctrl_out[aileron]);write_string(";");
    34e6:	e4 e6       	ldi	r30, 0x64	; 100
    34e8:	f0 e0       	ldi	r31, 0x00	; 0
    34ea:	60 81       	ld	r22, Z
    34ec:	71 81       	ldd	r23, Z+1	; 0x01
    34ee:	82 81       	ldd	r24, Z+2	; 0x02
    34f0:	93 81       	ldd	r25, Z+3	; 0x03
    34f2:	0e 94 05 1c 	call	0x380a	; 0x380a <write_var>
    34f6:	8c ec       	ldi	r24, 0xCC	; 204
    34f8:	91 e0       	ldi	r25, 0x01	; 1
    34fa:	0e 94 e1 1b 	call	0x37c2	; 0x37c2 <write_string>
						write_var(ctrl_out[elevator]);write_string(";");
    34fe:	a8 e6       	ldi	r26, 0x68	; 104
    3500:	b0 e0       	ldi	r27, 0x00	; 0
    3502:	6d 91       	ld	r22, X+
    3504:	7d 91       	ld	r23, X+
    3506:	8d 91       	ld	r24, X+
    3508:	9c 91       	ld	r25, X
    350a:	0e 94 05 1c 	call	0x380a	; 0x380a <write_var>
    350e:	8c ec       	ldi	r24, 0xCC	; 204
    3510:	91 e0       	ldi	r25, 0x01	; 1
    3512:	0e 94 e1 1b 	call	0x37c2	; 0x37c2 <write_string>
						write_var(ctrl_out[rudder]);write_string(";");
    3516:	ec e6       	ldi	r30, 0x6C	; 108
    3518:	f0 e0       	ldi	r31, 0x00	; 0
    351a:	60 81       	ld	r22, Z
    351c:	71 81       	ldd	r23, Z+1	; 0x01
    351e:	82 81       	ldd	r24, Z+2	; 0x02
    3520:	93 81       	ldd	r25, Z+3	; 0x03
    3522:	0e 94 05 1c 	call	0x380a	; 0x380a <write_var>
    3526:	8c ec       	ldi	r24, 0xCC	; 204
    3528:	91 e0       	ldi	r25, 0x01	; 1
    352a:	0e 94 e1 1b 	call	0x37c2	; 0x37c2 <write_string>
						write_var(ctrl_out[flap]);write_string(";");
    352e:	a0 e7       	ldi	r26, 0x70	; 112
    3530:	b0 e0       	ldi	r27, 0x00	; 0
    3532:	6d 91       	ld	r22, X+
    3534:	7d 91       	ld	r23, X+
    3536:	8d 91       	ld	r24, X+
    3538:	9c 91       	ld	r25, X
    353a:	0e 94 05 1c 	call	0x380a	; 0x380a <write_var>
    353e:	8c ec       	ldi	r24, 0xCC	; 204
    3540:	91 e0       	ldi	r25, 0x01	; 1
    3542:	0e 94 e1 1b 	call	0x37c2	; 0x37c2 <write_string>
						write_var(Phi);write_string(";");
    3546:	60 91 8d 02 	lds	r22, 0x028D
    354a:	70 91 8e 02 	lds	r23, 0x028E
    354e:	88 27       	eor	r24, r24
    3550:	77 fd       	sbrc	r23, 7
    3552:	80 95       	com	r24
    3554:	98 2f       	mov	r25, r24
    3556:	0e 94 05 1c 	call	0x380a	; 0x380a <write_var>
    355a:	8c ec       	ldi	r24, 0xCC	; 204
    355c:	91 e0       	ldi	r25, 0x01	; 1
    355e:	0e 94 e1 1b 	call	0x37c2	; 0x37c2 <write_string>
						write_var(Theta);write_string(";");
    3562:	60 91 83 05 	lds	r22, 0x0583
    3566:	70 91 84 05 	lds	r23, 0x0584
    356a:	88 27       	eor	r24, r24
    356c:	77 fd       	sbrc	r23, 7
    356e:	80 95       	com	r24
    3570:	98 2f       	mov	r25, r24
    3572:	0e 94 05 1c 	call	0x380a	; 0x380a <write_var>
    3576:	8c ec       	ldi	r24, 0xCC	; 204
    3578:	91 e0       	ldi	r25, 0x01	; 1
    357a:	0e 94 e1 1b 	call	0x37c2	; 0x37c2 <write_string>
						write_var(heading_GPS);	write_string(";");
    357e:	60 91 5b 02 	lds	r22, 0x025B
    3582:	70 91 5c 02 	lds	r23, 0x025C
    3586:	88 27       	eor	r24, r24
    3588:	77 fd       	sbrc	r23, 7
    358a:	80 95       	com	r24
    358c:	98 2f       	mov	r25, r24
    358e:	0e 94 05 1c 	call	0x380a	; 0x380a <write_var>
    3592:	8c ec       	ldi	r24, 0xCC	; 204
    3594:	91 e0       	ldi	r25, 0x01	; 1
    3596:	0e 94 e1 1b 	call	0x37c2	; 0x37c2 <write_string>
						write_var(altitude_filt);write_string(";");
    359a:	60 91 72 05 	lds	r22, 0x0572
    359e:	70 91 73 05 	lds	r23, 0x0573
    35a2:	88 27       	eor	r24, r24
    35a4:	77 fd       	sbrc	r23, 7
    35a6:	80 95       	com	r24
    35a8:	98 2f       	mov	r25, r24
    35aa:	0e 94 05 1c 	call	0x380a	; 0x380a <write_var>
    35ae:	8c ec       	ldi	r24, 0xCC	; 204
    35b0:	91 e0       	ldi	r25, 0x01	; 1
    35b2:	0e 94 e1 1b 	call	0x37c2	; 0x37c2 <write_string>
						write_var(speed_filt);write_string(";");
    35b6:	60 91 32 05 	lds	r22, 0x0532
    35ba:	70 91 33 05 	lds	r23, 0x0533
    35be:	88 27       	eor	r24, r24
    35c0:	77 fd       	sbrc	r23, 7
    35c2:	80 95       	com	r24
    35c4:	98 2f       	mov	r25, r24
    35c6:	0e 94 05 1c 	call	0x380a	; 0x380a <write_var>
    35ca:	8c ec       	ldi	r24, 0xCC	; 204
    35cc:	91 e0       	ldi	r25, 0x01	; 1
    35ce:	0e 94 e1 1b 	call	0x37c2	; 0x37c2 <write_string>
						write_var(alt_hold);write_string(";");
    35d2:	60 91 34 05 	lds	r22, 0x0534
    35d6:	70 91 35 05 	lds	r23, 0x0535
    35da:	88 27       	eor	r24, r24
    35dc:	77 fd       	sbrc	r23, 7
    35de:	80 95       	com	r24
    35e0:	98 2f       	mov	r25, r24
    35e2:	0e 94 05 1c 	call	0x380a	; 0x380a <write_var>
    35e6:	8c ec       	ldi	r24, 0xCC	; 204
    35e8:	91 e0       	ldi	r25, 0x01	; 1
    35ea:	0e 94 e1 1b 	call	0x37c2	; 0x37c2 <write_string>
						write_var(Phi_hold);write_string(";");
    35ee:	60 91 36 05 	lds	r22, 0x0536
    35f2:	70 91 37 05 	lds	r23, 0x0537
    35f6:	80 91 38 05 	lds	r24, 0x0538
    35fa:	90 91 39 05 	lds	r25, 0x0539
    35fe:	0e 94 78 1d 	call	0x3af0	; 0x3af0 <__fixsfsi>
    3602:	0e 94 05 1c 	call	0x380a	; 0x380a <write_var>
    3606:	8c ec       	ldi	r24, 0xCC	; 204
    3608:	91 e0       	ldi	r25, 0x01	; 1
    360a:	0e 94 e1 1b 	call	0x37c2	; 0x37c2 <write_string>
						write_var(Theta_hold);write_string(";");
    360e:	60 91 4c 05 	lds	r22, 0x054C
    3612:	70 91 4d 05 	lds	r23, 0x054D
    3616:	88 27       	eor	r24, r24
    3618:	77 fd       	sbrc	r23, 7
    361a:	80 95       	com	r24
    361c:	98 2f       	mov	r25, r24
    361e:	0e 94 05 1c 	call	0x380a	; 0x380a <write_var>
    3622:	8c ec       	ldi	r24, 0xCC	; 204
    3624:	91 e0       	ldi	r25, 0x01	; 1
    3626:	0e 94 e1 1b 	call	0x37c2	; 0x37c2 <write_string>
						write_var(speed_hold);
    362a:	60 91 a0 05 	lds	r22, 0x05A0
    362e:	70 91 a1 05 	lds	r23, 0x05A1
    3632:	80 91 a2 05 	lds	r24, 0x05A2
    3636:	90 91 a3 05 	lds	r25, 0x05A3
    363a:	0e 94 78 1d 	call	0x3af0	; 0x3af0 <__fixsfsi>
    363e:	0e 94 05 1c 	call	0x380a	; 0x380a <write_var>
						
						// In case at least once a GPS Signal has been received, the GPS Info will also be printed
					
						if(strcmp(GPS_RMC[GPS_RMC_LONGITUDE],"")!=0)
    3642:	80 91 eb 02 	lds	r24, 0x02EB
    3646:	88 23       	and	r24, r24
    3648:	41 f1       	breq	.+80     	; 0x369a <main+0x225c>
						{
							write_string(";");
    364a:	8c ec       	ldi	r24, 0xCC	; 204
    364c:	91 e0       	ldi	r25, 0x01	; 1
    364e:	0e 94 e1 1b 	call	0x37c2	; 0x37c2 <write_string>
							write_string(GPS_RMC[GPS_RMC_TIME]);
    3652:	8f eb       	ldi	r24, 0xBF	; 191
    3654:	92 e0       	ldi	r25, 0x02	; 2
    3656:	0e 94 e1 1b 	call	0x37c2	; 0x37c2 <write_string>
							write_string(";");
    365a:	8c ec       	ldi	r24, 0xCC	; 204
    365c:	91 e0       	ldi	r25, 0x01	; 1
    365e:	0e 94 e1 1b 	call	0x37c2	; 0x37c2 <write_string>
							write_string(GPS_RMC[GPS_RMC_LONGITUDE]);
    3662:	8b ee       	ldi	r24, 0xEB	; 235
    3664:	92 e0       	ldi	r25, 0x02	; 2
    3666:	0e 94 e1 1b 	call	0x37c2	; 0x37c2 <write_string>
							write_string(";");
    366a:	8c ec       	ldi	r24, 0xCC	; 204
    366c:	91 e0       	ldi	r25, 0x01	; 1
    366e:	0e 94 e1 1b 	call	0x37c2	; 0x37c2 <write_string>
							write_string(GPS_RMC[GPS_RMC_LATITUDE]);
    3672:	85 ed       	ldi	r24, 0xD5	; 213
    3674:	92 e0       	ldi	r25, 0x02	; 2
    3676:	0e 94 e1 1b 	call	0x37c2	; 0x37c2 <write_string>
							write_string(";");
    367a:	8c ec       	ldi	r24, 0xCC	; 204
    367c:	91 e0       	ldi	r25, 0x01	; 1
    367e:	0e 94 e1 1b 	call	0x37c2	; 0x37c2 <write_string>
							write_string(GPS_RMC[GPS_RMC_PATH]);
    3682:	8c e0       	ldi	r24, 0x0C	; 12
    3684:	93 e0       	ldi	r25, 0x03	; 3
    3686:	0e 94 e1 1b 	call	0x37c2	; 0x37c2 <write_string>
							write_string(";");
    368a:	8c ec       	ldi	r24, 0xCC	; 204
    368c:	91 e0       	ldi	r25, 0x01	; 1
    368e:	0e 94 e1 1b 	call	0x37c2	; 0x37c2 <write_string>
							write_string(GPS_GGA[GPS_GGA_ALTMSL]);
    3692:	87 ec       	ldi	r24, 0xC7	; 199
    3694:	93 e0       	ldi	r25, 0x03	; 3
    3696:	0e 94 e1 1b 	call	0x37c2	; 0x37c2 <write_string>
						}
					
						write_string_ln(";");
    369a:	8c ec       	ldi	r24, 0xCC	; 204
    369c:	91 e0       	ldi	r25, 0x01	; 1
    369e:	0e 94 f1 1b 	call	0x37e2	; 0x37e2 <write_string_ln>
					}
					
					
					
				Ctrl_Mode_prev = Ctrl_Mode;		// Setting previous State
    36a2:	80 91 b1 02 	lds	r24, 0x02B1
    36a6:	80 93 b0 02 	sts	0x02B0, r24
				
				ctrl_in_prev[9] = ctrl_in;
    36aa:	24 e3       	ldi	r18, 0x34	; 52
    36ac:	32 e0       	ldi	r19, 0x02	; 2
    36ae:	e4 e0       	ldi	r30, 0x04	; 4
    36b0:	f5 e0       	ldi	r31, 0x05	; 5
    36b2:	31 83       	std	Z+1, r19	; 0x01
    36b4:	20 83       	st	Z, r18
				//GPS_string_prev[GPS_LONGITUDE][] = GPS_string[GPS_LONGITUDE];
			}		
			
			
			// Toggling the Watchdog (Reset)
			wdt_reset();
    36b6:	a8 95       	wdr
    }
    36b8:	0c 94 7e 0a 	jmp	0x14fc	; 0x14fc <main+0xbe>

000036bc <init_uart>:
// UART initialization
void init_uart()
{
	// USART Initialization
	// USCSRB Register
	cli();	//that is needed essentially (turn off interrupts shortly)
    36bc:	f8 94       	cli
	UCSRB = (0<<UCSZ2)|(1<<TXEN)|(1<<RXEN)|(1<<RXCIE);//|(1<<UDRIE);
    36be:	88 e9       	ldi	r24, 0x98	; 152
    36c0:	8a b9       	out	0x0a, r24	; 10
	UCSRC = (1<<URSEL)|(1<<UCSZ1)|(1<<UCSZ0);
    36c2:	86 e8       	ldi	r24, 0x86	; 134
    36c4:	80 bd       	out	0x20, r24	; 32
	// Need to be in line with the baudrate!
	// Baudrate: 12 MHZ prozessor
	uint16_t baudrate = 57600; // achtung: bei geringen baudraten msste evtl das URRH auch noch beschrieben werden...
	int8_t baud_calc = (F_CPU/(baudrate*16))-1;
	UBRRH = 0x00;
    36c6:	10 bc       	out	0x20, r1	; 32
	UBRRL = 0x0C;
    36c8:	8c e0       	ldi	r24, 0x0C	; 12
    36ca:	89 b9       	out	0x09, r24	; 9
	
	sei();	//that is needed essentially (turn on interrupts globally)
    36cc:	78 94       	sei
	// das UDR auslesen, falls daten drin sind und verwerfen
	do
    {
        UDR;
    36ce:	8c b1       	in	r24, 0x0c	; 12
    }
    while (UCSRA & (1 << RXC));	//solange das receive bit gesetzt ist
    36d0:	5f 99       	sbic	0x0b, 7	; 11
    36d2:	fd cf       	rjmp	.-6      	; 0x36ce <init_uart+0x12>
	
}
    36d4:	08 95       	ret

000036d6 <__vector_13>:


// UART receive interrupt routine
ISR (USART_RXC_vect)
{
    36d6:	1f 92       	push	r1
    36d8:	0f 92       	push	r0
    36da:	0f b6       	in	r0, 0x3f	; 63
    36dc:	0f 92       	push	r0
    36de:	11 24       	eor	r1, r1
    36e0:	2f 93       	push	r18
    36e2:	8f 93       	push	r24
    36e4:	9f 93       	push	r25
    36e6:	ef 93       	push	r30
    36e8:	ff 93       	push	r31
	// the UDR is read in number	
    uart_reading_ascii = UDR;
    36ea:	8c b1       	in	r24, 0x0c	; 12
    36ec:	80 93 15 04 	sts	0x0415, r24
    36f0:	10 92 16 04 	sts	0x0416, r1
	// the ascii number will be converted to char
	uart_reading = (char) uart_reading_ascii;
    36f4:	80 93 14 04 	sts	0x0414, r24
	UART_READY_FLAG	= FALSE;
    36f8:	10 92 b3 02 	sts	0x02B3, r1
	if(GPS_ACTIVE)
	{

		if (uart_reading == '$')	/* The GPS string always starts with a $ sign to indicate new data*/
    36fc:	80 91 14 04 	lds	r24, 0x0414
    3700:	84 32       	cpi	r24, 0x24	; 36
    3702:	a1 f4       	brne	.+40     	; 0x372c <__vector_13+0x56>
		{
			// always terminate a string with \0
			GPS_string[GPS_param][GPS_char] = '\0';
    3704:	e0 91 b2 02 	lds	r30, 0x02B2
    3708:	80 91 a6 05 	lds	r24, 0x05A6
    370c:	2b e0       	ldi	r18, 0x0B	; 11
    370e:	e2 02       	muls	r30, r18
    3710:	f0 01       	movw	r30, r0
    3712:	11 24       	eor	r1, r1
    3714:	e8 0f       	add	r30, r24
    3716:	f1 1d       	adc	r31, r1
    3718:	87 fd       	sbrc	r24, 7
    371a:	fa 95       	dec	r31
    371c:	e9 5e       	subi	r30, 0xE9	; 233
    371e:	fb 4f       	sbci	r31, 0xFB	; 251
    3720:	10 82       	st	Z, r1
			// reset position
			GPS_char = 0;
    3722:	10 92 a6 05 	sts	0x05A6, r1
			// reset row = parameter
			GPS_param = 0;
    3726:	10 92 b2 02 	sts	0x02B2, r1
    372a:	3d c0       	rjmp	.+122    	; 0x37a6 <__vector_13+0xd0>
		}
		else if ((uart_reading == ','))	/*the information in the GPS string is separated by commata */
    372c:	80 91 14 04 	lds	r24, 0x0414
    3730:	8c 32       	cpi	r24, 0x2C	; 44
    3732:	a9 f4       	brne	.+42     	; 0x375e <__vector_13+0x88>
		{
			// always terminate a string with \0
			GPS_string[GPS_param][GPS_char] = '\0';
    3734:	80 91 b2 02 	lds	r24, 0x02B2
    3738:	90 91 a6 05 	lds	r25, 0x05A6
    373c:	2b e0       	ldi	r18, 0x0B	; 11
    373e:	82 02       	muls	r24, r18
    3740:	f0 01       	movw	r30, r0
    3742:	11 24       	eor	r1, r1
    3744:	e9 0f       	add	r30, r25
    3746:	f1 1d       	adc	r31, r1
    3748:	97 fd       	sbrc	r25, 7
    374a:	fa 95       	dec	r31
    374c:	e9 5e       	subi	r30, 0xE9	; 233
    374e:	fb 4f       	sbci	r31, 0xFB	; 251
    3750:	10 82       	st	Z, r1
			// jump to start
			GPS_char = 0;
    3752:	10 92 a6 05 	sts	0x05A6, r1
			// increase row = parameter
			GPS_param++;
    3756:	8f 5f       	subi	r24, 0xFF	; 255
    3758:	80 93 b2 02 	sts	0x02B2, r24
    375c:	24 c0       	rjmp	.+72     	; 0x37a6 <__vector_13+0xd0>
		}
		else if ((uart_reading == '.'))	/*the decimal point will have problems to be converted*/
    375e:	80 91 14 04 	lds	r24, 0x0414
    3762:	8e 32       	cpi	r24, 0x2E	; 46
    3764:	01 f1       	breq	.+64     	; 0x37a6 <__vector_13+0xd0>
		{
			// skip the decimal point as it will give problems when converting to integer
		}
		else if ((uart_reading == '\n'))	/*GPS is sending CR LF anyways so we can use the line feed to detect transmitted data */
    3766:	80 91 14 04 	lds	r24, 0x0414
    376a:	8a 30       	cpi	r24, 0x0A	; 10
    376c:	21 f4       	brne	.+8      	; 0x3776 <__vector_13+0xa0>
		{

			UART_READY_FLAG	= TRUE;
    376e:	81 e0       	ldi	r24, 0x01	; 1
    3770:	80 93 b3 02 	sts	0x02B3, r24
    3774:	18 c0       	rjmp	.+48     	; 0x37a6 <__vector_13+0xd0>
		}
		else
		{
			if(uart_reading != '\n') // carriage return captured above, line feed not to write!
    3776:	80 91 14 04 	lds	r24, 0x0414
    377a:	8a 30       	cpi	r24, 0x0A	; 10
    377c:	a1 f0       	breq	.+40     	; 0x37a6 <__vector_13+0xd0>
			{
				// write the reading into the string array on the position of the counter
				GPS_string[GPS_param][GPS_char] = uart_reading;
    377e:	e0 91 b2 02 	lds	r30, 0x02B2
    3782:	80 91 a6 05 	lds	r24, 0x05A6
    3786:	90 91 14 04 	lds	r25, 0x0414
    378a:	2b e0       	ldi	r18, 0x0B	; 11
    378c:	e2 02       	muls	r30, r18
    378e:	f0 01       	movw	r30, r0
    3790:	11 24       	eor	r1, r1
    3792:	e8 0f       	add	r30, r24
    3794:	f1 1d       	adc	r31, r1
    3796:	87 fd       	sbrc	r24, 7
    3798:	fa 95       	dec	r31
    379a:	e9 5e       	subi	r30, 0xE9	; 233
    379c:	fb 4f       	sbci	r31, 0xFB	; 251
    379e:	90 83       	st	Z, r25
				// increase the counter (position of the string)
				GPS_char++;
    37a0:	8f 5f       	subi	r24, 0xFF	; 255
    37a2:	80 93 a6 05 	sts	0x05A6, r24
			UART_READY_FLAG = TRUE;
			// check the reading
			//write_string(uart_word);
		}
	}	
}
    37a6:	ff 91       	pop	r31
    37a8:	ef 91       	pop	r30
    37aa:	9f 91       	pop	r25
    37ac:	8f 91       	pop	r24
    37ae:	2f 91       	pop	r18
    37b0:	0f 90       	pop	r0
    37b2:	0f be       	out	0x3f, r0	; 63
    37b4:	0f 90       	pop	r0
    37b6:	1f 90       	pop	r1
    37b8:	18 95       	reti

000037ba <write_char>:

// UART write char
extern void write_char(char *c)
{	
    while (!(UCSRA & (1<<UDRE)))  /* wait to send */
    37ba:	5d 9b       	sbis	0x0b, 5	; 11
    37bc:	fe cf       	rjmp	.-4      	; 0x37ba <write_char>
    {
    }
    
    UDR = c;                      /* Send char */
    37be:	8c b9       	out	0x0c, r24	; 12
    37c0:	08 95       	ret

000037c2 <write_string>:
}

// UART write string
extern void	write_string(char *s)
{
    37c2:	cf 93       	push	r28
    37c4:	df 93       	push	r29
    37c6:	ec 01       	movw	r28, r24
	while(*s)
    37c8:	88 81       	ld	r24, Y
    37ca:	88 23       	and	r24, r24
    37cc:	39 f0       	breq	.+14     	; 0x37dc <write_string+0x1a>
    
    UDR = c;                      /* Send char */
}

// UART write string
extern void	write_string(char *s)
    37ce:	21 96       	adiw	r28, 0x01	; 1
{
	while(*s)
	{
		write_char(*s);
    37d0:	90 e0       	ldi	r25, 0x00	; 0
    37d2:	0e 94 dd 1b 	call	0x37ba	; 0x37ba <write_char>
}

// UART write string
extern void	write_string(char *s)
{
	while(*s)
    37d6:	89 91       	ld	r24, Y+
    37d8:	81 11       	cpse	r24, r1
    37da:	fa cf       	rjmp	.-12     	; 0x37d0 <write_string+0xe>
	{
		write_char(*s);
		s++;
	}
	
}
    37dc:	df 91       	pop	r29
    37de:	cf 91       	pop	r28
    37e0:	08 95       	ret

000037e2 <write_string_ln>:

// UART write string with carriage return and line feed
extern void write_string_ln(char *s)
{
    37e2:	cf 93       	push	r28
    37e4:	df 93       	push	r29
    37e6:	ec 01       	movw	r28, r24
	while(*s)
    37e8:	88 81       	ld	r24, Y
    37ea:	88 23       	and	r24, r24
    37ec:	39 f0       	breq	.+14     	; 0x37fc <write_string_ln+0x1a>
	}
	
}

// UART write string with carriage return and line feed
extern void write_string_ln(char *s)
    37ee:	21 96       	adiw	r28, 0x01	; 1
{
	while(*s)
	{
		write_char(*s);
    37f0:	90 e0       	ldi	r25, 0x00	; 0
    37f2:	0e 94 dd 1b 	call	0x37ba	; 0x37ba <write_char>
}

// UART write string with carriage return and line feed
extern void write_string_ln(char *s)
{
	while(*s)
    37f6:	89 91       	ld	r24, Y+
    37f8:	81 11       	cpse	r24, r1
    37fa:	fa cf       	rjmp	.-12     	; 0x37f0 <write_string_ln+0xe>
	{
		write_char(*s);
		s++;
	}
	write_string("\r\n");
    37fc:	8e ec       	ldi	r24, 0xCE	; 206
    37fe:	91 e0       	ldi	r25, 0x01	; 1
    3800:	0e 94 e1 1b 	call	0x37c2	; 0x37c2 <write_string>
}
    3804:	df 91       	pop	r29
    3806:	cf 91       	pop	r28
    3808:	08 95       	ret

0000380a <write_var>:

// UART write signed Integer 16bit	//-> 16 bits will leave us with numbers up to 65536 !! and what happens with higher numbers?
extern void write_var(int32_t num)
{
    380a:	cf 93       	push	r28
    380c:	df 93       	push	r29
    380e:	cd b7       	in	r28, 0x3d	; 61
    3810:	de b7       	in	r29, 0x3e	; 62
    3812:	6f 97       	sbiw	r28, 0x1f	; 31
    3814:	0f b6       	in	r0, 0x3f	; 63
    3816:	f8 94       	cli
    3818:	de bf       	out	0x3e, r29	; 62
    381a:	0f be       	out	0x3f, r0	; 63
    381c:	cd bf       	out	0x3d, r28	; 61
		char k[31];			// define four bytes
		ltoa(num, k, 10);	// convert long to asci -> decimal system
    381e:	2a e0       	ldi	r18, 0x0A	; 10
    3820:	30 e0       	ldi	r19, 0x00	; 0
    3822:	ae 01       	movw	r20, r28
    3824:	4f 5f       	subi	r20, 0xFF	; 255
    3826:	5f 4f       	sbci	r21, 0xFF	; 255
    3828:	0e 94 44 1f 	call	0x3e88	; 0x3e88 <ltoa>
		write_string(k);	// send the byte
    382c:	ce 01       	movw	r24, r28
    382e:	01 96       	adiw	r24, 0x01	; 1
    3830:	0e 94 e1 1b 	call	0x37c2	; 0x37c2 <write_string>
}
    3834:	6f 96       	adiw	r28, 0x1f	; 31
    3836:	0f b6       	in	r0, 0x3f	; 63
    3838:	f8 94       	cli
    383a:	de bf       	out	0x3e, r29	; 62
    383c:	0f be       	out	0x3f, r0	; 63
    383e:	cd bf       	out	0x3d, r28	; 61
    3840:	df 91       	pop	r29
    3842:	cf 91       	pop	r28
    3844:	08 95       	ret

00003846 <write_var_ln>:

extern void write_var_ln(int32_t num)
{
    3846:	cf 93       	push	r28
    3848:	df 93       	push	r29
    384a:	cd b7       	in	r28, 0x3d	; 61
    384c:	de b7       	in	r29, 0x3e	; 62
    384e:	6f 97       	sbiw	r28, 0x1f	; 31
    3850:	0f b6       	in	r0, 0x3f	; 63
    3852:	f8 94       	cli
    3854:	de bf       	out	0x3e, r29	; 62
    3856:	0f be       	out	0x3f, r0	; 63
    3858:	cd bf       	out	0x3d, r28	; 61
		char k[31];			// define four bytes
		ltoa(num, k, 10);	// convert long to asci -> decimal system
    385a:	2a e0       	ldi	r18, 0x0A	; 10
    385c:	30 e0       	ldi	r19, 0x00	; 0
    385e:	ae 01       	movw	r20, r28
    3860:	4f 5f       	subi	r20, 0xFF	; 255
    3862:	5f 4f       	sbci	r21, 0xFF	; 255
    3864:	0e 94 44 1f 	call	0x3e88	; 0x3e88 <ltoa>
		write_string(k);	// send the byte
    3868:	ce 01       	movw	r24, r28
    386a:	01 96       	adiw	r24, 0x01	; 1
    386c:	0e 94 e1 1b 	call	0x37c2	; 0x37c2 <write_string>
		write_string("\r\n");
    3870:	8e ec       	ldi	r24, 0xCE	; 206
    3872:	91 e0       	ldi	r25, 0x01	; 1
    3874:	0e 94 e1 1b 	call	0x37c2	; 0x37c2 <write_string>
}
    3878:	6f 96       	adiw	r28, 0x1f	; 31
    387a:	0f b6       	in	r0, 0x3f	; 63
    387c:	f8 94       	cli
    387e:	de bf       	out	0x3e, r29	; 62
    3880:	0f be       	out	0x3f, r0	; 63
    3882:	cd bf       	out	0x3d, r28	; 61
    3884:	df 91       	pop	r29
    3886:	cf 91       	pop	r28
    3888:	08 95       	ret

0000388a <__subsf3>:
    388a:	50 58       	subi	r21, 0x80	; 128

0000388c <__addsf3>:
    388c:	bb 27       	eor	r27, r27
    388e:	aa 27       	eor	r26, r26
    3890:	0e d0       	rcall	.+28     	; 0x38ae <__addsf3x>
    3892:	fc c1       	rjmp	.+1016   	; 0x3c8c <__fp_round>
    3894:	ed d1       	rcall	.+986    	; 0x3c70 <__fp_pscA>
    3896:	30 f0       	brcs	.+12     	; 0x38a4 <__addsf3+0x18>
    3898:	f2 d1       	rcall	.+996    	; 0x3c7e <__fp_pscB>
    389a:	20 f0       	brcs	.+8      	; 0x38a4 <__addsf3+0x18>
    389c:	31 f4       	brne	.+12     	; 0x38aa <__addsf3+0x1e>
    389e:	9f 3f       	cpi	r25, 0xFF	; 255
    38a0:	11 f4       	brne	.+4      	; 0x38a6 <__addsf3+0x1a>
    38a2:	1e f4       	brtc	.+6      	; 0x38aa <__addsf3+0x1e>
    38a4:	bd c1       	rjmp	.+890    	; 0x3c20 <__fp_nan>
    38a6:	0e f4       	brtc	.+2      	; 0x38aa <__addsf3+0x1e>
    38a8:	e0 95       	com	r30
    38aa:	e7 fb       	bst	r30, 7
    38ac:	b3 c1       	rjmp	.+870    	; 0x3c14 <__fp_inf>

000038ae <__addsf3x>:
    38ae:	e9 2f       	mov	r30, r25
    38b0:	fe d1       	rcall	.+1020   	; 0x3cae <__fp_split3>
    38b2:	80 f3       	brcs	.-32     	; 0x3894 <__addsf3+0x8>
    38b4:	ba 17       	cp	r27, r26
    38b6:	62 07       	cpc	r22, r18
    38b8:	73 07       	cpc	r23, r19
    38ba:	84 07       	cpc	r24, r20
    38bc:	95 07       	cpc	r25, r21
    38be:	18 f0       	brcs	.+6      	; 0x38c6 <__addsf3x+0x18>
    38c0:	71 f4       	brne	.+28     	; 0x38de <__addsf3x+0x30>
    38c2:	9e f5       	brtc	.+102    	; 0x392a <__addsf3x+0x7c>
    38c4:	16 c2       	rjmp	.+1068   	; 0x3cf2 <__fp_zero>
    38c6:	0e f4       	brtc	.+2      	; 0x38ca <__addsf3x+0x1c>
    38c8:	e0 95       	com	r30
    38ca:	0b 2e       	mov	r0, r27
    38cc:	ba 2f       	mov	r27, r26
    38ce:	a0 2d       	mov	r26, r0
    38d0:	0b 01       	movw	r0, r22
    38d2:	b9 01       	movw	r22, r18
    38d4:	90 01       	movw	r18, r0
    38d6:	0c 01       	movw	r0, r24
    38d8:	ca 01       	movw	r24, r20
    38da:	a0 01       	movw	r20, r0
    38dc:	11 24       	eor	r1, r1
    38de:	ff 27       	eor	r31, r31
    38e0:	59 1b       	sub	r21, r25
    38e2:	99 f0       	breq	.+38     	; 0x390a <__addsf3x+0x5c>
    38e4:	59 3f       	cpi	r21, 0xF9	; 249
    38e6:	50 f4       	brcc	.+20     	; 0x38fc <__addsf3x+0x4e>
    38e8:	50 3e       	cpi	r21, 0xE0	; 224
    38ea:	68 f1       	brcs	.+90     	; 0x3946 <__addsf3x+0x98>
    38ec:	1a 16       	cp	r1, r26
    38ee:	f0 40       	sbci	r31, 0x00	; 0
    38f0:	a2 2f       	mov	r26, r18
    38f2:	23 2f       	mov	r18, r19
    38f4:	34 2f       	mov	r19, r20
    38f6:	44 27       	eor	r20, r20
    38f8:	58 5f       	subi	r21, 0xF8	; 248
    38fa:	f3 cf       	rjmp	.-26     	; 0x38e2 <__addsf3x+0x34>
    38fc:	46 95       	lsr	r20
    38fe:	37 95       	ror	r19
    3900:	27 95       	ror	r18
    3902:	a7 95       	ror	r26
    3904:	f0 40       	sbci	r31, 0x00	; 0
    3906:	53 95       	inc	r21
    3908:	c9 f7       	brne	.-14     	; 0x38fc <__addsf3x+0x4e>
    390a:	7e f4       	brtc	.+30     	; 0x392a <__addsf3x+0x7c>
    390c:	1f 16       	cp	r1, r31
    390e:	ba 0b       	sbc	r27, r26
    3910:	62 0b       	sbc	r22, r18
    3912:	73 0b       	sbc	r23, r19
    3914:	84 0b       	sbc	r24, r20
    3916:	ba f0       	brmi	.+46     	; 0x3946 <__addsf3x+0x98>
    3918:	91 50       	subi	r25, 0x01	; 1
    391a:	a1 f0       	breq	.+40     	; 0x3944 <__addsf3x+0x96>
    391c:	ff 0f       	add	r31, r31
    391e:	bb 1f       	adc	r27, r27
    3920:	66 1f       	adc	r22, r22
    3922:	77 1f       	adc	r23, r23
    3924:	88 1f       	adc	r24, r24
    3926:	c2 f7       	brpl	.-16     	; 0x3918 <__addsf3x+0x6a>
    3928:	0e c0       	rjmp	.+28     	; 0x3946 <__addsf3x+0x98>
    392a:	ba 0f       	add	r27, r26
    392c:	62 1f       	adc	r22, r18
    392e:	73 1f       	adc	r23, r19
    3930:	84 1f       	adc	r24, r20
    3932:	48 f4       	brcc	.+18     	; 0x3946 <__addsf3x+0x98>
    3934:	87 95       	ror	r24
    3936:	77 95       	ror	r23
    3938:	67 95       	ror	r22
    393a:	b7 95       	ror	r27
    393c:	f7 95       	ror	r31
    393e:	9e 3f       	cpi	r25, 0xFE	; 254
    3940:	08 f0       	brcs	.+2      	; 0x3944 <__addsf3x+0x96>
    3942:	b3 cf       	rjmp	.-154    	; 0x38aa <__addsf3+0x1e>
    3944:	93 95       	inc	r25
    3946:	88 0f       	add	r24, r24
    3948:	08 f0       	brcs	.+2      	; 0x394c <__addsf3x+0x9e>
    394a:	99 27       	eor	r25, r25
    394c:	ee 0f       	add	r30, r30
    394e:	97 95       	ror	r25
    3950:	87 95       	ror	r24
    3952:	08 95       	ret
    3954:	8d d1       	rcall	.+794    	; 0x3c70 <__fp_pscA>
    3956:	58 f0       	brcs	.+22     	; 0x396e <__addsf3x+0xc0>
    3958:	80 e8       	ldi	r24, 0x80	; 128
    395a:	91 e0       	ldi	r25, 0x01	; 1
    395c:	09 f4       	brne	.+2      	; 0x3960 <__addsf3x+0xb2>
    395e:	9e ef       	ldi	r25, 0xFE	; 254
    3960:	8e d1       	rcall	.+796    	; 0x3c7e <__fp_pscB>
    3962:	28 f0       	brcs	.+10     	; 0x396e <__addsf3x+0xc0>
    3964:	40 e8       	ldi	r20, 0x80	; 128
    3966:	51 e0       	ldi	r21, 0x01	; 1
    3968:	59 f4       	brne	.+22     	; 0x3980 <atan2+0xe>
    396a:	5e ef       	ldi	r21, 0xFE	; 254
    396c:	09 c0       	rjmp	.+18     	; 0x3980 <atan2+0xe>
    396e:	58 c1       	rjmp	.+688    	; 0x3c20 <__fp_nan>
    3970:	c0 c1       	rjmp	.+896    	; 0x3cf2 <__fp_zero>

00003972 <atan2>:
    3972:	e9 2f       	mov	r30, r25
    3974:	e0 78       	andi	r30, 0x80	; 128
    3976:	9b d1       	rcall	.+822    	; 0x3cae <__fp_split3>
    3978:	68 f3       	brcs	.-38     	; 0x3954 <__addsf3x+0xa6>
    397a:	09 2e       	mov	r0, r25
    397c:	05 2a       	or	r0, r21
    397e:	c1 f3       	breq	.-16     	; 0x3970 <__addsf3x+0xc2>
    3980:	26 17       	cp	r18, r22
    3982:	37 07       	cpc	r19, r23
    3984:	48 07       	cpc	r20, r24
    3986:	59 07       	cpc	r21, r25
    3988:	38 f0       	brcs	.+14     	; 0x3998 <atan2+0x26>
    398a:	0e 2e       	mov	r0, r30
    398c:	07 f8       	bld	r0, 7
    398e:	e0 25       	eor	r30, r0
    3990:	69 f0       	breq	.+26     	; 0x39ac <atan2+0x3a>
    3992:	e0 25       	eor	r30, r0
    3994:	e0 64       	ori	r30, 0x40	; 64
    3996:	0a c0       	rjmp	.+20     	; 0x39ac <atan2+0x3a>
    3998:	ef 63       	ori	r30, 0x3F	; 63
    399a:	07 f8       	bld	r0, 7
    399c:	00 94       	com	r0
    399e:	07 fa       	bst	r0, 7
    39a0:	db 01       	movw	r26, r22
    39a2:	b9 01       	movw	r22, r18
    39a4:	9d 01       	movw	r18, r26
    39a6:	dc 01       	movw	r26, r24
    39a8:	ca 01       	movw	r24, r20
    39aa:	ad 01       	movw	r20, r26
    39ac:	ef 93       	push	r30
    39ae:	47 d0       	rcall	.+142    	; 0x3a3e <__divsf3_pse>
    39b0:	6d d1       	rcall	.+730    	; 0x3c8c <__fp_round>
    39b2:	0a d0       	rcall	.+20     	; 0x39c8 <atan>
    39b4:	5f 91       	pop	r21
    39b6:	55 23       	and	r21, r21
    39b8:	31 f0       	breq	.+12     	; 0x39c6 <atan2+0x54>
    39ba:	2b ed       	ldi	r18, 0xDB	; 219
    39bc:	3f e0       	ldi	r19, 0x0F	; 15
    39be:	49 e4       	ldi	r20, 0x49	; 73
    39c0:	50 fd       	sbrc	r21, 0
    39c2:	49 ec       	ldi	r20, 0xC9	; 201
    39c4:	63 cf       	rjmp	.-314    	; 0x388c <__addsf3>
    39c6:	08 95       	ret

000039c8 <atan>:
    39c8:	df 93       	push	r29
    39ca:	dd 27       	eor	r29, r29
    39cc:	b9 2f       	mov	r27, r25
    39ce:	bf 77       	andi	r27, 0x7F	; 127
    39d0:	40 e8       	ldi	r20, 0x80	; 128
    39d2:	5f e3       	ldi	r21, 0x3F	; 63
    39d4:	16 16       	cp	r1, r22
    39d6:	17 06       	cpc	r1, r23
    39d8:	48 07       	cpc	r20, r24
    39da:	5b 07       	cpc	r21, r27
    39dc:	10 f4       	brcc	.+4      	; 0x39e2 <atan+0x1a>
    39de:	d9 2f       	mov	r29, r25
    39e0:	93 d1       	rcall	.+806    	; 0x3d08 <inverse>
    39e2:	9f 93       	push	r25
    39e4:	8f 93       	push	r24
    39e6:	7f 93       	push	r23
    39e8:	6f 93       	push	r22
    39ea:	f8 d1       	rcall	.+1008   	; 0x3ddc <square>
    39ec:	e4 e5       	ldi	r30, 0x54	; 84
    39ee:	f0 e0       	ldi	r31, 0x00	; 0
    39f0:	1a d1       	rcall	.+564    	; 0x3c26 <__fp_powser>
    39f2:	4c d1       	rcall	.+664    	; 0x3c8c <__fp_round>
    39f4:	2f 91       	pop	r18
    39f6:	3f 91       	pop	r19
    39f8:	4f 91       	pop	r20
    39fa:	5f 91       	pop	r21
    39fc:	98 d1       	rcall	.+816    	; 0x3d2e <__mulsf3x>
    39fe:	dd 23       	and	r29, r29
    3a00:	49 f0       	breq	.+18     	; 0x3a14 <atan+0x4c>
    3a02:	90 58       	subi	r25, 0x80	; 128
    3a04:	a2 ea       	ldi	r26, 0xA2	; 162
    3a06:	2a ed       	ldi	r18, 0xDA	; 218
    3a08:	3f e0       	ldi	r19, 0x0F	; 15
    3a0a:	49 ec       	ldi	r20, 0xC9	; 201
    3a0c:	5f e3       	ldi	r21, 0x3F	; 63
    3a0e:	d0 78       	andi	r29, 0x80	; 128
    3a10:	5d 27       	eor	r21, r29
    3a12:	4d df       	rcall	.-358    	; 0x38ae <__addsf3x>
    3a14:	df 91       	pop	r29
    3a16:	3a c1       	rjmp	.+628    	; 0x3c8c <__fp_round>

00003a18 <__cmpsf2>:
    3a18:	d9 d0       	rcall	.+434    	; 0x3bcc <__fp_cmp>
    3a1a:	08 f4       	brcc	.+2      	; 0x3a1e <__cmpsf2+0x6>
    3a1c:	81 e0       	ldi	r24, 0x01	; 1
    3a1e:	08 95       	ret

00003a20 <__divsf3>:
    3a20:	0c d0       	rcall	.+24     	; 0x3a3a <__divsf3x>
    3a22:	34 c1       	rjmp	.+616    	; 0x3c8c <__fp_round>
    3a24:	2c d1       	rcall	.+600    	; 0x3c7e <__fp_pscB>
    3a26:	40 f0       	brcs	.+16     	; 0x3a38 <__divsf3+0x18>
    3a28:	23 d1       	rcall	.+582    	; 0x3c70 <__fp_pscA>
    3a2a:	30 f0       	brcs	.+12     	; 0x3a38 <__divsf3+0x18>
    3a2c:	21 f4       	brne	.+8      	; 0x3a36 <__divsf3+0x16>
    3a2e:	5f 3f       	cpi	r21, 0xFF	; 255
    3a30:	19 f0       	breq	.+6      	; 0x3a38 <__divsf3+0x18>
    3a32:	f0 c0       	rjmp	.+480    	; 0x3c14 <__fp_inf>
    3a34:	51 11       	cpse	r21, r1
    3a36:	5e c1       	rjmp	.+700    	; 0x3cf4 <__fp_szero>
    3a38:	f3 c0       	rjmp	.+486    	; 0x3c20 <__fp_nan>

00003a3a <__divsf3x>:
    3a3a:	39 d1       	rcall	.+626    	; 0x3cae <__fp_split3>
    3a3c:	98 f3       	brcs	.-26     	; 0x3a24 <__divsf3+0x4>

00003a3e <__divsf3_pse>:
    3a3e:	99 23       	and	r25, r25
    3a40:	c9 f3       	breq	.-14     	; 0x3a34 <__divsf3+0x14>
    3a42:	55 23       	and	r21, r21
    3a44:	b1 f3       	breq	.-20     	; 0x3a32 <__divsf3+0x12>
    3a46:	95 1b       	sub	r25, r21
    3a48:	55 0b       	sbc	r21, r21
    3a4a:	bb 27       	eor	r27, r27
    3a4c:	aa 27       	eor	r26, r26
    3a4e:	62 17       	cp	r22, r18
    3a50:	73 07       	cpc	r23, r19
    3a52:	84 07       	cpc	r24, r20
    3a54:	38 f0       	brcs	.+14     	; 0x3a64 <__divsf3_pse+0x26>
    3a56:	9f 5f       	subi	r25, 0xFF	; 255
    3a58:	5f 4f       	sbci	r21, 0xFF	; 255
    3a5a:	22 0f       	add	r18, r18
    3a5c:	33 1f       	adc	r19, r19
    3a5e:	44 1f       	adc	r20, r20
    3a60:	aa 1f       	adc	r26, r26
    3a62:	a9 f3       	breq	.-22     	; 0x3a4e <__divsf3_pse+0x10>
    3a64:	33 d0       	rcall	.+102    	; 0x3acc <__divsf3_pse+0x8e>
    3a66:	0e 2e       	mov	r0, r30
    3a68:	3a f0       	brmi	.+14     	; 0x3a78 <__divsf3_pse+0x3a>
    3a6a:	e0 e8       	ldi	r30, 0x80	; 128
    3a6c:	30 d0       	rcall	.+96     	; 0x3ace <__divsf3_pse+0x90>
    3a6e:	91 50       	subi	r25, 0x01	; 1
    3a70:	50 40       	sbci	r21, 0x00	; 0
    3a72:	e6 95       	lsr	r30
    3a74:	00 1c       	adc	r0, r0
    3a76:	ca f7       	brpl	.-14     	; 0x3a6a <__divsf3_pse+0x2c>
    3a78:	29 d0       	rcall	.+82     	; 0x3acc <__divsf3_pse+0x8e>
    3a7a:	fe 2f       	mov	r31, r30
    3a7c:	27 d0       	rcall	.+78     	; 0x3acc <__divsf3_pse+0x8e>
    3a7e:	66 0f       	add	r22, r22
    3a80:	77 1f       	adc	r23, r23
    3a82:	88 1f       	adc	r24, r24
    3a84:	bb 1f       	adc	r27, r27
    3a86:	26 17       	cp	r18, r22
    3a88:	37 07       	cpc	r19, r23
    3a8a:	48 07       	cpc	r20, r24
    3a8c:	ab 07       	cpc	r26, r27
    3a8e:	b0 e8       	ldi	r27, 0x80	; 128
    3a90:	09 f0       	breq	.+2      	; 0x3a94 <__divsf3_pse+0x56>
    3a92:	bb 0b       	sbc	r27, r27
    3a94:	80 2d       	mov	r24, r0
    3a96:	bf 01       	movw	r22, r30
    3a98:	ff 27       	eor	r31, r31
    3a9a:	93 58       	subi	r25, 0x83	; 131
    3a9c:	5f 4f       	sbci	r21, 0xFF	; 255
    3a9e:	2a f0       	brmi	.+10     	; 0x3aaa <__divsf3_pse+0x6c>
    3aa0:	9e 3f       	cpi	r25, 0xFE	; 254
    3aa2:	51 05       	cpc	r21, r1
    3aa4:	68 f0       	brcs	.+26     	; 0x3ac0 <__divsf3_pse+0x82>
    3aa6:	b6 c0       	rjmp	.+364    	; 0x3c14 <__fp_inf>
    3aa8:	25 c1       	rjmp	.+586    	; 0x3cf4 <__fp_szero>
    3aaa:	5f 3f       	cpi	r21, 0xFF	; 255
    3aac:	ec f3       	brlt	.-6      	; 0x3aa8 <__divsf3_pse+0x6a>
    3aae:	98 3e       	cpi	r25, 0xE8	; 232
    3ab0:	dc f3       	brlt	.-10     	; 0x3aa8 <__divsf3_pse+0x6a>
    3ab2:	86 95       	lsr	r24
    3ab4:	77 95       	ror	r23
    3ab6:	67 95       	ror	r22
    3ab8:	b7 95       	ror	r27
    3aba:	f7 95       	ror	r31
    3abc:	9f 5f       	subi	r25, 0xFF	; 255
    3abe:	c9 f7       	brne	.-14     	; 0x3ab2 <__divsf3_pse+0x74>
    3ac0:	88 0f       	add	r24, r24
    3ac2:	91 1d       	adc	r25, r1
    3ac4:	96 95       	lsr	r25
    3ac6:	87 95       	ror	r24
    3ac8:	97 f9       	bld	r25, 7
    3aca:	08 95       	ret
    3acc:	e1 e0       	ldi	r30, 0x01	; 1
    3ace:	66 0f       	add	r22, r22
    3ad0:	77 1f       	adc	r23, r23
    3ad2:	88 1f       	adc	r24, r24
    3ad4:	bb 1f       	adc	r27, r27
    3ad6:	62 17       	cp	r22, r18
    3ad8:	73 07       	cpc	r23, r19
    3ada:	84 07       	cpc	r24, r20
    3adc:	ba 07       	cpc	r27, r26
    3ade:	20 f0       	brcs	.+8      	; 0x3ae8 <__divsf3_pse+0xaa>
    3ae0:	62 1b       	sub	r22, r18
    3ae2:	73 0b       	sbc	r23, r19
    3ae4:	84 0b       	sbc	r24, r20
    3ae6:	ba 0b       	sbc	r27, r26
    3ae8:	ee 1f       	adc	r30, r30
    3aea:	88 f7       	brcc	.-30     	; 0x3ace <__divsf3_pse+0x90>
    3aec:	e0 95       	com	r30
    3aee:	08 95       	ret

00003af0 <__fixsfsi>:
    3af0:	04 d0       	rcall	.+8      	; 0x3afa <__fixunssfsi>
    3af2:	68 94       	set
    3af4:	b1 11       	cpse	r27, r1
    3af6:	fe c0       	rjmp	.+508    	; 0x3cf4 <__fp_szero>
    3af8:	08 95       	ret

00003afa <__fixunssfsi>:
    3afa:	e1 d0       	rcall	.+450    	; 0x3cbe <__fp_splitA>
    3afc:	88 f0       	brcs	.+34     	; 0x3b20 <__fixunssfsi+0x26>
    3afe:	9f 57       	subi	r25, 0x7F	; 127
    3b00:	90 f0       	brcs	.+36     	; 0x3b26 <__fixunssfsi+0x2c>
    3b02:	b9 2f       	mov	r27, r25
    3b04:	99 27       	eor	r25, r25
    3b06:	b7 51       	subi	r27, 0x17	; 23
    3b08:	a0 f0       	brcs	.+40     	; 0x3b32 <__fixunssfsi+0x38>
    3b0a:	d1 f0       	breq	.+52     	; 0x3b40 <__fixunssfsi+0x46>
    3b0c:	66 0f       	add	r22, r22
    3b0e:	77 1f       	adc	r23, r23
    3b10:	88 1f       	adc	r24, r24
    3b12:	99 1f       	adc	r25, r25
    3b14:	1a f0       	brmi	.+6      	; 0x3b1c <__fixunssfsi+0x22>
    3b16:	ba 95       	dec	r27
    3b18:	c9 f7       	brne	.-14     	; 0x3b0c <__fixunssfsi+0x12>
    3b1a:	12 c0       	rjmp	.+36     	; 0x3b40 <__fixunssfsi+0x46>
    3b1c:	b1 30       	cpi	r27, 0x01	; 1
    3b1e:	81 f0       	breq	.+32     	; 0x3b40 <__fixunssfsi+0x46>
    3b20:	e8 d0       	rcall	.+464    	; 0x3cf2 <__fp_zero>
    3b22:	b1 e0       	ldi	r27, 0x01	; 1
    3b24:	08 95       	ret
    3b26:	e5 c0       	rjmp	.+458    	; 0x3cf2 <__fp_zero>
    3b28:	67 2f       	mov	r22, r23
    3b2a:	78 2f       	mov	r23, r24
    3b2c:	88 27       	eor	r24, r24
    3b2e:	b8 5f       	subi	r27, 0xF8	; 248
    3b30:	39 f0       	breq	.+14     	; 0x3b40 <__fixunssfsi+0x46>
    3b32:	b9 3f       	cpi	r27, 0xF9	; 249
    3b34:	cc f3       	brlt	.-14     	; 0x3b28 <__fixunssfsi+0x2e>
    3b36:	86 95       	lsr	r24
    3b38:	77 95       	ror	r23
    3b3a:	67 95       	ror	r22
    3b3c:	b3 95       	inc	r27
    3b3e:	d9 f7       	brne	.-10     	; 0x3b36 <__fixunssfsi+0x3c>
    3b40:	3e f4       	brtc	.+14     	; 0x3b50 <__fixunssfsi+0x56>
    3b42:	90 95       	com	r25
    3b44:	80 95       	com	r24
    3b46:	70 95       	com	r23
    3b48:	61 95       	neg	r22
    3b4a:	7f 4f       	sbci	r23, 0xFF	; 255
    3b4c:	8f 4f       	sbci	r24, 0xFF	; 255
    3b4e:	9f 4f       	sbci	r25, 0xFF	; 255
    3b50:	08 95       	ret

00003b52 <__floatunsisf>:
    3b52:	e8 94       	clt
    3b54:	09 c0       	rjmp	.+18     	; 0x3b68 <__floatsisf+0x12>

00003b56 <__floatsisf>:
    3b56:	97 fb       	bst	r25, 7
    3b58:	3e f4       	brtc	.+14     	; 0x3b68 <__floatsisf+0x12>
    3b5a:	90 95       	com	r25
    3b5c:	80 95       	com	r24
    3b5e:	70 95       	com	r23
    3b60:	61 95       	neg	r22
    3b62:	7f 4f       	sbci	r23, 0xFF	; 255
    3b64:	8f 4f       	sbci	r24, 0xFF	; 255
    3b66:	9f 4f       	sbci	r25, 0xFF	; 255
    3b68:	99 23       	and	r25, r25
    3b6a:	a9 f0       	breq	.+42     	; 0x3b96 <__floatsisf+0x40>
    3b6c:	f9 2f       	mov	r31, r25
    3b6e:	96 e9       	ldi	r25, 0x96	; 150
    3b70:	bb 27       	eor	r27, r27
    3b72:	93 95       	inc	r25
    3b74:	f6 95       	lsr	r31
    3b76:	87 95       	ror	r24
    3b78:	77 95       	ror	r23
    3b7a:	67 95       	ror	r22
    3b7c:	b7 95       	ror	r27
    3b7e:	f1 11       	cpse	r31, r1
    3b80:	f8 cf       	rjmp	.-16     	; 0x3b72 <__floatsisf+0x1c>
    3b82:	fa f4       	brpl	.+62     	; 0x3bc2 <__floatsisf+0x6c>
    3b84:	bb 0f       	add	r27, r27
    3b86:	11 f4       	brne	.+4      	; 0x3b8c <__floatsisf+0x36>
    3b88:	60 ff       	sbrs	r22, 0
    3b8a:	1b c0       	rjmp	.+54     	; 0x3bc2 <__floatsisf+0x6c>
    3b8c:	6f 5f       	subi	r22, 0xFF	; 255
    3b8e:	7f 4f       	sbci	r23, 0xFF	; 255
    3b90:	8f 4f       	sbci	r24, 0xFF	; 255
    3b92:	9f 4f       	sbci	r25, 0xFF	; 255
    3b94:	16 c0       	rjmp	.+44     	; 0x3bc2 <__floatsisf+0x6c>
    3b96:	88 23       	and	r24, r24
    3b98:	11 f0       	breq	.+4      	; 0x3b9e <__floatsisf+0x48>
    3b9a:	96 e9       	ldi	r25, 0x96	; 150
    3b9c:	11 c0       	rjmp	.+34     	; 0x3bc0 <__floatsisf+0x6a>
    3b9e:	77 23       	and	r23, r23
    3ba0:	21 f0       	breq	.+8      	; 0x3baa <__floatsisf+0x54>
    3ba2:	9e e8       	ldi	r25, 0x8E	; 142
    3ba4:	87 2f       	mov	r24, r23
    3ba6:	76 2f       	mov	r23, r22
    3ba8:	05 c0       	rjmp	.+10     	; 0x3bb4 <__floatsisf+0x5e>
    3baa:	66 23       	and	r22, r22
    3bac:	71 f0       	breq	.+28     	; 0x3bca <__floatsisf+0x74>
    3bae:	96 e8       	ldi	r25, 0x86	; 134
    3bb0:	86 2f       	mov	r24, r22
    3bb2:	70 e0       	ldi	r23, 0x00	; 0
    3bb4:	60 e0       	ldi	r22, 0x00	; 0
    3bb6:	2a f0       	brmi	.+10     	; 0x3bc2 <__floatsisf+0x6c>
    3bb8:	9a 95       	dec	r25
    3bba:	66 0f       	add	r22, r22
    3bbc:	77 1f       	adc	r23, r23
    3bbe:	88 1f       	adc	r24, r24
    3bc0:	da f7       	brpl	.-10     	; 0x3bb8 <__floatsisf+0x62>
    3bc2:	88 0f       	add	r24, r24
    3bc4:	96 95       	lsr	r25
    3bc6:	87 95       	ror	r24
    3bc8:	97 f9       	bld	r25, 7
    3bca:	08 95       	ret

00003bcc <__fp_cmp>:
    3bcc:	99 0f       	add	r25, r25
    3bce:	00 08       	sbc	r0, r0
    3bd0:	55 0f       	add	r21, r21
    3bd2:	aa 0b       	sbc	r26, r26
    3bd4:	e0 e8       	ldi	r30, 0x80	; 128
    3bd6:	fe ef       	ldi	r31, 0xFE	; 254
    3bd8:	16 16       	cp	r1, r22
    3bda:	17 06       	cpc	r1, r23
    3bdc:	e8 07       	cpc	r30, r24
    3bde:	f9 07       	cpc	r31, r25
    3be0:	c0 f0       	brcs	.+48     	; 0x3c12 <__fp_cmp+0x46>
    3be2:	12 16       	cp	r1, r18
    3be4:	13 06       	cpc	r1, r19
    3be6:	e4 07       	cpc	r30, r20
    3be8:	f5 07       	cpc	r31, r21
    3bea:	98 f0       	brcs	.+38     	; 0x3c12 <__fp_cmp+0x46>
    3bec:	62 1b       	sub	r22, r18
    3bee:	73 0b       	sbc	r23, r19
    3bf0:	84 0b       	sbc	r24, r20
    3bf2:	95 0b       	sbc	r25, r21
    3bf4:	39 f4       	brne	.+14     	; 0x3c04 <__fp_cmp+0x38>
    3bf6:	0a 26       	eor	r0, r26
    3bf8:	61 f0       	breq	.+24     	; 0x3c12 <__fp_cmp+0x46>
    3bfa:	23 2b       	or	r18, r19
    3bfc:	24 2b       	or	r18, r20
    3bfe:	25 2b       	or	r18, r21
    3c00:	21 f4       	brne	.+8      	; 0x3c0a <__fp_cmp+0x3e>
    3c02:	08 95       	ret
    3c04:	0a 26       	eor	r0, r26
    3c06:	09 f4       	brne	.+2      	; 0x3c0a <__fp_cmp+0x3e>
    3c08:	a1 40       	sbci	r26, 0x01	; 1
    3c0a:	a6 95       	lsr	r26
    3c0c:	8f ef       	ldi	r24, 0xFF	; 255
    3c0e:	81 1d       	adc	r24, r1
    3c10:	81 1d       	adc	r24, r1
    3c12:	08 95       	ret

00003c14 <__fp_inf>:
    3c14:	97 f9       	bld	r25, 7
    3c16:	9f 67       	ori	r25, 0x7F	; 127
    3c18:	80 e8       	ldi	r24, 0x80	; 128
    3c1a:	70 e0       	ldi	r23, 0x00	; 0
    3c1c:	60 e0       	ldi	r22, 0x00	; 0
    3c1e:	08 95       	ret

00003c20 <__fp_nan>:
    3c20:	9f ef       	ldi	r25, 0xFF	; 255
    3c22:	80 ec       	ldi	r24, 0xC0	; 192
    3c24:	08 95       	ret

00003c26 <__fp_powser>:
    3c26:	df 93       	push	r29
    3c28:	cf 93       	push	r28
    3c2a:	1f 93       	push	r17
    3c2c:	0f 93       	push	r16
    3c2e:	ff 92       	push	r15
    3c30:	ef 92       	push	r14
    3c32:	df 92       	push	r13
    3c34:	7b 01       	movw	r14, r22
    3c36:	8c 01       	movw	r16, r24
    3c38:	68 94       	set
    3c3a:	05 c0       	rjmp	.+10     	; 0x3c46 <__fp_powser+0x20>
    3c3c:	da 2e       	mov	r13, r26
    3c3e:	ef 01       	movw	r28, r30
    3c40:	76 d0       	rcall	.+236    	; 0x3d2e <__mulsf3x>
    3c42:	fe 01       	movw	r30, r28
    3c44:	e8 94       	clt
    3c46:	a5 91       	lpm	r26, Z+
    3c48:	25 91       	lpm	r18, Z+
    3c4a:	35 91       	lpm	r19, Z+
    3c4c:	45 91       	lpm	r20, Z+
    3c4e:	55 91       	lpm	r21, Z+
    3c50:	ae f3       	brts	.-22     	; 0x3c3c <__fp_powser+0x16>
    3c52:	ef 01       	movw	r28, r30
    3c54:	2c de       	rcall	.-936    	; 0x38ae <__addsf3x>
    3c56:	fe 01       	movw	r30, r28
    3c58:	97 01       	movw	r18, r14
    3c5a:	a8 01       	movw	r20, r16
    3c5c:	da 94       	dec	r13
    3c5e:	79 f7       	brne	.-34     	; 0x3c3e <__fp_powser+0x18>
    3c60:	df 90       	pop	r13
    3c62:	ef 90       	pop	r14
    3c64:	ff 90       	pop	r15
    3c66:	0f 91       	pop	r16
    3c68:	1f 91       	pop	r17
    3c6a:	cf 91       	pop	r28
    3c6c:	df 91       	pop	r29
    3c6e:	08 95       	ret

00003c70 <__fp_pscA>:
    3c70:	00 24       	eor	r0, r0
    3c72:	0a 94       	dec	r0
    3c74:	16 16       	cp	r1, r22
    3c76:	17 06       	cpc	r1, r23
    3c78:	18 06       	cpc	r1, r24
    3c7a:	09 06       	cpc	r0, r25
    3c7c:	08 95       	ret

00003c7e <__fp_pscB>:
    3c7e:	00 24       	eor	r0, r0
    3c80:	0a 94       	dec	r0
    3c82:	12 16       	cp	r1, r18
    3c84:	13 06       	cpc	r1, r19
    3c86:	14 06       	cpc	r1, r20
    3c88:	05 06       	cpc	r0, r21
    3c8a:	08 95       	ret

00003c8c <__fp_round>:
    3c8c:	09 2e       	mov	r0, r25
    3c8e:	03 94       	inc	r0
    3c90:	00 0c       	add	r0, r0
    3c92:	11 f4       	brne	.+4      	; 0x3c98 <__fp_round+0xc>
    3c94:	88 23       	and	r24, r24
    3c96:	52 f0       	brmi	.+20     	; 0x3cac <__fp_round+0x20>
    3c98:	bb 0f       	add	r27, r27
    3c9a:	40 f4       	brcc	.+16     	; 0x3cac <__fp_round+0x20>
    3c9c:	bf 2b       	or	r27, r31
    3c9e:	11 f4       	brne	.+4      	; 0x3ca4 <__fp_round+0x18>
    3ca0:	60 ff       	sbrs	r22, 0
    3ca2:	04 c0       	rjmp	.+8      	; 0x3cac <__fp_round+0x20>
    3ca4:	6f 5f       	subi	r22, 0xFF	; 255
    3ca6:	7f 4f       	sbci	r23, 0xFF	; 255
    3ca8:	8f 4f       	sbci	r24, 0xFF	; 255
    3caa:	9f 4f       	sbci	r25, 0xFF	; 255
    3cac:	08 95       	ret

00003cae <__fp_split3>:
    3cae:	57 fd       	sbrc	r21, 7
    3cb0:	90 58       	subi	r25, 0x80	; 128
    3cb2:	44 0f       	add	r20, r20
    3cb4:	55 1f       	adc	r21, r21
    3cb6:	59 f0       	breq	.+22     	; 0x3cce <__fp_splitA+0x10>
    3cb8:	5f 3f       	cpi	r21, 0xFF	; 255
    3cba:	71 f0       	breq	.+28     	; 0x3cd8 <__fp_splitA+0x1a>
    3cbc:	47 95       	ror	r20

00003cbe <__fp_splitA>:
    3cbe:	88 0f       	add	r24, r24
    3cc0:	97 fb       	bst	r25, 7
    3cc2:	99 1f       	adc	r25, r25
    3cc4:	61 f0       	breq	.+24     	; 0x3cde <__fp_splitA+0x20>
    3cc6:	9f 3f       	cpi	r25, 0xFF	; 255
    3cc8:	79 f0       	breq	.+30     	; 0x3ce8 <__fp_splitA+0x2a>
    3cca:	87 95       	ror	r24
    3ccc:	08 95       	ret
    3cce:	12 16       	cp	r1, r18
    3cd0:	13 06       	cpc	r1, r19
    3cd2:	14 06       	cpc	r1, r20
    3cd4:	55 1f       	adc	r21, r21
    3cd6:	f2 cf       	rjmp	.-28     	; 0x3cbc <__fp_split3+0xe>
    3cd8:	46 95       	lsr	r20
    3cda:	f1 df       	rcall	.-30     	; 0x3cbe <__fp_splitA>
    3cdc:	08 c0       	rjmp	.+16     	; 0x3cee <__fp_splitA+0x30>
    3cde:	16 16       	cp	r1, r22
    3ce0:	17 06       	cpc	r1, r23
    3ce2:	18 06       	cpc	r1, r24
    3ce4:	99 1f       	adc	r25, r25
    3ce6:	f1 cf       	rjmp	.-30     	; 0x3cca <__fp_splitA+0xc>
    3ce8:	86 95       	lsr	r24
    3cea:	71 05       	cpc	r23, r1
    3cec:	61 05       	cpc	r22, r1
    3cee:	08 94       	sec
    3cf0:	08 95       	ret

00003cf2 <__fp_zero>:
    3cf2:	e8 94       	clt

00003cf4 <__fp_szero>:
    3cf4:	bb 27       	eor	r27, r27
    3cf6:	66 27       	eor	r22, r22
    3cf8:	77 27       	eor	r23, r23
    3cfa:	cb 01       	movw	r24, r22
    3cfc:	97 f9       	bld	r25, 7
    3cfe:	08 95       	ret

00003d00 <__gesf2>:
    3d00:	65 df       	rcall	.-310    	; 0x3bcc <__fp_cmp>
    3d02:	08 f4       	brcc	.+2      	; 0x3d06 <__gesf2+0x6>
    3d04:	8f ef       	ldi	r24, 0xFF	; 255
    3d06:	08 95       	ret

00003d08 <inverse>:
    3d08:	9b 01       	movw	r18, r22
    3d0a:	ac 01       	movw	r20, r24
    3d0c:	60 e0       	ldi	r22, 0x00	; 0
    3d0e:	70 e0       	ldi	r23, 0x00	; 0
    3d10:	80 e8       	ldi	r24, 0x80	; 128
    3d12:	9f e3       	ldi	r25, 0x3F	; 63
    3d14:	85 ce       	rjmp	.-758    	; 0x3a20 <__divsf3>

00003d16 <__mulsf3>:
    3d16:	0b d0       	rcall	.+22     	; 0x3d2e <__mulsf3x>
    3d18:	b9 cf       	rjmp	.-142    	; 0x3c8c <__fp_round>
    3d1a:	aa df       	rcall	.-172    	; 0x3c70 <__fp_pscA>
    3d1c:	28 f0       	brcs	.+10     	; 0x3d28 <__mulsf3+0x12>
    3d1e:	af df       	rcall	.-162    	; 0x3c7e <__fp_pscB>
    3d20:	18 f0       	brcs	.+6      	; 0x3d28 <__mulsf3+0x12>
    3d22:	95 23       	and	r25, r21
    3d24:	09 f0       	breq	.+2      	; 0x3d28 <__mulsf3+0x12>
    3d26:	76 cf       	rjmp	.-276    	; 0x3c14 <__fp_inf>
    3d28:	7b cf       	rjmp	.-266    	; 0x3c20 <__fp_nan>
    3d2a:	11 24       	eor	r1, r1
    3d2c:	e3 cf       	rjmp	.-58     	; 0x3cf4 <__fp_szero>

00003d2e <__mulsf3x>:
    3d2e:	bf df       	rcall	.-130    	; 0x3cae <__fp_split3>
    3d30:	a0 f3       	brcs	.-24     	; 0x3d1a <__mulsf3+0x4>

00003d32 <__mulsf3_pse>:
    3d32:	95 9f       	mul	r25, r21
    3d34:	d1 f3       	breq	.-12     	; 0x3d2a <__mulsf3+0x14>
    3d36:	95 0f       	add	r25, r21
    3d38:	50 e0       	ldi	r21, 0x00	; 0
    3d3a:	55 1f       	adc	r21, r21
    3d3c:	62 9f       	mul	r22, r18
    3d3e:	f0 01       	movw	r30, r0
    3d40:	72 9f       	mul	r23, r18
    3d42:	bb 27       	eor	r27, r27
    3d44:	f0 0d       	add	r31, r0
    3d46:	b1 1d       	adc	r27, r1
    3d48:	63 9f       	mul	r22, r19
    3d4a:	aa 27       	eor	r26, r26
    3d4c:	f0 0d       	add	r31, r0
    3d4e:	b1 1d       	adc	r27, r1
    3d50:	aa 1f       	adc	r26, r26
    3d52:	64 9f       	mul	r22, r20
    3d54:	66 27       	eor	r22, r22
    3d56:	b0 0d       	add	r27, r0
    3d58:	a1 1d       	adc	r26, r1
    3d5a:	66 1f       	adc	r22, r22
    3d5c:	82 9f       	mul	r24, r18
    3d5e:	22 27       	eor	r18, r18
    3d60:	b0 0d       	add	r27, r0
    3d62:	a1 1d       	adc	r26, r1
    3d64:	62 1f       	adc	r22, r18
    3d66:	73 9f       	mul	r23, r19
    3d68:	b0 0d       	add	r27, r0
    3d6a:	a1 1d       	adc	r26, r1
    3d6c:	62 1f       	adc	r22, r18
    3d6e:	83 9f       	mul	r24, r19
    3d70:	a0 0d       	add	r26, r0
    3d72:	61 1d       	adc	r22, r1
    3d74:	22 1f       	adc	r18, r18
    3d76:	74 9f       	mul	r23, r20
    3d78:	33 27       	eor	r19, r19
    3d7a:	a0 0d       	add	r26, r0
    3d7c:	61 1d       	adc	r22, r1
    3d7e:	23 1f       	adc	r18, r19
    3d80:	84 9f       	mul	r24, r20
    3d82:	60 0d       	add	r22, r0
    3d84:	21 1d       	adc	r18, r1
    3d86:	82 2f       	mov	r24, r18
    3d88:	76 2f       	mov	r23, r22
    3d8a:	6a 2f       	mov	r22, r26
    3d8c:	11 24       	eor	r1, r1
    3d8e:	9f 57       	subi	r25, 0x7F	; 127
    3d90:	50 40       	sbci	r21, 0x00	; 0
    3d92:	8a f0       	brmi	.+34     	; 0x3db6 <__mulsf3_pse+0x84>
    3d94:	e1 f0       	breq	.+56     	; 0x3dce <__mulsf3_pse+0x9c>
    3d96:	88 23       	and	r24, r24
    3d98:	4a f0       	brmi	.+18     	; 0x3dac <__mulsf3_pse+0x7a>
    3d9a:	ee 0f       	add	r30, r30
    3d9c:	ff 1f       	adc	r31, r31
    3d9e:	bb 1f       	adc	r27, r27
    3da0:	66 1f       	adc	r22, r22
    3da2:	77 1f       	adc	r23, r23
    3da4:	88 1f       	adc	r24, r24
    3da6:	91 50       	subi	r25, 0x01	; 1
    3da8:	50 40       	sbci	r21, 0x00	; 0
    3daa:	a9 f7       	brne	.-22     	; 0x3d96 <__mulsf3_pse+0x64>
    3dac:	9e 3f       	cpi	r25, 0xFE	; 254
    3dae:	51 05       	cpc	r21, r1
    3db0:	70 f0       	brcs	.+28     	; 0x3dce <__mulsf3_pse+0x9c>
    3db2:	30 cf       	rjmp	.-416    	; 0x3c14 <__fp_inf>
    3db4:	9f cf       	rjmp	.-194    	; 0x3cf4 <__fp_szero>
    3db6:	5f 3f       	cpi	r21, 0xFF	; 255
    3db8:	ec f3       	brlt	.-6      	; 0x3db4 <__mulsf3_pse+0x82>
    3dba:	98 3e       	cpi	r25, 0xE8	; 232
    3dbc:	dc f3       	brlt	.-10     	; 0x3db4 <__mulsf3_pse+0x82>
    3dbe:	86 95       	lsr	r24
    3dc0:	77 95       	ror	r23
    3dc2:	67 95       	ror	r22
    3dc4:	b7 95       	ror	r27
    3dc6:	f7 95       	ror	r31
    3dc8:	e7 95       	ror	r30
    3dca:	9f 5f       	subi	r25, 0xFF	; 255
    3dcc:	c1 f7       	brne	.-16     	; 0x3dbe <__mulsf3_pse+0x8c>
    3dce:	fe 2b       	or	r31, r30
    3dd0:	88 0f       	add	r24, r24
    3dd2:	91 1d       	adc	r25, r1
    3dd4:	96 95       	lsr	r25
    3dd6:	87 95       	ror	r24
    3dd8:	97 f9       	bld	r25, 7
    3dda:	08 95       	ret

00003ddc <square>:
    3ddc:	9b 01       	movw	r18, r22
    3dde:	ac 01       	movw	r20, r24
    3de0:	9a cf       	rjmp	.-204    	; 0x3d16 <__mulsf3>

00003de2 <__divmodhi4>:
    3de2:	97 fb       	bst	r25, 7
    3de4:	07 2e       	mov	r0, r23
    3de6:	16 f4       	brtc	.+4      	; 0x3dec <__divmodhi4+0xa>
    3de8:	00 94       	com	r0
    3dea:	07 d0       	rcall	.+14     	; 0x3dfa <__divmodhi4_neg1>
    3dec:	77 fd       	sbrc	r23, 7
    3dee:	09 d0       	rcall	.+18     	; 0x3e02 <__divmodhi4_neg2>
    3df0:	0e 94 27 1f 	call	0x3e4e	; 0x3e4e <__udivmodhi4>
    3df4:	07 fc       	sbrc	r0, 7
    3df6:	05 d0       	rcall	.+10     	; 0x3e02 <__divmodhi4_neg2>
    3df8:	3e f4       	brtc	.+14     	; 0x3e08 <__divmodhi4_exit>

00003dfa <__divmodhi4_neg1>:
    3dfa:	90 95       	com	r25
    3dfc:	81 95       	neg	r24
    3dfe:	9f 4f       	sbci	r25, 0xFF	; 255
    3e00:	08 95       	ret

00003e02 <__divmodhi4_neg2>:
    3e02:	70 95       	com	r23
    3e04:	61 95       	neg	r22
    3e06:	7f 4f       	sbci	r23, 0xFF	; 255

00003e08 <__divmodhi4_exit>:
    3e08:	08 95       	ret

00003e0a <__udivmodsi4>:
    3e0a:	a1 e2       	ldi	r26, 0x21	; 33
    3e0c:	1a 2e       	mov	r1, r26
    3e0e:	aa 1b       	sub	r26, r26
    3e10:	bb 1b       	sub	r27, r27
    3e12:	fd 01       	movw	r30, r26
    3e14:	0d c0       	rjmp	.+26     	; 0x3e30 <__udivmodsi4_ep>

00003e16 <__udivmodsi4_loop>:
    3e16:	aa 1f       	adc	r26, r26
    3e18:	bb 1f       	adc	r27, r27
    3e1a:	ee 1f       	adc	r30, r30
    3e1c:	ff 1f       	adc	r31, r31
    3e1e:	a2 17       	cp	r26, r18
    3e20:	b3 07       	cpc	r27, r19
    3e22:	e4 07       	cpc	r30, r20
    3e24:	f5 07       	cpc	r31, r21
    3e26:	20 f0       	brcs	.+8      	; 0x3e30 <__udivmodsi4_ep>
    3e28:	a2 1b       	sub	r26, r18
    3e2a:	b3 0b       	sbc	r27, r19
    3e2c:	e4 0b       	sbc	r30, r20
    3e2e:	f5 0b       	sbc	r31, r21

00003e30 <__udivmodsi4_ep>:
    3e30:	66 1f       	adc	r22, r22
    3e32:	77 1f       	adc	r23, r23
    3e34:	88 1f       	adc	r24, r24
    3e36:	99 1f       	adc	r25, r25
    3e38:	1a 94       	dec	r1
    3e3a:	69 f7       	brne	.-38     	; 0x3e16 <__udivmodsi4_loop>
    3e3c:	60 95       	com	r22
    3e3e:	70 95       	com	r23
    3e40:	80 95       	com	r24
    3e42:	90 95       	com	r25
    3e44:	9b 01       	movw	r18, r22
    3e46:	ac 01       	movw	r20, r24
    3e48:	bd 01       	movw	r22, r26
    3e4a:	cf 01       	movw	r24, r30
    3e4c:	08 95       	ret

00003e4e <__udivmodhi4>:
    3e4e:	aa 1b       	sub	r26, r26
    3e50:	bb 1b       	sub	r27, r27
    3e52:	51 e1       	ldi	r21, 0x11	; 17
    3e54:	07 c0       	rjmp	.+14     	; 0x3e64 <__udivmodhi4_ep>

00003e56 <__udivmodhi4_loop>:
    3e56:	aa 1f       	adc	r26, r26
    3e58:	bb 1f       	adc	r27, r27
    3e5a:	a6 17       	cp	r26, r22
    3e5c:	b7 07       	cpc	r27, r23
    3e5e:	10 f0       	brcs	.+4      	; 0x3e64 <__udivmodhi4_ep>
    3e60:	a6 1b       	sub	r26, r22
    3e62:	b7 0b       	sbc	r27, r23

00003e64 <__udivmodhi4_ep>:
    3e64:	88 1f       	adc	r24, r24
    3e66:	99 1f       	adc	r25, r25
    3e68:	5a 95       	dec	r21
    3e6a:	a9 f7       	brne	.-22     	; 0x3e56 <__udivmodhi4_loop>
    3e6c:	80 95       	com	r24
    3e6e:	90 95       	com	r25
    3e70:	bc 01       	movw	r22, r24
    3e72:	cd 01       	movw	r24, r26
    3e74:	08 95       	ret

00003e76 <strcmp>:
    3e76:	fb 01       	movw	r30, r22
    3e78:	dc 01       	movw	r26, r24
    3e7a:	8d 91       	ld	r24, X+
    3e7c:	01 90       	ld	r0, Z+
    3e7e:	80 19       	sub	r24, r0
    3e80:	01 10       	cpse	r0, r1
    3e82:	d9 f3       	breq	.-10     	; 0x3e7a <strcmp+0x4>
    3e84:	99 0b       	sbc	r25, r25
    3e86:	08 95       	ret

00003e88 <ltoa>:
    3e88:	fa 01       	movw	r30, r20
    3e8a:	cf 93       	push	r28
    3e8c:	ff 93       	push	r31
    3e8e:	ef 93       	push	r30
    3e90:	22 30       	cpi	r18, 0x02	; 2
    3e92:	44 f1       	brlt	.+80     	; 0x3ee4 <ltoa+0x5c>
    3e94:	25 32       	cpi	r18, 0x25	; 37
    3e96:	34 f5       	brge	.+76     	; 0x3ee4 <ltoa+0x5c>
    3e98:	c2 2f       	mov	r28, r18
    3e9a:	e8 94       	clt
    3e9c:	ca 30       	cpi	r28, 0x0A	; 10
    3e9e:	49 f4       	brne	.+18     	; 0x3eb2 <ltoa+0x2a>
    3ea0:	97 fb       	bst	r25, 7
    3ea2:	3e f4       	brtc	.+14     	; 0x3eb2 <ltoa+0x2a>
    3ea4:	90 95       	com	r25
    3ea6:	80 95       	com	r24
    3ea8:	70 95       	com	r23
    3eaa:	61 95       	neg	r22
    3eac:	7f 4f       	sbci	r23, 0xFF	; 255
    3eae:	8f 4f       	sbci	r24, 0xFF	; 255
    3eb0:	9f 4f       	sbci	r25, 0xFF	; 255
    3eb2:	2c 2f       	mov	r18, r28
    3eb4:	33 27       	eor	r19, r19
    3eb6:	44 27       	eor	r20, r20
    3eb8:	55 27       	eor	r21, r21
    3eba:	ff 93       	push	r31
    3ebc:	ef 93       	push	r30
    3ebe:	0e 94 05 1f 	call	0x3e0a	; 0x3e0a <__udivmodsi4>
    3ec2:	ef 91       	pop	r30
    3ec4:	ff 91       	pop	r31
    3ec6:	60 5d       	subi	r22, 0xD0	; 208
    3ec8:	6a 33       	cpi	r22, 0x3A	; 58
    3eca:	0c f0       	brlt	.+2      	; 0x3ece <ltoa+0x46>
    3ecc:	69 5d       	subi	r22, 0xD9	; 217
    3ece:	61 93       	st	Z+, r22
    3ed0:	b9 01       	movw	r22, r18
    3ed2:	ca 01       	movw	r24, r20
    3ed4:	60 50       	subi	r22, 0x00	; 0
    3ed6:	70 40       	sbci	r23, 0x00	; 0
    3ed8:	80 40       	sbci	r24, 0x00	; 0
    3eda:	90 40       	sbci	r25, 0x00	; 0
    3edc:	51 f7       	brne	.-44     	; 0x3eb2 <ltoa+0x2a>
    3ede:	16 f4       	brtc	.+4      	; 0x3ee4 <ltoa+0x5c>
    3ee0:	cd e2       	ldi	r28, 0x2D	; 45
    3ee2:	c1 93       	st	Z+, r28
    3ee4:	10 82       	st	Z, r1
    3ee6:	8f 91       	pop	r24
    3ee8:	9f 91       	pop	r25
    3eea:	cf 91       	pop	r28
    3eec:	0c 94 78 1f 	jmp	0x3ef0	; 0x3ef0 <strrev>

00003ef0 <strrev>:
    3ef0:	dc 01       	movw	r26, r24
    3ef2:	fc 01       	movw	r30, r24
    3ef4:	67 2f       	mov	r22, r23
    3ef6:	71 91       	ld	r23, Z+
    3ef8:	77 23       	and	r23, r23
    3efa:	e1 f7       	brne	.-8      	; 0x3ef4 <strrev+0x4>
    3efc:	32 97       	sbiw	r30, 0x02	; 2
    3efe:	04 c0       	rjmp	.+8      	; 0x3f08 <strrev+0x18>
    3f00:	7c 91       	ld	r23, X
    3f02:	6d 93       	st	X+, r22
    3f04:	70 83       	st	Z, r23
    3f06:	62 91       	ld	r22, -Z
    3f08:	ae 17       	cp	r26, r30
    3f0a:	bf 07       	cpc	r27, r31
    3f0c:	c8 f3       	brcs	.-14     	; 0x3f00 <strrev+0x10>
    3f0e:	08 95       	ret

00003f10 <_exit>:
    3f10:	f8 94       	cli

00003f12 <__stop_program>:
    3f12:	ff cf       	rjmp	.-2      	; 0x3f12 <__stop_program>
